 mupack_prv

 Timestamp is 6a337143 (Thu Jun 18 14:17:07 2026)

 Preferred load address is 00400000

 Start         Length     Name                   Class
 0001:00000000 00000120H .text$di                CODE
 0001:00000120 0006318eH .text$mn                CODE
 0001:000632ae 00000135H .text$x                 CODE
 0001:000633e3 000000d2H .text$yd                CODE
 0002:00000000 000003b4H .idata$5                DATA
 0002:000003b4 00000004H .00cfg                  DATA
 0002:000003b8 00000004H .CRT$XCA                DATA
 0002:000003bc 00000004H .CRT$XCAA               DATA
 0002:000003c0 00000004H .CRT$XCL                DATA
 0002:000003c4 0000000cH .CRT$XCU                DATA
 0002:000003d0 00000004H .CRT$XCZ                DATA
 0002:000003d4 00000004H .CRT$XIA                DATA
 0002:000003d8 00000004H .CRT$XIAA               DATA
 0002:000003dc 00000004H .CRT$XIAC               DATA
 0002:000003e0 0000000cH .CRT$XIC                DATA
 0002:000003ec 00000004H .CRT$XIZ                DATA
 0002:000003f0 00000004H .CRT$XPA                DATA
 0002:000003f4 00000008H .CRT$XPX                DATA
 0002:000003fc 00000004H .CRT$XPXA               DATA
 0002:00000400 00000004H .CRT$XPZ                DATA
 0002:00000404 00000004H .CRT$XTA                DATA
 0002:00000408 00000008H .CRT$XTZ                DATA
 0002:0000040c 00000000H .gfids$x                DATA
 0002:0000040c 00000000H .gfids$y                DATA
 0002:00000410 00012670H .rdata                  DATA
 0002:00012a80 00001550H .rdata$r                DATA
 0002:00013fd0 0000033cH .rdata$zzzdbg           DATA
 0002:0001430c 00000004H .rtc$IAA                DATA
 0002:00014310 00000004H .rtc$IZZ                DATA
 0002:00014314 00000004H .rtc$TAA                DATA
 0002:00014318 00000008H .rtc$TZZ                DATA
 0002:00014320 000016fcH .xdata$x                DATA
 0002:00015a1c 00000004H ATL$__a                 DATA
 0002:00015a20 00000010H ATL$__z                 DATA
 0002:00015a30 000000bcH .edata                  DATA
 0002:00015aec 000000a0H .idata$2                DATA
 0002:00015b8c 00000014H .idata$3                DATA
 0002:00015ba0 000003b4H .idata$4                DATA
 0002:00015f54 00001010H .idata$6                DATA
 0003:00000000 00000b50H .data                   DATA
 0003:00000b50 00000c28H .data$r                 DATA
 0003:00001778 00001e20H .bss                    DATA
 0004:00000000 00000900H _RDATA                  DATA
 0005:00000000 00000540H .rsrc$01                DATA
 0005:00000540 0001ab18H .rsrc$02                DATA

  Address         Publics by Value              Rva+Base       Lib:Object

 0000:00000000       ___guard_iat_table         00000000     <absolute>
 0000:00000000       ___dynamic_value_reloc_table 00000000     <absolute>
 0000:00000000       ___guard_fids_count        00000000     <absolute>
 0000:00000000       ___volatile_metadata       00000000     <absolute>
 0000:00000000       ___hybrid_code_map_count   00000000     <absolute>
 0000:00000000       ___guard_longjmp_count     00000000     <absolute>
 0000:00000000       __except_list              00000000     <absolute>
 0000:00000000       ___enclave_config          00000000     <absolute>
 0000:00000000       ___guard_fids_table        00000000     <absolute>
 0000:00000000       ___safe_se_handler_table   00000000     <absolute>
 0000:00000000       ___guard_longjmp_table     00000000     <absolute>
 0000:00000000       ___hybrid_auxiliary_iat    00000000     <absolute>
 0000:00000000       ___guard_iat_count         00000000     <absolute>
 0000:00000000       ___hybrid_code_map         00000000     <absolute>
 0000:00000000       ___safe_se_handler_count   00000000     <absolute>
 0000:00000100       ___guard_flags             00000100     <absolute>
 0000:00000000       ___ImageBase               00400000     <linker-defined>
 0001:00000120       ??0BestPackerFrontEnd@@QAE@PAVPackerBackEnd@@@Z 00401120 f   frpacker.obj
 0001:00000132       ??0GoodPackerFrontEnd@@QAE@PAVPackerBackEnd@@@Z 00401132 f   frpacker.obj
 0001:00000144       ??0PackerFrontEnd@@QAE@PAVPackerBackEnd@@@Z 00401144 f   frpacker.obj
 0001:00000156       ??1PackerFrontEnd@@UAE@XZ  00401156 f   frpacker.obj
 0001:00000168       ??_EBestPackerFrontEnd@@UAEPAXI@Z 00401168 f i frpacker.obj
 0001:00000168       ??_GBestPackerFrontEnd@@UAEPAXI@Z 00401168 f i frpacker.obj
 0001:00000193       ??_GGoodPackerFrontEnd@@UAEPAXI@Z 00401193 f i frpacker.obj
 0001:00000193       ??_EGoodPackerFrontEnd@@UAEPAXI@Z 00401193 f i frpacker.obj
 0001:000001be       ??_EPackerFrontEnd@@UAEPAXI@Z 004011be f i frpacker.obj
 0001:000001be       ??_GPackerFrontEnd@@UAEPAXI@Z 004011be f i frpacker.obj
 0001:000001e9       ?Decode@RangeCoder@@QAEXII@Z 004011e9 f   frpacker.obj
 0001:0000024d       ?Decode@RangeModel@@QAEHAAVRangeCoder@@@Z 0040124d f   frpacker.obj
 0001:000002a8       ?DecodePlain@RangeCoder@@QAEII@Z 004012a8 f   frpacker.obj
 0001:000002d0       ?DoPack@BestPackerFrontEnd@@MAEXP6GXIII@Z@Z 004012d0 f   frpacker.obj
 0001:0000071f       ?DoPack@GoodPackerFrontEnd@@MAEXP6GXIII@Z@Z 0040171f f   frpacker.obj
 0001:00000a6d       ?Encode@BitModel@@QAEMAAVCarryRangeCoder@@C@Z 00401a6d f   frpacker.obj
 0001:00000ab4       ?Encode@GammaModel@@QAEMAAVCarryRangeCoder@@H@Z 00401ab4 f   frpacker.obj
 0001:00000b2b       ?Encode@RangeCoder@@QAEXIII@Z 00401b2b f   frpacker.obj
 0001:00000b89       ?Encode@RangeModel@@QAEMAAVRangeCoder@@H@Z 00401b89 f   frpacker.obj
 0001:00000bfc       ?EncodeBit@CarryRangeCoder@@QAEXIC@Z 00401bfc f   frpacker.obj
 0001:00000c3f       ?EncodeEnd@CCAPackerBackEnd@@UAEXPAM@Z 00401c3f f   frpacker.obj
 0001:00000ceb       ?EncodeGamma@CCAPackerBackEnd@@AAEMHI@Z 00401ceb f   frpacker.obj
 0001:00000d84       ?EncodeLiteral@CCAPackerBackEnd@@UAEXII@Z 00401d84 f   frpacker.obj
 0001:00000e29       ?EncodeMatch@CCAPackerBackEnd@@UAEXII@Z 00401e29 f   frpacker.obj
 0001:00000fd8       ?EncodePlain@RangeCoder@@QAEXII@Z 00401fd8 f   frpacker.obj
 0001:00000fea       ?EncodeStart@CCAPackerBackEnd@@UAEIPAEPBEPAM@Z 00401fea f   frpacker.obj
 0001:000011a4       ?FindMatch@GoodPackerFrontEnd@@AAEXAAUMatch@1@II@Z 004021a4 f   frpacker.obj
 0001:000013af       ?FindPrevOffset@PackerBackEnd@@QBEHI@Z 004023af f   frpacker.obj
 0001:000013d4       ?FinishEncode@BitBuffer@@QAEXXZ 004023d4 f   frpacker.obj
 0001:000013e5       ?FinishEncode@CarryRangeCoder@@QAEXXZ 004023e5 f   frpacker.obj
 0001:000013fb       ?FinishEncode@RangeCoder@@QAEXXZ 004023fb f   frpacker.obj
 0001:0000141a       ?FlushAhead@GoodPackerFrontEnd@@AAEXM@Z 0040241a f   frpacker.obj
 0001:00001478       ?GetBackEnd@PackerFrontEnd@@UAEPAVPackerBackEnd@@XZ 00402478 f   frpacker.obj
 0001:0000147c       ?GetBits@BitModel@@QBEMC@Z 0040247c f   frpacker.obj
 0001:000014d6       ?GetBits@GammaModel@@QBEMH@Z 004024d6 f   frpacker.obj
 0001:00001548       ?GetCurrentSize@CCAPackerBackEnd@@UAEIXZ 00402548 f   frpacker.obj
 0001:0000154f       ?GetFreq@RangeCoder@@QAEII@Z 0040254f f   frpacker.obj
 0001:0000156b       ?Init@BitModel@@QAEXH@Z    0040256b f   frpacker.obj
 0001:00001605       ?Init@GammaModel@@QAEXH@Z  00402605 f   frpacker.obj
 0001:00001631       ?Init@RangeModel@@QAEXHH@Z 00402631 f   frpacker.obj
 0001:00001686       ?InitDecode@RangeCoder@@QAEXPAE@Z 00402686 f   frpacker.obj
 0001:000016be       ?InitEncode@BitBuffer@@QAEXPAE@Z 004026be f   frpacker.obj
 0001:000016d6       ?InitEncode@CarryRangeCoder@@QAEXPAE@Z 004026d6 f   frpacker.obj
 0001:000016f8       ?InitEncode@RangeCoder@@QAEXPAE@Z 004026f8 f   frpacker.obj
 0001:0000170d       ?InitPrevOffset@PackerBackEnd@@QAEXH@Z 0040270d f   frpacker.obj
 0001:0000172c       ?LiteralLen@CCAPackerBackEnd@@UAEMII@Z 0040272c f   frpacker.obj
 0001:000017d7       ?MatchLen@CCAPackerBackEnd@@UAEMIII@Z 004027d7 f   frpacker.obj
 0001:00001905       ?MaxOutputSize@CCAPackerBackEnd@@UAEII@Z 00402905 f   frpacker.obj
 0001:00001918       ?MaxOutputSize@PackerFrontEnd@@UAEII@Z 00402918 f   frpacker.obj
 0001:0000191f       ?NewPrevOffset@PackerBackEnd@@QAEXI@Z 0040291f f   frpacker.obj
 0001:00001957       ?Pack@PackerFrontEnd@@UAEIPBEIPAEP6GXIII@ZH@Z 00402957 f   frpacker.obj
 0001:00001ae6       ?PutBit@BitBuffer@@QAEXC@Z 00402ae6 f   frpacker.obj
 0001:00001b1f       ?PutByte@BitBuffer@@QAEXE@Z 00402b1f f   frpacker.obj
 0001:00001b33       ?RealGammaLen@CCAPackerBackEnd@@AAEMHI@Z 00402b33 f   frpacker.obj
 0001:00001bae       ?ShiftLow@CarryRangeCoder@@QAEXXZ 00402bae f   frpacker.obj
 0001:00001c21       ?TryBetterAhead@GoodPackerFrontEnd@@AAEXXZ 00402c21 f   frpacker.obj
 0001:00001c8c       ?Update@RangeModel@@QAEXH@Z 00402c8c f   frpacker.obj
 0001:00001cf8       _compress_fr@12            00402cf8 f   frpacker.obj
 0001:00001e83       _Bt3Zip_MatchFinder_GetMatches@8 00402e83 f   LzFind.obj
 0001:00001f06       _Bt3Zip_MatchFinder_Skip@8 00402f06 f   LzFind.obj
 0001:000023da       _GetMatchesSpec1@40        004033da f   LzFind.obj
 0001:00002526       _Hc3Zip_MatchFinder_GetMatches@8 00403526 f   LzFind.obj
 0001:000025a9       _Hc3Zip_MatchFinder_Skip@8 004035a9 f   LzFind.obj
 0001:000029ed       _MatchFinder_Construct@4   004039ed f   LzFind.obj
 0001:00002a46       _MatchFinder_Create@24     00403a46 f   LzFind.obj
 0001:00002baf       _MatchFinder_CreateVTable@8 00403baf f   LzFind.obj
 0001:00002c1b       _MatchFinder_Free@8        00403c1b f   LzFind.obj
 0001:00002c46       _MatchFinder_GetIndexByte@8 00403c46 f   LzFind.obj
 0001:00002c56       _MatchFinder_GetNumAvailableBytes@4 00403c56 f   LzFind.obj
 0001:00002c63       _MatchFinder_GetPointerToCurrentPos@4 00403c63 f   LzFind.obj
 0001:00002c6c       _MatchFinder_Init@4        00403c6c f   LzFind.obj
 0001:00002cad       _MatchFinder_MoveBlock@4   00403cad f   LzFind.obj
 0001:00002cf6       _MatchFinder_NeedMove@4    00403cf6 f   LzFind.obj
 0001:00002d0b       _MatchFinder_Normalize3@12 00403d0b f   LzFind.obj
 0001:00002da8       _MatchFinder_ReadIfRequired@4 00403da8 f   LzFind.obj
 0001:00002dc6       _MatchFinder_ReduceOffsets@8 00403dc6 f   LzFind.obj
 0001:00002f1f       ?Alloc@@YGPAXPAXI@Z        00403f1f f   lzma.obj
 0001:00002f2c       ?Free@@YGXPAX0@Z           00403f2c f   lzma.obj
 0001:00002f40       ?Load_Input_File@@YGPAEPADPAK@Z 00403f40 f   lzma.obj
 0001:00002fb4       _compress_lzma@12          00403fb4 f   lzma.obj
 0001:00004c0a       _LzmaEncProps_GetDictSize@4 00405c0a f   LzmaEnc.obj
 0001:00004c2f       _LzmaEncProps_Init@4       00405c2f f   LzmaEnc.obj
 0001:00004c62       _LzmaEncProps_Normalize@4  00405c62 f   LzmaEnc.obj
 0001:00005409       _LzmaEnc_CodeOneMemBlock@24 00406409 f   LzmaEnc.obj
 0001:000054ad       _LzmaEnc_Construct@4       004064ad f   LzmaEnc.obj
 0001:0000550c       _LzmaEnc_Create@4          0040650c f   LzmaEnc.obj
 0001:0000552b       _LzmaEnc_Destroy@12        0040652b f   LzmaEnc.obj
 0001:0000554a       _LzmaEnc_Destruct@12       0040654a f   LzmaEnc.obj
 0001:0000557e       _LzmaEnc_Encode@24         0040657e f   LzmaEnc.obj
 0001:0000561b       _LzmaEnc_FastPosInit@4     0040661b f   LzmaEnc.obj
 0001:00005659       _LzmaEnc_Finish@4          00406659 f   LzmaEnc.obj
 0001:0000565c       _LzmaEnc_FreeLits@8        0040665c f   LzmaEnc.obj
 0001:0000568d       _LzmaEnc_GetCurBuf@4       0040668d f   LzmaEnc.obj
 0001:000056a2       _LzmaEnc_GetNumAvailableBytes@4 004066a2 f   LzmaEnc.obj
 0001:000056af       _LzmaEnc_Init@4            004066af f   LzmaEnc.obj
 0001:000057fa       _LzmaEnc_InitPriceTables@4 004067fa f   LzmaEnc.obj
 0001:00005845       _LzmaEnc_InitPrices@4      00406845 f   LzmaEnc.obj
 0001:000058b1       _LzmaEnc_MemEncode@36      004068b1 f   LzmaEnc.obj
 0001:00005923       _LzmaEnc_MemPrepare@24     00406923 f   LzmaEnc.obj
 0001:00005960       _LzmaEnc_PrepareForLzma2@20 00406960 f   LzmaEnc.obj
 0001:00005982       _LzmaEnc_RestoreState@4    00406982 f   LzmaEnc.obj
 0001:00005ac0       _LzmaEnc_SaveState@4       00406ac0 f   LzmaEnc.obj
 0001:00005bfe       _LzmaEnc_SetProps@8        00406bfe f   LzmaEnc.obj
 0001:00005d00       _LzmaEnc_WriteProperties@12 00406d00 f   LzmaEnc.obj
 0001:00005d76       _LzmaEncode@44             00406d76 f   LzmaEnc.obj
 0001:000061bd       ??0CAtlComModule@ATL@@QAE@XZ 004071bd f i pack_util.obj
 0001:00006202       ??0CAtlWinModule@ATL@@QAE@XZ 00407202 f i pack_util.obj
 0001:00006239       ??1stringdispid@CComTypeInfoHolder@ATL@@QAE@XZ 00407239 f i pack_util.obj
 0001:00006242       ??A?$CSimpleArray@GV?$CSimpleArrayEqualHelper@G@ATL@@@ATL@@QAEAAGH@Z 00407242 f i pack_util.obj
 0001:00006264       ??_Estringdispid@CComTypeInfoHolder@ATL@@QAEPAXI@Z 00407264 f i pack_util.obj
 0001:000062cc       ??_H@YGXPAXIIP6EPAX0@Z@Z   004072cc f i pack_util.obj
 0001:000062ee       ??_I@YGXPAXIIP6EX0@Z@Z     004072ee f i pack_util.obj
 0001:00006318       ?AddSection@@YGXPBDPAXKKPAUPE@@@Z 00407318 f   pack_util.obj
 0001:00006472       ?AtlWinModuleInit@ATL@@YGJPAU_ATL_WIN_MODULE70@1@@Z 00407472 f i pack_util.obj
 0001:00006495       ?AtlWinModuleTerm@ATL@@YGJPAU_ATL_WIN_MODULE70@1@PAUHINSTANCE__@@@Z 00407495 f i pack_util.obj
 0001:000064f6       ?Init@CComCriticalSection@ATL@@QAEJXZ 004074f6 f i pack_util.obj
 0001:0000651d       ?PrepareNewResourceDirectory@@YGXPAU_IMAGE_RESOURCE_DIRECTORY@@KKK@Z 0040751d f   pack_util.obj
 0001:000066e9       ?PrepareNewResourceEntry@@YGXPAU_IMAGE_RESOURCE_DIRECTORY_ENTRY@@0KKK@Z 004076e9 f   pack_util.obj
 0001:000067b6       ?ProcessResourceDirectory@@YGXPAU_IMAGE_RESOURCE_DIRECTORY@@K0KKK@Z 004077b6 f   pack_util.obj
 0001:00006845       ?ProcessResourceEntry@@YGXPAU_IMAGE_RESOURCE_DIRECTORY_ENTRY@@K0KKK@Z 00407845 f   pack_util.obj
 0001:00006904       ?RemoveAll@?$CSimpleArray@GV?$CSimpleArrayEqualHelper@G@ATL@@@ATL@@QAEXXZ 00407904 f i pack_util.obj
 0001:00006921       ?Term@CAtlComModule@ATL@@QAEXXZ 00407921 f i pack_util.obj
 0001:0000696b       ?_AtlInitializeCriticalSectionEx@ATL@@YAHPAU_RTL_CRITICAL_SECTION@@KK@Z 0040796b f i pack_util.obj
 0001:0000697a       ?_AtlRaiseException@ATL@@YGXKK@Z 0040797a f i pack_util.obj
 0001:0000698f       ?fix_checksum@@YGXPAD@Z    0040798f f   pack_util.obj
 0001:00006a49       ?load_data@Mud_FileAccess@@SGPAEPADPAI@Z 00407a49 f i pack_util.obj
 0001:00006ab4       ?pe_read@@YGHPADPAUPE@@@Z  00407ab4 f   pack_util.obj
 0001:00006d36       ?pe_write@@YGHPADPAUPE@@@Z 00407d36 f   pack_util.obj
 0001:00006ec9       ?rvatoffset@@YGKKPAUPE@@@Z 00407ec9 f   pack_util.obj
 0001:00006f21       ___local_stdio_printf_options 00407f21 f i pack_util.obj
 0001:00006f27       __vsnprintf_l              00407f27 f i pack_util.obj
 0001:00006f59       _sprintf                   00407f59 f i pack_util.obj
 0001:00006f73       ??$sprintf_s@$0BA@@@YAHAAY0BA@DPBDZZ 00407f73 f i pack.obj
 0001:00006f8d       ?adler32@@YGKPAEI@Z        00407f8d f   pack.obj
 0001:00006fd1       ?compress_file@@YGHPAD@Z   00407fd1 f   pack.obj
 0001:00007dfb       ?wsstrcpy@@YGHPADPBD@Z     00408dfb f   pack.obj
 0001:00007e24       ?x86_codefilter_@@YGIPAEI@Z 00408e24 f   pack.obj
 0001:00007f7f       __vsprintf_s_l             00408f7f f i pack.obj
 0001:00007fad       ??$_Allocate@$07U_Default_allocate_traits@std@@$0A@@std@@YGPAXI@Z 00408fad f i patternfind.obj
 0001:00007fd2       ??$_Allocate_manually_vector_aligned@U_Default_allocate_traits@std@@@std@@YGPAXI@Z 00408fd2 f i patternfind.obj
 0001:00008000       ??$_Deallocate@$07$0A@@std@@YGXPAXI@Z 00409000 f i patternfind.obj
 0001:0000802c       ??$_Emplace_reallocate@ABUPATTERNBYTE@@@?$vector@UPATTERNBYTE@@V?$allocator@UPATTERNBYTE@@@std@@@std@@QAEPAUPATTERNBYTE@@QAU2@ABU2@@Z 0040902c f i patternfind.obj
 0001:00008111       ??$emplace_back@ABUPATTERNBYTE@@@?$vector@UPATTERNBYTE@@V?$allocator@UPATTERNBYTE@@@std@@@std@@QAEXABUPATTERNBYTE@@@Z 00409111 f i patternfind.obj
 0001:00008134       ?_Adjust_manually_vector_aligned@std@@YGXAAPAXAAI@Z 00409134 f i patternfind.obj
 0001:00008159       ?_Calculate_growth@?$vector@UPATTERNBYTE@@V?$allocator@UPATTERNBYTE@@@std@@@std@@ABEII@Z 00409159 f i patternfind.obj
 0001:00008180       ?_Change_array@?$vector@UPATTERNBYTE@@V?$allocator@UPATTERNBYTE@@@std@@@std@@AAEXQAUPATTERNBYTE@@II@Z 00409180 f i patternfind.obj
 0001:000081b6       ?_Tidy@?$vector@UPATTERNBYTE@@V?$allocator@UPATTERNBYTE@@@std@@@std@@AAEXXZ 004091b6 f i patternfind.obj
 0001:000081da       ?_Xlength@?$vector@UPATTERNBYTE@@V?$allocator@UPATTERNBYTE@@@std@@@std@@CGXXZ 004091da f i patternfind.obj
 0001:000081e5       ?_Xrange@?$vector@UPATTERNBYTE@@V?$allocator@UPATTERNBYTE@@@std@@@std@@CGXXZ 004091e5 f i patternfind.obj
 0001:000081f0       ?allocate@?$allocator@UPATTERNBYTE@@@std@@QAEPAUPATTERNBYTE@@I@Z 004091f0 f i patternfind.obj
 0001:0000820e       ?at@?$vector@UPATTERNBYTE@@V?$allocator@UPATTERNBYTE@@@std@@@std@@QAEAAUPATTERNBYTE@@I@Z 0040920e f i patternfind.obj
 0001:0000822c       ?deallocate@?$allocator@UPATTERNBYTE@@@std@@QAEXQAUPATTERNBYTE@@I@Z 0040922c f i patternfind.obj
 0001:000082df       ?patternfind@@YGIPAEIPBD@Z 004092df f   patternfind.obj
 0001:00008387       ?patternsnr@@YG_NPAEIPBD1@Z 00409387 f   patternfind.obj
 0001:000084d2       ?patternwrite@@YGXPAEIPBD@Z 004094d2 f   patternfind.obj
 0001:0000854e       ___local_stdio_scanf_options 0040954e f i patternfind.obj
 0001:00008554       __vsscanf_l                00409554 f i patternfind.obj
 0001:00008579       _sscanf                    00409579 f i patternfind.obj
 0001:00008591       ?QueryInterface@CRegObject@ATL@@UAGJABU_GUID@@PAPAX@Z 00409591 f i exepacker.obj
 0001:00008599       ?AddRef@CRegObject@ATL@@UAGKXZ 00409599 f i exepacker.obj
 0001:0000859f       ?Release@CRegObject@ATL@@UAGKXZ 0040959f f i exepacker.obj
 0001:000085a4       ?AddReplacement@CRegObject@ATL@@UAGJPB_W0@Z 004095a4 f i exepacker.obj
 0001:00008689       ?ClearReplacements@CRegObject@ATL@@UAGJXZ 00409689 f i exepacker.obj
 0001:000086b1       ??_GCRegObject@ATL@@UAEPAXI@Z 004096b1 f i exepacker.obj
 0001:000086b1       ??_ECRegObject@ATL@@UAEPAXI@Z 004096b1 f i exepacker.obj
 0001:000086d0       ?Lock@CAtlModule@ATL@@UAEJXZ 004096d0 f i exepacker.obj
 0001:000086db       ?Unlock@CAtlModule@ATL@@UAEJXZ 004096db f i exepacker.obj
 0001:000086e6       ?GetLockCount@CAtlModule@ATL@@UAEJXZ 004096e6 f i exepacker.obj
 0001:000086ea       ?GetGITPtr@CAtlModule@ATL@@UAEJPAPAUIGlobalInterfaceTable@@@Z 004096ea f i exepacker.obj
 0001:00008733       ?AddCommonRGSReplacements@?$CAtlModuleT@VCComModule@ATL@@@ATL@@UAEJPAUIRegistrarBase@@@Z 00409733 f i exepacker.obj
 0001:0000874a       ?UpdateRegistryFromResourceD@CComModule@ATL@@UAGJPBDHPAU_ATL_REGMAP_ENTRY@2@@Z 0040974a f i exepacker.obj
 0001:00008752       ?UpdateRegistryFromResourceD@CComModule@ATL@@UAGJIHPAU_ATL_REGMAP_ENTRY@2@@Z 00409752 f i exepacker.obj
 0001:0000875a       ?UpdateRegistryFromResource@CComModule@ATL@@UAGJPBDHPAU_ATL_REGMAP_ENTRY@2@@Z 0040975a f i exepacker.obj
 0001:0000875f       ?UpdateRegistryFromResource@CComModule@ATL@@UAGJIHPAU_ATL_REGMAP_ENTRY@2@@Z 0040975f f i exepacker.obj
 0001:00008764       ??_ECComModule@ATL@@UAEPAXI@Z 00409764 f i exepacker.obj
 0001:00008764       ??_GCComModule@ATL@@UAEPAXI@Z 00409764 f i exepacker.obj
 0001:00008789       ??_ECAppModule@WTL@@UAEPAXI@Z 00409789 f i exepacker.obj
 0001:00008789       ??_GCAppModule@WTL@@UAEPAXI@Z 00409789 f i exepacker.obj
 0001:000087ae       ??$AtlAdd@K@ATL@@YGJPAKKK@Z 004097ae f i exepacker.obj
 0001:000087d2       ??$AtlAddThrow@K@ATL@@YGKKK@Z 004097d2 f i exepacker.obj
 0001:000087f6       ??$AtlModuleRegisterWndClassInfoT@VAtlModuleRegisterWndClassInfoParamA@ATL@@@ATL@@YGGPAU_ATL_BASE_MODULE70@0@PAU_ATL_WIN_MODULE70@0@PAU_ATL_WNDCLASSINFOA@0@PAP6GJPAUHWND__@@IIJ@ZVAtlModuleRegisterWndClassInfoParamA@0@@Z 004097f6 f i exepacker.obj
 0001:0000896a       ??$AtlMultiply@H@ATL@@YGJPAHHH@Z 0040996a f i exepacker.obj
 0001:000089a3       ??$AtlMultiply@I@ATL@@YGJPAIII@Z 004099a3 f i exepacker.obj
 0001:000089c6       ??$AtlMultiply@K@ATL@@YGJPAKKK@Z 004099c6 f i exepacker.obj
 0001:000089e9       ??$AtlMultiplyThrow@I@ATL@@YGIII@Z 004099e9 f i exepacker.obj
 0001:00008a0d       ??$_ThreadProcThunk@VCProcessThread@@@@YGKPAX@Z 00409a0d f i exepacker.obj
 0001:00008a17       ??$_ThreadProcThunk@VCProcessThread_Console@@@@YGKPAX@Z 00409a17 f i exepacker.obj
 0001:00008a21       ??0?$CDialogTabImpl@VCDialogTabCtrl@@V?$CTabCtrlT@VCWindow@ATL@@@WTL@@V?$CWinTraits@$0FGAAAAAA@$0A@@ATL@@@@QAE@XZ 00409a21 f i exepacker.obj
 0001:00008a4f       ??0?$CDlgContainerImpl@VCDlgContainerCtrl@@VCWindow@ATL@@V?$CWinTraits@$0FGAAAAAA@$0A@@3@@@QAE@XZ 00409a4f f i exepacker.obj
 0001:00008a78       ??0?$CHyperLinkImpl@VCHyperLink@WTL@@VCWindow@ATL@@V?$CWinTraits@$0FGAAAAAA@$0A@@4@@WTL@@QAE@K@Z 00409a78 f i exepacker.obj
 0001:00008ad2       ??0?$CThreadImpl@VCProcessThread@@V?$CThreadT@$00@@@@QAE@K@Z 00409ad2 f i exepacker.obj
 0001:00008b01       ??0?$CThreadImpl@VCProcessThread_Console@@V?$CThreadT@$00@@@@QAE@K@Z 00409b01 f i exepacker.obj
 0001:00008b30       ??0?$CUpdateUI@VCMainDlg@@@WTL@@QAE@XZ 00409b30 f i exepacker.obj
 0001:00008b6a       ??0CAboutDlg@@QAE@XZ       00409b6a f i exepacker.obj
 0001:00008ba8       ??0CAtlModule@ATL@@QAE@XZ  00409ba8 f i exepacker.obj
 0001:00008be9       ??0CMainDlg@@QAE@XZ        00409be9 f i exepacker.obj
 0001:00008c41       ??0CPackDlg@@QAE@XZ        00409c41 f i exepacker.obj
 0001:00008c61       ??0CParseBuffer@CRegParser@ATL@@QAE@H@Z 00409c61 f i exepacker.obj
 0001:00008c91       ??0CProcessThread@@QAE@PAUHWND__@@PAD@Z 00409c91 f i exepacker.obj
 0001:00008cbb       ??0CProcessThread_Console@@QAE@PAD@Z 00409cbb f i exepacker.obj
 0001:00008cde       ??0CRegObject@ATL@@QAE@XZ  00409cde f i exepacker.obj
 0001:00008d07       ??0CString@WTL@@QAE@PBD@Z  00409d07 f i exepacker.obj
 0001:00008d61       ??0LogMessage@@AAE@XZ      00409d61 f   exepacker.obj
 0001:00008d67       ??0_ATL_MSG@ATL@@QAE@PAUHWND__@@IIJH@Z 00409d67 f i exepacker.obj
 0001:00008d9f       ??1?$CComCritSecLock@VCComCriticalSection@ATL@@@ATL@@QAE@XZ 00409d9f f i exepacker.obj
 0001:00008db6       ??1?$CDialogImplBaseT@VCWindow@ATL@@@ATL@@UAE@XZ 00409db6 f i exepacker.obj
 0001:00008dc5       ??1?$CDialogTabImpl@VCDialogTabCtrl@@V?$CTabCtrlT@VCWindow@ATL@@@WTL@@V?$CWinTraits@$0FGAAAAAA@$0A@@ATL@@@@UAE@XZ 00409dc5 f i exepacker.obj
 0001:00008de0       ??1?$CDlgContainerImpl@VCDlgContainerCtrl@@VCWindow@ATL@@V?$CWinTraits@$0FGAAAAAA@$0A@@3@@@UAE@XZ 00409de0 f i exepacker.obj
 0001:00008dfb       ??1?$CHyperLinkImpl@VCHyperLink@WTL@@VCWindow@ATL@@V?$CWinTraits@$0FGAAAAAA@$0A@@4@@WTL@@UAE@XZ 00409dfb f i exepacker.obj
 0001:00008e20       ??1?$CThreadT@$00@@QAE@XZ  00409e20 f i exepacker.obj
 0001:00008e36       ??1?$CWindowImplRoot@V?$CTabCtrlT@VCWindow@ATL@@@WTL@@@ATL@@UAE@XZ 00409e36 f i exepacker.obj
 0001:00008e45       ??1?$CWindowImplRoot@VCWindow@ATL@@@ATL@@UAE@XZ 00409e45 f i exepacker.obj
 0001:00008e54       ??1CAboutDlg@@UAE@XZ       00409e54 f i exepacker.obj
 0001:00008e6f       ??1CAtlModule@ATL@@UAE@XZ  00409e6f f i exepacker.obj
 0001:00008e74       ??1CClientDC@WTL@@QAE@XZ   00409e74 f i exepacker.obj
 0001:00008e98       ??1CMainDlg@@UAE@XZ        00409e98 f i exepacker.obj
 0001:00008ed6       ??1CProcessThread@@QAE@XZ  00409ed6 f i exepacker.obj
 0001:00008ef0       ??1CProcessThread_Console@@QAE@XZ 00409ef0 f i exepacker.obj
 0001:00008f0a       ??1CRegObject@ATL@@UAE@XZ  00409f0a f i exepacker.obj
 0001:00008f3e       ??1CString@WTL@@QAE@XZ     00409f3e f i exepacker.obj
 0001:00008f6a       ??1CUpdateUIBase@WTL@@QAE@XZ 00409f6a f i exepacker.obj
 0001:00008fbb       ??1LogMessage@@QAE@XZ      00409fbb f   exepacker.obj
 0001:00008fbc       ??A?$CSimpleArray@PAUHWND__@@V?$CSimpleArrayEqualHelper@PAUHWND__@@@ATL@@@ATL@@QAEAAPAUHWND__@@H@Z 00409fbc f i exepacker.obj
 0001:00008fde       ??A?$CSimpleArray@PAUHWND__@@V?$CSimpleArrayEqualHelper@PAUHWND__@@@ATL@@@ATL@@QBEABQAUHWND__@@H@Z 00409fde f i exepacker.obj
 0001:00009000       ??A?$CSimpleArray@PAVCIdleHandler@WTL@@V?$CSimpleArrayEqualHelper@PAVCIdleHandler@WTL@@@ATL@@@ATL@@QAEAAPAVCIdleHandler@WTL@@H@Z 0040a000 f i exepacker.obj
 0001:00009022       ??A?$CSimpleArray@PAVCMessageFilter@WTL@@V?$CSimpleArrayEqualHelper@PAVCMessageFilter@WTL@@@ATL@@@ATL@@QAEAAPAVCMessageFilter@WTL@@H@Z 0040a022 f i exepacker.obj
 0001:00009044       ??_ECAboutDlg@@UAEPAXI@Z   0040a044 f i exepacker.obj
 0001:00009044       ??_GCAboutDlg@@UAEPAXI@Z   0040a044 f i exepacker.obj
 0001:00009066       ??_GCDialogTabCtrl@@UAEPAXI@Z 0040a066 f i exepacker.obj
 0001:00009066       ??_ECDialogTabCtrl@@UAEPAXI@Z 0040a066 f i exepacker.obj
 0001:00009085       ??_ECDlgContainerCtrl@@UAEPAXI@Z 0040a085 f i exepacker.obj
 0001:00009085       ??_GCDlgContainerCtrl@@UAEPAXI@Z 0040a085 f i exepacker.obj
 0001:000090a4       ??_GCHyperLink@WTL@@UAEPAXI@Z 0040a0a4 f i exepacker.obj
 0001:000090a4       ??_ECHyperLink@WTL@@UAEPAXI@Z 0040a0a4 f i exepacker.obj
 0001:000090c3       ??_ECMainDlg@@UAEPAXI@Z    0040a0c3 f i exepacker.obj
 0001:000090c3       ??_GCMainDlg@@UAEPAXI@Z    0040a0c3 f i exepacker.obj
 0001:000090e5       ??_ECPackDlg@@UAEPAXI@Z    0040a0e5 f i exepacker.obj
 0001:000090e5       ??_GCPackDlg@@UAEPAXI@Z    0040a0e5 f i exepacker.obj
 0001:0000910d       ?Add@?$CSimpleArray@GV?$CSimpleArrayEqualHelper@G@ATL@@@ATL@@QAEHABG@Z 0040a10d f i exepacker.obj
 0001:00009184       ?Add@?$CSimpleArray@PAUHWND__@@V?$CSimpleArrayEqualHelper@PAUHWND__@@@ATL@@@ATL@@QAEHABQAUHWND__@@@Z 0040a184 f i exepacker.obj
 0001:00009203       ?Add@?$CSimpleArray@PAVCIdleHandler@WTL@@V?$CSimpleArrayEqualHelper@PAVCIdleHandler@WTL@@@ATL@@@ATL@@QAEHABQAVCIdleHandler@WTL@@@Z 0040a203 f i exepacker.obj
 0001:00009282       ?Add@?$CSimpleArray@PAVCMessageFilter@WTL@@V?$CSimpleArrayEqualHelper@PAVCMessageFilter@WTL@@@ATL@@@ATL@@QAEHABQAVCMessageFilter@WTL@@@Z 0040a282 f i exepacker.obj
 0001:00009301       ?Add@?$CSimpleArray@U_AtlUpdateUIElement@CUpdateUIBase@WTL@@V?$CSimpleArrayEqualHelper@U_AtlUpdateUIElement@CUpdateUIBase@WTL@@@ATL@@@ATL@@QAEHABU_AtlUpdateUIElement@CUpdateUIBase@WTL@@@Z 0040a301 f i exepacker.obj
 0001:00009378       ?Add@?$CSimpleMap@KPAVCMessageLoop@WTL@@V?$CSimpleMapEqualHelper@KPAVCMessageLoop@WTL@@@ATL@@@ATL@@QAEHABKABQAVCMessageLoop@WTL@@@Z 0040a378 f i exepacker.obj
 0001:000093cb       ?Add@?$CSimpleMap@PADPA_WVCExpansionVectorEqualHelper@ATL@@@ATL@@QAEHABQADABQA_W@Z 0040a3cb f i exepacker.obj
 0001:0000941e       ?Add@CExpansionVector@ATL@@QAEHPBDPB_W@Z 0040a41e f i exepacker.obj
 0001:00009515       ?AddColumn@?$CListViewCtrlT@VCWindow@ATL@@@WTL@@QAEHPBDHHHH@Z 0040a515 f i exepacker.obj
 0001:0000958a       ?AddItem@?$CDlgContainerImpl@VCDlgContainerCtrl@@VCWindow@ATL@@V?$CWinTraits@$0FGAAAAAA@$0A@@3@@@QAEHPAUHWND__@@@Z 0040a58a f i exepacker.obj
 0001:000095f8       ?AddItem@?$CListViewCtrlT@VCWindow@ATL@@@WTL@@QAEHHHPBDH@Z 0040a5f8 f i exepacker.obj
 0001:00009673       ?AddMessageLoop@CAppModule@WTL@@QAEHPAVCMessageLoop@2@@Z 0040a673 f i exepacker.obj
 0001:000096c6       ?AddString@CParseBuffer@CRegParser@ATL@@QAEHPB_W@Z 0040a6c6 f i exepacker.obj
 0001:00009786       ?AddTool@?$CToolTipCtrlT@VCWindow@ATL@@@WTL@@QAEHPAUHWND__@@V_U_STRINGorID@ATL@@PBUtagRECT@@I@Z 0040a786 f i exepacker.obj
 0001:000097bf       ?AddValue@CRegParser@ATL@@IAEJAAVCRegKey@2@PBDPAD@Z 0040a7bf f i exepacker.obj
 0001:00009b5c       ?AllocBeforeWrite@CString@WTL@@IAEHH@Z 0040ab5c f i exepacker.obj
 0001:00009b87       ?AllocBuffer@CString@WTL@@IAEHH@Z 0040ab87 f i exepacker.obj
 0001:00009bc8       ?Allocate@?$CAtlSafeAllocBufferManager@VCCRTAllocator@ATL@@@_ATL_SAFE_ALLOCA_IMPL@ATL@@QAEPAXK@Z 0040abc8 f i exepacker.obj
 0001:00009bf0       ?AllocateHeap@?$CTempBuffer@D$0BAA@VCCRTAllocator@ATL@@@ATL@@AAEXI@Z 0040abf0 f i exepacker.obj
 0001:00009c12       ?AllocateHeap@?$CTempBuffer@D$0EAA@VCCRTAllocator@ATL@@@ATL@@AAEXI@Z 0040ac12 f i exepacker.obj
 0001:00009c34       ?AllocateHeap@?$CTempBuffer@E$0BAA@VCCRTAllocator@ATL@@@ATL@@AAEXI@Z 0040ac34 f i exepacker.obj
 0001:00009c56       ?Append@CParseBuffer@CRegParser@ATL@@QAEHPBDH@Z 0040ac56 f i exepacker.obj
 0001:00009cd7       ?AssignCopy@CString@WTL@@IAEXHPBD@Z 0040acd7 f i exepacker.obj
 0001:00009d0c       ?AtlA2WHelper@@YGPA_WPA_WPBDHI@Z 0040ad0c f i exepacker.obj
 0001:00009d44       ?AtlCallTermFunc@ATL@@YGXPAU_ATL_MODULE70@1@@Z 0040ad44 f i exepacker.obj
 0001:00009d85       ?AtlCoTaskMemCAlloc@ATL@@YGPAXKK@Z 0040ad85 f i exepacker.obj
 0001:00009db1       ?AtlCoTaskMemRecalloc@ATL@@YGPAXPAXKK@Z 0040adb1 f i exepacker.obj
 0001:00009de0       ?AtlCreateControlFont@WTL@@YGPAUHFONT__@@XZ 0040ade0 f i exepacker.obj
 0001:00009e12       ?AtlCrtErrorCheck@ATL@@YGHH@Z 0040ae12 f i exepacker.obj
 0001:00009e4c       ?AtlHresultFromLastError@ATL@@YGJXZ 0040ae4c f i exepacker.obj
 0001:00009e63       ?AtlHresultFromWin32@ATL@@YGJK@Z 0040ae63 f i exepacker.obj
 0001:00009e77       ?AtlInitCommonControls@WTL@@YGHK@Z 0040ae77 f i exepacker.obj
 0001:00009e97       ?AtlThrowImpl@ATL@@YGXJ@Z  0040ae97 f i exepacker.obj
 0001:00009eb3       ?AtlW2AHelper@@YGPADPADPB_WHI@Z 0040aeb3 f i exepacker.obj
 0001:00009eec       ?AtlWinModuleAddCreateWndData@ATL@@YGXPAU_ATL_WIN_MODULE70@1@PAU_AtlCreateWndData@1@PAX@Z 0040aeec f i exepacker.obj
 0001:00009f3f       ?AtlWinModuleExtractCreateWndData@ATL@@YGPAXPAU_ATL_WIN_MODULE70@1@@Z 0040af3f f i exepacker.obj
 0001:00009f9c       ?AtlWinModuleRegisterClassExA@ATL@@YGGPAU_ATL_WIN_MODULE70@1@PBUtagWNDCLASSEXA@@@Z 0040af9c f i exepacker.obj
 0001:00009fdb       ?CalcLabelParts@?$CHyperLinkImpl@VCHyperLink@WTL@@VCWindow@ATL@@V?$CWinTraits@$0FGAAAAAA@$0A@@4@@WTL@@QBEXAAPADAAH0101@Z 0040afdb f i exepacker.obj
 0001:0000a0d2       ?CalcLabelRect@?$CHyperLinkImpl@VCHyperLink@WTL@@VCWindow@ATL@@V?$CWinTraits@$0FGAAAAAA@$0A@@4@@WTL@@QAE_NXZ 0040b0d2 f i exepacker.obj
 0001:0000a2f3       ?CanForceRemoveKey@CRegParser@ATL@@IAEHPBD@Z 0040b2f3 f i exepacker.obj
 0001:0000a31f       ?CenterWindow@CWindow@ATL@@QAEHPAUHWND__@@@Z 0040b31f f i exepacker.obj
 0001:0000a4bf       ?ChToByte@CRegParser@ATL@@KGED@Z 0040b4bf f i exepacker.obj
 0001:0000a4ec       ?ClearReplacements@CExpansionVector@ATL@@QAEJXZ 0040b4ec f i exepacker.obj
 0001:0000a529       ?Close@CRegKey@ATL@@QAEJXZ 0040b529 f i exepacker.obj
 0001:0000a543       ?ConcatCopy@CString@WTL@@IAEHHPBDH0@Z 0040b543 f i exepacker.obj
 0001:0000a5b0       ?ConcatInPlace@CString@WTL@@IAEXHPBD@Z 0040b5b0 f i exepacker.obj
 0001:0000a61b       ?CopyBeforeWrite@CString@WTL@@IAEXXZ 0040b61b f i exepacker.obj
 0001:0000a653       ?Create@?$CDialogImpl@VCAboutDlg@@VCWindow@ATL@@@ATL@@QAEPAUHWND__@@PAU3@J@Z 0040b653 f i exepacker.obj
 0001:0000a6a3       ?Create@?$CDialogImpl@VCMainDlg@@VCWindow@ATL@@@ATL@@QAEPAUHWND__@@PAU3@J@Z 0040b6a3 f i exepacker.obj
 0001:0000a6f3       ?Create@?$CDialogImpl@VCPackDlg@@VCWindow@ATL@@@ATL@@QAEPAUHWND__@@PAU3@J@Z 0040b6f3 f i exepacker.obj
 0001:0000a740       ?Create@?$CToolTipCtrlT@VCWindow@ATL@@@WTL@@QAEPAUHWND__@@PAU3@V_U_RECT@ATL@@PBDKKV_U_MENUorID@5@PAX@Z 0040b740 f i exepacker.obj
 0001:0000a776       ?Create@?$CWindowImpl@VCDlgContainerCtrl@@VCWindow@ATL@@V?$CWinTraits@$0FGAAAAAA@$0A@@3@@ATL@@QAEPAUHWND__@@PAU3@V_U_RECT@2@PBDKKV_U_MENUorID@2@PAX@Z 0040b776 f i exepacker.obj
 0001:0000a7c7       ?Create@?$CWindowImplBaseT@VCWindow@ATL@@V?$CWinTraits@$0FGAAAAAA@$0A@@2@@ATL@@QAEPAUHWND__@@PAU3@V_U_RECT@2@PBDKKV_U_MENUorID@2@GPAX@Z 0040b7c7 f i exepacker.obj
 0001:0000a863       ?Create@CRegKey@ATL@@QAEJPAUHKEY__@@PBDPADKKPAU_SECURITY_ATTRIBUTES@@PAK@Z 0040b863 f i exepacker.obj
 0001:0000a8d2       ?Create@CWindow@ATL@@QAEPAUHWND__@@PBDPAU3@V_U_RECT@2@0KKV_U_MENUorID@2@PAX@Z 0040b8d2 f i exepacker.obj
 0001:0000a925       ?CreateInstance@LogMessage@@SGPAV1@PAUHWND__@@@Z 0040b925 f   exepacker.obj
 0001:0000a959       ?CreateLinkFontFromNormal@?$CHyperLinkImpl@VCHyperLink@WTL@@VCWindow@ATL@@V?$CWinTraits@$0FGAAAAAA@$0A@@4@@WTL@@QAEXXZ 0040b959 f i exepacker.obj
 0001:0000a9dd       ?DefWindowProcA@?$CWindowImplBaseT@V?$CTabCtrlT@VCWindow@ATL@@@WTL@@V?$CWinTraits@$0FGAAAAAA@$0A@@ATL@@@ATL@@QAEJXZ 0040b9dd f i exepacker.obj
 0001:0000aa00       ?DeleteSubKey@CRegKey@ATL@@QAEJPBD@Z 0040ba00 f i exepacker.obj
 0001:0000aa78       ?DestroyWindow@CWindow@ATL@@QAEHXZ 0040ba78 f i exepacker.obj
 0001:0000aa91       ?DialogProc@?$CDialogImplBaseT@VCWindow@ATL@@@ATL@@SGHPAUHWND__@@IIJ@Z 0040ba91 f i exepacker.obj
 0001:0000ab66       ?DoEraseBackground@?$CHyperLinkImpl@VCHyperLink@WTL@@VCWindow@ATL@@V?$CWinTraits@$0FGAAAAAA@$0A@@4@@WTL@@QAEXV?$CDCT@$0A@@2@@Z 0040bb66 f i exepacker.obj
 0001:0000abbd       ?DoLogMessage@LogMessage@@QAEXPADH@Z 0040bbbd f   exepacker.obj
 0001:0000ac6a       ?DoPaint@?$CHyperLinkImpl@VCHyperLink@WTL@@VCWindow@ATL@@V?$CWinTraits@$0FGAAAAAA@$0A@@4@@WTL@@QAEXV?$CDCT@$0A@@2@@Z 0040bc6a f i exepacker.obj
 0001:0000aef0       ?EndOfVar@CRegParser@ATL@@IAEHXZ 0040bef0 f i exepacker.obj
 0001:0000af0a       ?EscapeSingleQuote@CAtlModule@ATL@@SGXPA_WIPB_W@Z 0040bf0a f i exepacker.obj
 0001:0000af5a       ?Find@?$CSimpleArray@PAVCIdleHandler@WTL@@V?$CSimpleArrayEqualHelper@PAVCIdleHandler@WTL@@@ATL@@@ATL@@QBEHABQAVCIdleHandler@WTL@@@Z 0040bf5a f i exepacker.obj
 0001:0000af82       ?Find@?$CSimpleArray@PAVCMessageFilter@WTL@@V?$CSimpleArrayEqualHelper@PAVCMessageFilter@WTL@@@ATL@@@ATL@@QBEHABQAVCMessageFilter@WTL@@@Z 0040bf82 f i exepacker.obj
 0001:0000afaa       ?FindKey@?$CSimpleMap@KPAVCMessageLoop@WTL@@V?$CSimpleMapEqualHelper@KPAVCMessageLoop@WTL@@@ATL@@@ATL@@QBEHABK@Z 0040bfaa f i exepacker.obj
 0001:0000afd2       ?FindKey@?$CSimpleMap@PADPA_WVCExpansionVectorEqualHelper@ATL@@@ATL@@QBEHABQAD@Z 0040bfd2 f i exepacker.obj
 0001:0000b006       ?FreeHeap@?$CTempBuffer@D$0BAA@VCCRTAllocator@ATL@@@ATL@@AAEXXZ 0040c006 f i exepacker.obj
 0001:0000b00f       ?FreeHeap@?$CTempBuffer@D$0EAA@VCCRTAllocator@ATL@@@ATL@@AAEXXZ 0040c00f f i exepacker.obj
 0001:0000b018       ?FreeHeap@?$CTempBuffer@E$0BAA@VCCRTAllocator@ATL@@@ATL@@AAEXXZ 0040c018 f i exepacker.obj
 0001:0000b021       ?GetBuffer@CString@WTL@@QAEPADH@Z 0040c021 f i exepacker.obj
 0001:0000b076       ?GetDialogProc@?$CDialogImplBaseT@VCWindow@ATL@@@ATL@@UAEP6GHPAUHWND__@@IIJ@ZXZ 0040c076 f i exepacker.obj
 0001:0000b07c       ?GetHandle@?$CThreadT@$00@@UBEPAXXZ 0040c07c f i exepacker.obj
 0001:0000b080       ?GetItem@?$CDlgContainerImpl@VCDlgContainerCtrl@@VCWindow@ATL@@V?$CWinTraits@$0FGAAAAAA@$0A@@3@@@QBEPAUHWND__@@H@Z 0040c080 f i exepacker.obj
 0001:0000b09f       ?GetKeyAt@?$CSimpleMap@PADPA_WVCExpansionVectorEqualHelper@ATL@@@ATL@@QBEAAPADH@Z 0040c09f f i exepacker.obj
 0001:0000b0c1       ?GetMessageLoop@CAppModule@WTL@@QBEPAVCMessageLoop@2@K@Z 0040c0c1 f i exepacker.obj
 0001:0000b106       ?GetSingleton@LogMessage@@SGPAV1@XZ 0040c106 f   exepacker.obj
 0001:0000b10c       ?GetValueAt@?$CSimpleMap@KPAVCMessageLoop@WTL@@V?$CSimpleMapEqualHelper@KPAVCMessageLoop@WTL@@@ATL@@@ATL@@QBEAAPAVCMessageLoop@WTL@@H@Z 0040c10c f i exepacker.obj
 0001:0000b12f       ?GetValueAt@?$CSimpleMap@PADPA_WVCExpansionVectorEqualHelper@ATL@@@ATL@@QBEAAPA_WH@Z 0040c12f f i exepacker.obj
 0001:0000b152       ?GetWindowProc@?$CWindowImplBaseT@V?$CTabCtrlT@VCWindow@ATL@@@WTL@@V?$CWinTraits@$0FGAAAAAA@$0A@@ATL@@@ATL@@UAEP6GJPAUHWND__@@IIJ@ZXZ 0040c152 f i exepacker.obj
 0001:0000b158       ?GetWindowProc@?$CWindowImplBaseT@VCWindow@ATL@@V?$CWinTraits@$0FGAAAAAA@$0A@@2@@ATL@@UAEP6GJPAUHWND__@@IIJ@ZXZ 0040c158 f i exepacker.obj
 0001:0000b15e       ?HKeyFromString@CRegParser@ATL@@KGPAUHKEY__@@PAD@Z 0040c15e f i exepacker.obj
 0001:0000b18b       ?HasSubKeys@CRegParser@ATL@@IAEHPAUHKEY__@@@Z 0040c18b f i exepacker.obj
 0001:0000b1c0       ?Init@?$CHyperLinkImpl@VCHyperLink@WTL@@VCWindow@ATL@@V?$CWinTraits@$0FGAAAAAA@$0A@@4@@WTL@@QAEXXZ 0040c1c0 f i exepacker.obj
 0001:0000b3ca       ?Init@CAppModule@WTL@@QAEJPAU_ATL_OBJMAP_ENTRY30@ATL@@PAUHINSTANCE__@@PBU_GUID@@@Z 0040c3ca f i exepacker.obj
 0001:0000b425       ?Init@CComModule@ATL@@QAEJPAU_ATL_OBJMAP_ENTRY30@2@PAUHINSTANCE__@@PBU_GUID@@@Z 0040c425 f i exepacker.obj
 0001:0000b482       ?Init@CDynamicStdCallThunk2@ATL@@QAEHKPAX@Z 0040c482 f i exepacker.obj
 0001:0000b4ab       ?Init@CToolInfo@WTL@@QAEXIPAUHWND__@@IPAUtagRECT@@PADJ@Z 0040c4ab f i exepacker.obj
 0001:0000b516       ?InsertItem@?$CDialogTabImpl@VCDialogTabCtrl@@V?$CTabCtrlT@VCWindow@ATL@@@WTL@@V?$CWinTraits@$0FGAAAAAA@$0A@@ATL@@@@QAEHHPAUtagTCITEMA@@PAUHWND__@@@Z 0040c516 f i exepacker.obj
 0001:0000b59c       ?InternalSetAtIndex@?$CSimpleArray@GV?$CSimpleArrayEqualHelper@G@ATL@@@ATL@@QAEXHABG@Z 0040c59c f i exepacker.obj
 0001:0000b5b6       ?InternalSetAtIndex@?$CSimpleArray@U_AtlUpdateUIElement@CUpdateUIBase@WTL@@V?$CSimpleArrayEqualHelper@U_AtlUpdateUIElement@CUpdateUIBase@WTL@@@ATL@@@ATL@@QAEXHABU_AtlUpdateUIElement@CUpdateUIBase@WTL@@@Z 0040c5b6 f i exepacker.obj
 0001:0000b5d4       ?InternalSetAtIndex@?$CSimpleMap@KPAVCMessageLoop@WTL@@V?$CSimpleMapEqualHelper@KPAVCMessageLoop@WTL@@@ATL@@@ATL@@QAEXHABKABQAVCMessageLoop@WTL@@@Z 0040c5d4 f i exepacker.obj
 0001:0000b5fd       ?InternalSetAtIndex@?$CSimpleMap@PADPA_WVCExpansionVectorEqualHelper@ATL@@@ATL@@QAEXHABQADABQA_W@Z 0040c5fd f i exepacker.obj
 0001:0000b626       ?IsSpace@CRegParser@ATL@@IAEHD@Z 0040c626 f i exepacker.obj
 0001:0000b644       ?IsVista@RunTimeHelper@WTL@@YG_NXZ 0040c644 f i exepacker.obj
 0001:0000b690       ?LoadStringA@CString@WTL@@QAEHI@Z 0040c690 f i exepacker.obj
 0001:0000b738       ?Lookup@?$CSimpleMap@KPAVCMessageLoop@WTL@@V?$CSimpleMapEqualHelper@KPAVCMessageLoop@WTL@@@ATL@@@ATL@@QBEPAVCMessageLoop@WTL@@ABK@Z 0040c738 f i exepacker.obj
 0001:0000b75b       ?Lookup@?$CSimpleMap@PADPA_WVCExpansionVectorEqualHelper@ATL@@@ATL@@QBEPA_WABQAD@Z 0040c75b f i exepacker.obj
 0001:0000b77e       ?ModifyStyle@CWindow@ATL@@QAEHKKI@Z 0040c77e f i exepacker.obj
 0001:0000b7cc       ?ModifyStyleEx@CWindow@ATL@@QAEHKKI@Z 0040c7cc f i exepacker.obj
 0001:0000b81a       ?Navigate@?$CHyperLinkImpl@VCHyperLink@WTL@@VCWindow@ATL@@V?$CWinTraits@$0FGAAAAAA@$0A@@4@@WTL@@QAE_NXZ 0040c81a f i exepacker.obj
 0001:0000b8cd       ?NextToken@CRegParser@ATL@@IAEJPAD@Z 0040c8cd f i exepacker.obj
 0001:0000b9d8       ?OnDestroy@?$CHyperLinkImpl@VCHyperLink@WTL@@VCWindow@ATL@@V?$CWinTraits@$0FGAAAAAA@$0A@@4@@WTL@@QAEJIIJAAH@Z 0040c9d8 f i exepacker.obj
 0001:0000ba32       ?OnDestroy@CMainDlg@@QAEJIIJAAH@Z 0040ca32 f i exepacker.obj
 0001:0000ba76       ?OnDropFiles@?$CDropFileTarget@VCPackDlg@@@@AAEJIIJAAH@Z 0040ca76 f i exepacker.obj
 0001:0000bad9       ?OnEraseBkgnd@?$CDialogTabImpl@VCDialogTabCtrl@@V?$CTabCtrlT@VCWindow@ATL@@@WTL@@V?$CWinTraits@$0FGAAAAAA@$0A@@ATL@@@@QAEJIIJAAH@Z 0040cad9 f i exepacker.obj
 0001:0000bb6c       ?OnFinalMessage@?$CDialogImplBaseT@VCWindow@ATL@@@ATL@@UAEXPAUHWND__@@@Z 0040cb6c f i exepacker.obj
 0001:0000bb6f       ?OnFinalMessage@?$CWindowImplBaseT@V?$CTabCtrlT@VCWindow@ATL@@@WTL@@V?$CWinTraits@$0FGAAAAAA@$0A@@ATL@@@ATL@@UAEXPAUHWND__@@@Z 0040cb6f f i exepacker.obj
 0001:0000bb72       ?OnFinalMessage@?$CWindowImplBaseT@VCWindow@ATL@@V?$CWinTraits@$0FGAAAAAA@$0A@@2@@ATL@@UAEXPAUHWND__@@@Z 0040cb72 f i exepacker.obj
 0001:0000bb75       ?OnFocus@?$CHyperLinkImpl@VCHyperLink@WTL@@VCWindow@ATL@@V?$CWinTraits@$0FGAAAAAA@$0A@@4@@WTL@@QAEJIIJAAH@Z 0040cb75 f i exepacker.obj
 0001:0000bb96       ?OnIdle@CMainDlg@@UAEHXZ   0040cb96 f i exepacker.obj
 0001:0000bb99       ?OnIdle@CMessageLoop@WTL@@UAEHH@Z 0040cb99 f i exepacker.obj
 0001:0000bbc6       ?OnInitDialog@CMainDlg@@QAEJIIJAAH@Z 0040cbc6 f i exepacker.obj
 0001:0000bd5f       ?OnInitDialogView1@CAboutDlg@@QAEJIIJAAH@Z 0040cd5f f i exepacker.obj
 0001:0000bf07       ?OnInitDialogView1@CPackDlg@@QAEJIIJAAH@Z 0040cf07 f i exepacker.obj
 0001:0000bf4d       ?OnLButtonDown@?$CHyperLinkImpl@VCHyperLink@WTL@@VCWindow@ATL@@V?$CWinTraits@$0FGAAAAAA@$0A@@4@@WTL@@QAEJIIJAAH@Z 0040cf4d f i exepacker.obj
 0001:0000bf83       ?OnLButtonUp@?$CHyperLinkImpl@VCHyperLink@WTL@@VCWindow@ATL@@V?$CWinTraits@$0FGAAAAAA@$0A@@4@@WTL@@QAEJIIJAAH@Z 0040cf83 f i exepacker.obj
 0001:0000bfbf       ?OnMouseLeave@?$CHyperLinkImpl@VCHyperLink@WTL@@VCWindow@ATL@@V?$CWinTraits@$0FGAAAAAA@$0A@@4@@WTL@@QAEJIIJAAH@Z 0040cfbf f i exepacker.obj
 0001:0000bff5       ?OnMouseMessage@?$CHyperLinkImpl@VCHyperLink@WTL@@VCWindow@ATL@@V?$CWinTraits@$0FGAAAAAA@$0A@@4@@WTL@@QAEJIIJAAH@Z 0040cff5 f i exepacker.obj
 0001:0000c05b       ?OnMouseMove@?$CHyperLinkImpl@VCHyperLink@WTL@@VCWindow@ATL@@V?$CWinTraits@$0FGAAAAAA@$0A@@4@@WTL@@QAEJIIJAAH@Z 0040d05b f i exepacker.obj
 0001:0000c10a       ?OnPaint@?$CHyperLinkImpl@VCHyperLink@WTL@@VCWindow@ATL@@V?$CWinTraits@$0FGAAAAAA@$0A@@4@@WTL@@QAEJIIJAAH@Z 0040d10a f i exepacker.obj
 0001:0000c18c       ?OnSetCursor@?$CHyperLinkImpl@VCHyperLink@WTL@@VCWindow@ATL@@V?$CWinTraits@$0FGAAAAAA@$0A@@4@@WTL@@QAEJIIJAAH@Z 0040d18c f i exepacker.obj
 0001:0000c1e9       ?OnSetFocus@?$CDlgContainerImpl@VCDlgContainerCtrl@@VCWindow@ATL@@V?$CWinTraits@$0FGAAAAAA@$0A@@3@@@QAEJIIJAAH@Z 0040d1e9 f i exepacker.obj
 0001:0000c20c       ?OnSetFont@?$CHyperLinkImpl@VCHyperLink@WTL@@VCWindow@ATL@@V?$CWinTraits@$0FGAAAAAA@$0A@@4@@WTL@@QAEJIIJAAH@Z 0040d20c f i exepacker.obj
 0001:0000c26e       ?OnSize@?$CDialogTabImpl@VCDialogTabCtrl@@V?$CTabCtrlT@VCWindow@ATL@@@WTL@@V?$CWinTraits@$0FGAAAAAA@$0A@@ATL@@@@QAEJIIJAAH@Z 0040d26e f i exepacker.obj
 0001:0000c2c6       ?OnSize@?$CDlgContainerImpl@VCDlgContainerCtrl@@VCWindow@ATL@@V?$CWinTraits@$0FGAAAAAA@$0A@@3@@@QAEJIIJAAH@Z 0040d2c6 f i exepacker.obj
 0001:0000c30a       ?OnTabSelect@?$CDialogTabImpl@VCDialogTabCtrl@@V?$CTabCtrlT@VCWindow@ATL@@@WTL@@V?$CWinTraits@$0FGAAAAAA@$0A@@ATL@@@@QAEJHPAUtagNMHDR@@AAH@Z 0040d30a f i exepacker.obj
 0001:0000c335       ?OnTimer@CPackDlg@@QAEJIIJAAH@Z 0040d335 f i exepacker.obj
 0001:0000c397       ?Open@CRegKey@ATL@@QAEJPAUHKEY__@@PBDK@Z 0040d397 f i exepacker.obj
 0001:0000c3ec       ?PreProcessBuffer@CRegParser@ATL@@QAEJPADPAPAD@Z 0040d3ec f i exepacker.obj
 0001:0000c649       ?PreTranslateMessage@CMainDlg@@UAEHPAUtagMSG@@@Z 0040d649 f i exepacker.obj
 0001:0000c659       ?PreTranslateMessage@CMessageLoop@WTL@@UAEHPAUtagMSG@@@Z 0040d659 f i exepacker.obj
 0001:0000c691       ?ProcessFile@CPackDlg@@QAEXPBD@Z 0040d691 f i exepacker.obj
 0001:0000c719       ?ProcessWindowMessage@?$CDialogTabImpl@VCDialogTabCtrl@@V?$CTabCtrlT@VCWindow@ATL@@@WTL@@V?$CWinTraits@$0FGAAAAAA@$0A@@ATL@@@@UAEHPAUHWND__@@IIJAAJK@Z 0040d719 f i exepacker.obj
 0001:0000c7df       ?ProcessWindowMessage@?$CDlgContainerImpl@VCDlgContainerCtrl@@VCWindow@ATL@@V?$CWinTraits@$0FGAAAAAA@$0A@@3@@@UAEHPAUHWND__@@IIJAAJK@Z 0040d7df f i exepacker.obj
 0001:0000c898       ?ProcessWindowMessage@?$CDropFileTarget@VCPackDlg@@@@QAEHPAUHWND__@@IIJAAJK@Z 0040d898 f i exepacker.obj
 0001:0000c8cb       ?ProcessWindowMessage@?$CHyperLinkImpl@VCHyperLink@WTL@@VCWindow@ATL@@V?$CWinTraits@$0FGAAAAAA@$0A@@4@@WTL@@UAEHPAUHWND__@@IIJAAJK@Z 0040d8cb f i exepacker.obj
 0001:0000cb0f       ?ProcessWindowMessage@CAboutDlg@@UAEHPAUHWND__@@IIJAAJK@Z 0040db0f f i exepacker.obj
 0001:0000cb42       ?ProcessWindowMessage@CMainDlg@@UAEHPAUHWND__@@IIJAAJK@Z 0040db42 f i exepacker.obj
 0001:0000cc05       ?ProcessWindowMessage@CPackDlg@@UAEHPAUHWND__@@IIJAAJK@Z 0040dc05 f i exepacker.obj
 0001:0000cca7       ?QueryStringValue@CRegKey@ATL@@QAEJPBDPADPAK@Z 0040dca7 f i exepacker.obj
 0001:0000cd05       ?RecurseDeleteKey@CRegKey@ATL@@QAEJPBD@Z 0040dd05 f i exepacker.obj
 0001:0000cda4       ?RedirectIOToConsole@@YGXXZ 0040dda4 f   exepacker.obj
 0001:0000ce1b       ?ReflectNotifications@?$CWindowImplRoot@VCWindow@ATL@@@ATL@@QAEJIIJAAH@Z 0040de1b f i exepacker.obj
 0001:0000cf04       ?RegCreateKeyExA@CAtlTransactionManager@ATL@@QAEJPAUHKEY__@@PBDKPADKKQAU_SECURITY_ATTRIBUTES@@PAPAU3@PAK@Z 0040df04 f i exepacker.obj
 0001:0000cf67       ?RegDeleteKeyA@CAtlTransactionManager@ATL@@QAEJPAUHKEY__@@PBD@Z 0040df67 f i exepacker.obj
 0001:0000cfb6       ?RegOpenKeyExA@CAtlTransactionManager@ATL@@QAEJPAUHKEY__@@PBDKKPAPAU3@@Z 0040dfb6 f i exepacker.obj
 0001:0000d00d       ?RegisterBuffer@CRegParser@ATL@@QAEJPADH@Z 0040e00d f i exepacker.obj
 0001:0000d114       ?RegisterFromResource@CRegObject@ATL@@IAEJPB_WPBD1H@Z 0040e114 f i exepacker.obj
 0001:0000d2cc       ?RegisterSubkeys@CRegParser@ATL@@IAEJPADPAUHKEY__@@HH@Z 0040e2cc f i exepacker.obj
 0001:0000d7dd       ?Release@CString@WTL@@IAEXXZ 0040e7dd f i exepacker.obj
 0001:0000d810       ?Release@CString@WTL@@KGXPAUCStringData@2@@Z 0040e810 f i exepacker.obj
 0001:0000d833       ?ReleaseBuffer@CString@WTL@@QAEXH@Z 0040e833 f i exepacker.obj
 0001:0000d85b       ?RemoveAll@?$CSimpleArray@PAUHWND__@@V?$CSimpleArrayEqualHelper@PAUHWND__@@@ATL@@@ATL@@QAEXXZ 0040e85b f i exepacker.obj
 0001:0000d878       ?RemoveAll@?$CSimpleArray@PAVCIdleHandler@WTL@@V?$CSimpleArrayEqualHelper@PAVCIdleHandler@WTL@@@ATL@@@ATL@@QAEXXZ 0040e878 f i exepacker.obj
 0001:0000d895       ?RemoveAll@?$CSimpleArray@PAVCMessageFilter@WTL@@V?$CSimpleArrayEqualHelper@PAVCMessageFilter@WTL@@@ATL@@@ATL@@QAEXXZ 0040e895 f i exepacker.obj
 0001:0000d8b2       ?RemoveAll@?$CSimpleArray@U_AtlUpdateUIElement@CUpdateUIBase@WTL@@V?$CSimpleArrayEqualHelper@U_AtlUpdateUIElement@CUpdateUIBase@WTL@@@ATL@@@ATL@@QAEXXZ 0040e8b2 f i exepacker.obj
 0001:0000d8cf       ?RemoveAll@?$CSimpleMap@KPAVCMessageLoop@WTL@@V?$CSimpleMapEqualHelper@KPAVCMessageLoop@WTL@@@ATL@@@ATL@@QAEXXZ 0040e8cf f i exepacker.obj
 0001:0000d8fb       ?RemoveAll@?$CSimpleMap@PADPA_WVCExpansionVectorEqualHelper@ATL@@@ATL@@QAEXXZ 0040e8fb f i exepacker.obj
 0001:0000d927       ?RemoveAt@?$CSimpleArray@PAVCIdleHandler@WTL@@V?$CSimpleArrayEqualHelper@PAVCIdleHandler@WTL@@@ATL@@@ATL@@QAEHH@Z 0040e927 f i exepacker.obj
 0001:0000d972       ?RemoveAt@?$CSimpleArray@PAVCMessageFilter@WTL@@V?$CSimpleArrayEqualHelper@PAVCMessageFilter@WTL@@@ATL@@@ATL@@QAEHH@Z 0040e972 f i exepacker.obj
 0001:0000d9bd       ?RemoveAt@?$CSimpleMap@KPAVCMessageLoop@WTL@@V?$CSimpleMapEqualHelper@KPAVCMessageLoop@WTL@@@ATL@@@ATL@@QAEHH@Z 0040e9bd f i exepacker.obj
 0001:0000da6b       ?RemoveIdleHandler@CMessageLoop@WTL@@QAEHPAVCIdleHandler@2@@Z 0040ea6b f i exepacker.obj
 0001:0000da90       ?RemoveMessageFilter@CMessageLoop@WTL@@QAEHPAVCMessageFilter@2@@Z 0040ea90 f i exepacker.obj
 0001:0000dab5       ?RemoveMessageLoop@CAppModule@WTL@@QAEHXZ 0040eab5 f i exepacker.obj
 0001:0000db15       ?ResourceRegister@CRegObject@ATL@@QAGJPB_WI0@Z 0040eb15 f i exepacker.obj
 0001:0000dbc3       ?ResourceRegisterSz@CRegObject@ATL@@QAGJPB_W00@Z 0040ebc3 f i exepacker.obj
 0001:0000dcf4       ?ResourceUnregister@CRegObject@ATL@@QAGJPB_WI0@Z 0040ecf4 f i exepacker.obj
 0001:0000dda4       ?ResourceUnregisterSz@CRegObject@ATL@@QAGJPB_W00@Z 0040eda4 f i exepacker.obj
 0001:0000ded8       ?Run@CMessageLoop@WTL@@QAEHXZ 0040eed8 f i exepacker.obj
 0001:0000df75       ?Run@CProcessThread@@QAEKXZ 0040ef75 f i exepacker.obj
 0001:0000df96       ?Run@CProcessThread_Console@@QAEKXZ 0040ef96 f i exepacker.obj
 0001:0000dfb7       ?SetCurSel@?$CDialogTabImpl@VCDialogTabCtrl@@V?$CTabCtrlT@VCWindow@ATL@@@WTL@@V?$CWinTraits@$0FGAAAAAA@$0A@@ATL@@@@QAEHH@Z 0040efb7 f i exepacker.obj
 0001:0000e013       ?SetCurSel@?$CDlgContainerImpl@VCDlgContainerCtrl@@VCWindow@ATL@@V?$CWinTraits@$0FGAAAAAA@$0A@@3@@@QAEHH@Z 0040f013 f i exepacker.obj
 0001:0000e132       ?SetDWORDValue@CRegKey@ATL@@QAEJPBDK@Z 0040f132 f i exepacker.obj
 0001:0000e14c       ?SetHyperLink@?$CHyperLinkImpl@VCHyperLink@WTL@@VCWindow@ATL@@V?$CWinTraits@$0FGAAAAAA@$0A@@4@@WTL@@QAE_NPBD@Z 0040f14c f i exepacker.obj
 0001:0000e1d8       ?SetImageList@?$CTabCtrlT@VCWindow@ATL@@@WTL@@QAE?AV?$CImageListT@$0A@@2@PAU_IMAGELIST@@@Z 0040f1d8 f i exepacker.obj
 0001:0000e1f6       ?SetMultiStringValue@CRegKey@ATL@@QAEJPBD0@Z 0040f1f6 f i exepacker.obj
 0001:0000e240       ?SizeOf_TOOLINFO@RunTimeHelper@WTL@@YGHXZ 0040f240 f i exepacker.obj
 0001:0000e255       ?SkipAssignment@CRegParser@ATL@@IAEJPAD@Z 0040f255 f i exepacker.obj
 0001:0000e2a5       ?SkipWhiteSpace@CRegParser@ATL@@IAEXXZ 0040f2a5 f i exepacker.obj
 0001:0000e2c7       ?StartDialogProc@?$CDialogImplBaseT@VCWindow@ATL@@@ATL@@SGHPAUHWND__@@IIJ@Z 0040f2c7 f i exepacker.obj
 0001:0000e31b       ?StartTrackMouseLeave@?$CHyperLinkImpl@VCHyperLink@WTL@@VCWindow@ATL@@V?$CWinTraits@$0FGAAAAAA@$0A@@4@@WTL@@QAEHXZ 0040f31b f i exepacker.obj
 0001:0000e345       ?StartWindowProc@?$CWindowImplBaseT@VCWindow@ATL@@V?$CWinTraits@$0FGAAAAAA@$0A@@2@@ATL@@SGJPAUHWND__@@IIJ@Z 0040f345 f i exepacker.obj
 0001:0000e399       ?StrChrA@CRegParser@ATL@@KGPADPADD@Z 0040f399 f i exepacker.obj
 0001:0000e3cb       ?StrFromMap@CRegObject@ATL@@QAEPB_WPAD@Z 0040f3cb f i exepacker.obj
 0001:0000e3f6       ?SubclassWindow@?$CDialogTabImpl@VCDialogTabCtrl@@V?$CTabCtrlT@VCWindow@ATL@@@WTL@@V?$CWinTraits@$0FGAAAAAA@$0A@@ATL@@@@QAEHPAUHWND__@@@Z 0040f3f6 f i exepacker.obj
 0001:0000e417       ?SubclassWindow@?$CHyperLinkImpl@VCHyperLink@WTL@@VCWindow@ATL@@V?$CWinTraits@$0FGAAAAAA@$0A@@4@@WTL@@QAEHPAUHWND__@@@Z 0040f417 f i exepacker.obj
 0001:0000e452       ?SubclassWindow@?$CWindowImplBaseT@V?$CTabCtrlT@VCWindow@ATL@@@WTL@@V?$CWinTraits@$0FGAAAAAA@$0A@@ATL@@@ATL@@QAEHPAUHWND__@@@Z 0040f452 f i exepacker.obj
 0001:0000e495       ?SubclassWindow@?$CWindowImplBaseT@VCWindow@ATL@@V?$CWinTraits@$0FGAAAAAA@$0A@@2@@ATL@@QAEHPAUHWND__@@@Z 0040f495 f i exepacker.obj
 0001:0000e4d8       ?Term@CAppModule@WTL@@QAEXXZ 0040f4d8 f i exepacker.obj
 0001:0000e502       ?Term@CAtlModule@ATL@@QAEXXZ 0040f502 f i exepacker.obj
 0001:0000e53b       ?Term@CComModule@ATL@@QAEXXZ 0040f53b f i exepacker.obj
 0001:0000e593       ?TermSettingChangeNotify@CAppModule@WTL@@QAEXXZ 0040f593 f i exepacker.obj
 0001:0000e602       ?UIAddChildWindowContainer@CUpdateUIBase@WTL@@QAEHPAUHWND__@@@Z 0040f602 f i exepacker.obj
 0001:0000e625       ?UpdateRegistryFromResource@CAtlModule@ATL@@QAGJIHPAU_ATL_REGMAP_ENTRY@2@@Z 0040f625 f i exepacker.obj
 0001:0000e848       ?UpdateRegistryFromResource@CAtlModule@ATL@@QAGJPBDHPAU_ATL_REGMAP_ENTRY@2@@Z 0040f848 f i exepacker.obj
 0001:0000ead5       ?VTFromRegType@CRegParser@ATL@@KGHPBDAAG@Z 0040fad5 f i exepacker.obj
 0001:0000eb44       ?WindowProc@?$CWindowImplBaseT@V?$CTabCtrlT@VCWindow@ATL@@@WTL@@V?$CWinTraits@$0FGAAAAAA@$0A@@ATL@@@ATL@@SGJPAUHWND__@@IIJ@Z 0040fb44 f i exepacker.obj
 0001:0000ec36       ?WindowProc@?$CWindowImplBaseT@VCWindow@ATL@@V?$CWinTraits@$0FGAAAAAA@$0A@@2@@ATL@@SGJPAUHWND__@@IIJ@Z 0040fc36 f i exepacker.obj
 0001:0000ed28       ?_AtlVerifyStackAvailable@_ATL_SAFE_ALLOCA_IMPL@ATL@@YG_NK@Z 0040fd28 f i exepacker.obj
 0001:0000eda1       ?_Init@?$CDialogTabImpl@VCDialogTabCtrl@@V?$CTabCtrlT@VCWindow@ATL@@@WTL@@V?$CWinTraits@$0FGAAAAAA@$0A@@ATL@@@@QAEXXZ 0040fda1 f i exepacker.obj
 0001:0000eddb       ?_Init@?$CDlgContainerImpl@VCDlgContainerCtrl@@VCWindow@ATL@@V?$CWinTraits@$0FGAAAAAA@$0A@@3@@@QAEXXZ 0040fddb f i exepacker.obj
 0001:0000ee26       ?_LoadString@CString@WTL@@KGHIPADI@Z 0040fe26 f i exepacker.obj
 0001:0000ee4a       ?_ParseColorString@?$CHyperLinkImpl@VCHyperLink@WTL@@VCWindow@ATL@@V?$CWinTraits@$0FGAAAAAA@$0A@@4@@WTL@@SGKPAD@Z 0040fe4a f i exepacker.obj
 0001:0000eecf       ?ansi_to_unicode@@YGPA_WPBD@Z 0040fecf f   exepacker.obj
 0001:0000ef29       ?clear@LogMessage@@QAEXXZ  0040ff29 f   exepacker.obj
 0001:0000ef40       ?init@LogMessage@@QAEXPAUHWND__@@@Z 0040ff40 f   exepacker.obj
 0001:0000f067       ?memcpy_s@Checked@ATL@@YAXPAXIPBXI@Z 00410067 f i exepacker.obj
 0001:0000f086       ?memmove_s@Checked@ATL@@YAXPAXIPBXI@Z 00410086 f i exepacker.obj
 0001:0000f0d6       ?ocscpy_s@@YG_NPA_WIPB_W@Z 004100d6 f i exepacker.obj
 0001:0000f107       ?ocslen@@YGHPB_W@Z         00410107 f i exepacker.obj
 0001:0000f124       ?strcpy_s@Checked@ATL@@YAXPADIPBD@Z 00410124 f i exepacker.obj
 0001:0000f13f       _WinMain@16                0041013f f   exepacker.obj
 0001:0000f379       __vfprintf_l               00410379 f i exepacker.obj
 0001:0000f39c       _fprintf                   0041039c f i exepacker.obj
 0001:0000f433       _printf                    00410433 f i exepacker.obj
 0001:0000f450       _sprintf_s                 00410450 f i exepacker.obj
 0001:0000f46c       ??$?0$$CBV?$basic_string@DU?$char_traits@D@std@@V?$allocator@D@2@@std@@$$CBUJmpLabel@Xbyak@@$0A@@?$pair@$$CBV?$basic_string@DU?$char_traits@D@std@@V?$allocator@D@2@@std@@$$CBUJmpLabel@Xbyak@@@std@@QAE@ABV?$basic_string@DU?$char_traits@D@std@@V?$allocator@D@2@@1@ABUJmpLabel@Xbyak@@@Z 0041046c f i pack_stubs.obj
 0001:0000f495       ??$_Buy_if_not_node@U?$pair@$$CBH$$CBUJmpLabel@Xbyak@@@std@@@?$_Hash@V?$_Umap_traits@H$$CBUJmpLabel@Xbyak@@V?$_Uhash_compare@HU?$hash@H@std@@U?$equal_to@H@2@@std@@V?$allocator@U?$pair@$$CBH$$CBUJmpLabel@Xbyak@@@std@@@4@$00@std@@@std@@IAE?AV?$_List_unchecked_iterator@V?$_List_val@U?$_List_simple_types@U?$pair@$$CBH$$CBUJmpLabel@Xbyak@@@std@@@std@@@std@@@1@$$QAU?$pair@$$CBH$$CBUJmpLabel@Xbyak@@@1@U_Not_a_node_tag@1@@Z 00410495 f i pack_stubs.obj
 0001:0000f4b6       ??$_Buy_if_not_node@U?$pair@$$CBV?$basic_string@DU?$char_traits@D@std@@V?$allocator@D@2@@std@@$$CBUJmpLabel@Xbyak@@@std@@@?$_Hash@V?$_Umap_traits@V?$basic_string@DU?$char_traits@D@std@@V?$allocator@D@2@@std@@$$CBUJmpLabel@Xbyak@@V?$_Uhash_compare@V?$basic_string@DU?$char_traits@D@std@@V?$allocator@D@2@@std@@U?$hash@V?$basic_string@DU?$char_traits@D@std@@V?$allocator@D@2@@std@@@2@U?$equal_to@V?$basic_string@DU?$char_traits@D@std@@V?$allocator@D@2@@std@@@2@@2@V?$allocator@U?$pair@$$CBV?$basic_string@DU?$char_traits@D@std@@V?$allocator@D@2@@std@@$$CBUJmpLabel@Xbyak@@@std@@@2@$00@std@@@std@@IAE?AV?$_List_unchecked_iterator@V?$_List_val@U?$_List_simple_types@U?$pair@$$CBV?$basic_string@DU?$char_traits@D@std@@V?$allocator@D@2@@std@@$$CBUJmpLabel@Xbyak@@@std@@@std@@@std@@@1@$$QAU?$pair@$$CBV?$basic_string@DU?$char_traits@D@std@@V?$allocator@D@2@@std@@$$CBUJmpLabel@Xbyak@@@1@U_Not_a_node_tag@1@@Z 004104b6 f i pack_stubs.obj
 0001:0000f4d7       ??$_Buynode@AAU?$pair@$$CBV?$basic_string@DU?$char_traits@D@std@@V?$allocator@D@2@@std@@USlabelVal@LabelManager@Xbyak@@@std@@@?$_List_buy@U?$pair@$$CBV?$basic_string@DU?$char_traits@D@std@@V?$allocator@D@2@@std@@USlabelVal@LabelManager@Xbyak@@@std@@V?$allocator@U?$pair@$$CBV?$basic_string@DU?$char_traits@D@std@@V?$allocator@D@2@@std@@USlabelVal@LabelManager@Xbyak@@@std@@@2@@std@@QAEPAU?$_List_node@U?$pair@$$CBV?$basic_string@DU?$char_traits@D@std@@V?$allocator@D@2@@std@@USlabelVal@LabelManager@Xbyak@@@std@@PAX@1@PAU21@0AAU?$pair@$$CBV?$basic_string@DU?$char_traits@D@std@@V?$allocator@D@2@@std@@USlabelVal@LabelManager@Xbyak@@@1@@Z 004104d7 f i pack_stubs.obj
 0001:0000f539       ??$_Buynode@U?$pair@$$CBH$$CBUJmpLabel@Xbyak@@@std@@@?$_List_buy@U?$pair@$$CBH$$CBUJmpLabel@Xbyak@@@std@@V?$allocator@U?$pair@$$CBH$$CBUJmpLabel@Xbyak@@@std@@@2@@std@@QAEPAU?$_List_node@U?$pair@$$CBH$$CBUJmpLabel@Xbyak@@@std@@PAX@1@PAU21@0$$QAU?$pair@$$CBH$$CBUJmpLabel@Xbyak@@@1@@Z 00410539 f i pack_stubs.obj
 0001:0000f597       ??$_Buynode@U?$pair@$$CBV?$basic_string@DU?$char_traits@D@std@@V?$allocator@D@2@@std@@$$CBUJmpLabel@Xbyak@@@std@@@?$_List_buy@U?$pair@$$CBV?$basic_string@DU?$char_traits@D@std@@V?$allocator@D@2@@std@@$$CBUJmpLabel@Xbyak@@@std@@V?$allocator@U?$pair@$$CBV?$basic_string@DU?$char_traits@D@std@@V?$allocator@D@2@@std@@$$CBUJmpLabel@Xbyak@@@std@@@2@@std@@QAEPAU?$_List_node@U?$pair@$$CBV?$basic_string@DU?$char_traits@D@std@@V?$allocator@D@2@@std@@$$CBUJmpLabel@Xbyak@@@std@@PAX@1@PAU21@0$$QAU?$pair@$$CBV?$basic_string@DU?$char_traits@D@std@@V?$allocator@D@2@@std@@$$CBUJmpLabel@Xbyak@@@1@@Z 00410597 f i pack_stubs.obj
 0001:0000f5f9       ??$_Buynode@UAddrInfo@CodeArray@Xbyak@@@?$_List_buy@UAddrInfo@CodeArray@Xbyak@@V?$allocator@UAddrInfo@CodeArray@Xbyak@@@std@@@std@@QAEPAU?$_List_node@UAddrInfo@CodeArray@Xbyak@@PAX@1@PAU21@0$$QAUAddrInfo@CodeArray@Xbyak@@@Z 004105f9 f i pack_stubs.obj
 0001:0000f656       ??$_Buynode@USlabelState@LabelManager@Xbyak@@@?$_List_buy@USlabelState@LabelManager@Xbyak@@V?$allocator@USlabelState@LabelManager@Xbyak@@@std@@@std@@QAEPAU?$_List_node@USlabelState@LabelManager@Xbyak@@PAX@1@PAU21@0$$QAUSlabelState@LabelManager@Xbyak@@@Z 00410656 f i pack_stubs.obj
 0001:0000f6b8       ??$_Fill_unchecked1@PAV?$_List_unchecked_iterator@V?$_List_val@U?$_List_simple_types@U?$pair@$$CBH$$CBUJmpLabel@Xbyak@@@std@@@std@@@std@@@std@@V12@@std@@YGXPAV?$_List_unchecked_iterator@V?$_List_val@U?$_List_simple_types@U?$pair@$$CBH$$CBUJmpLabel@Xbyak@@@std@@@std@@@std@@@0@0ABV10@U?$integral_constant@_N$0A@@0@@Z 004106b8 f i pack_stubs.obj
 0001:0000f727       ??$_Fill_unchecked1@PAV?$_List_unchecked_iterator@V?$_List_val@U?$_List_simple_types@U?$pair@$$CBHUClabelVal@LabelManager@Xbyak@@@std@@@std@@@std@@@std@@V12@@std@@YGXPAV?$_List_unchecked_iterator@V?$_List_val@U?$_List_simple_types@U?$pair@$$CBHUClabelVal@LabelManager@Xbyak@@@std@@@std@@@std@@@0@0ABV10@U?$integral_constant@_N$0A@@0@@Z 00410727 f i pack_stubs.obj
 0001:0000f796       ??$_Fill_unchecked1@PAV?$_List_unchecked_iterator@V?$_List_val@U?$_List_simple_types@U?$pair@$$CBV?$basic_string@DU?$char_traits@D@std@@V?$allocator@D@2@@std@@$$CBUJmpLabel@Xbyak@@@std@@@std@@@std@@@std@@V12@@std@@YGXPAV?$_List_unchecked_iterator@V?$_List_val@U?$_List_simple_types@U?$pair@$$CBV?$basic_string@DU?$char_traits@D@std@@V?$allocator@D@2@@std@@$$CBUJmpLabel@Xbyak@@@std@@@std@@@std@@@0@0ABV10@U?$integral_constant@_N$0A@@0@@Z 00410796 f i pack_stubs.obj
 0001:0000f805       ??$_Fill_unchecked1@PAV?$_List_unchecked_iterator@V?$_List_val@U?$_List_simple_types@U?$pair@$$CBV?$basic_string@DU?$char_traits@D@std@@V?$allocator@D@2@@std@@USlabelVal@LabelManager@Xbyak@@@std@@@std@@@std@@@std@@V12@@std@@YGXPAV?$_List_unchecked_iterator@V?$_List_val@U?$_List_simple_types@U?$pair@$$CBV?$basic_string@DU?$char_traits@D@std@@V?$allocator@D@2@@std@@USlabelVal@LabelManager@Xbyak@@@std@@@std@@@std@@@0@0ABV10@U?$integral_constant@_N$0A@@0@@Z 00410805 f i pack_stubs.obj
 0001:0000f874       ??$_Insert@AAU?$pair@$$CBH$$CBUJmpLabel@Xbyak@@@std@@V?$_List_unchecked_iterator@V?$_List_val@U?$_List_simple_types@U?$pair@$$CBH$$CBUJmpLabel@Xbyak@@@std@@@std@@@std@@@2@@?$_Hash@V?$_Umap_traits@H$$CBUJmpLabel@Xbyak@@V?$_Uhash_compare@HU?$hash@H@std@@U?$equal_to@H@2@@std@@V?$allocator@U?$pair@$$CBH$$CBUJmpLabel@Xbyak@@@std@@@4@$00@std@@@std@@IAE?AU?$pair@V?$_List_iterator@V?$_List_val@U?$_List_simple_types@U?$pair@$$CBH$$CBUJmpLabel@Xbyak@@@std@@@std@@@std@@@std@@_N@1@AAU?$pair@$$CBH$$CBUJmpLabel@Xbyak@@@1@V?$_List_unchecked_iterator@V?$_List_val@U?$_List_simple_types@U?$pair@$$CBH$$CBUJmpLabel@Xbyak@@@std@@@std@@@std@@@1@@Z 00410874 f i pack_stubs.obj
 0001:0000f95e       ??$_Insert@AAU?$pair@$$CBV?$basic_string@DU?$char_traits@D@std@@V?$allocator@D@2@@std@@$$CBUJmpLabel@Xbyak@@@std@@V?$_List_unchecked_iterator@V?$_List_val@U?$_List_simple_types@U?$pair@$$CBV?$basic_string@DU?$char_traits@D@std@@V?$allocator@D@2@@std@@$$CBUJmpLabel@Xbyak@@@std@@@std@@@std@@@2@@?$_Hash@V?$_Umap_traits@V?$basic_string@DU?$char_traits@D@std@@V?$allocator@D@2@@std@@$$CBUJmpLabel@Xbyak@@V?$_Uhash_compare@V?$basic_string@DU?$char_traits@D@std@@V?$allocator@D@2@@std@@U?$hash@V?$basic_string@DU?$char_traits@D@std@@V?$allocator@D@2@@std@@@2@U?$equal_to@V?$basic_string@DU?$char_traits@D@std@@V?$allocator@D@2@@std@@@2@@2@V?$allocator@U?$pair@$$CBV?$basic_string@DU?$char_traits@D@std@@V?$allocator@D@2@@std@@$$CBUJmpLabel@Xbyak@@@std@@@2@$00@std@@@std@@IAE?AU?$pair@V?$_List_iterator@V?$_List_val@U?$_List_simple_types@U?$pair@$$CBV?$basic_string@DU?$char_traits@D@std@@V?$allocator@D@2@@std@@$$CBUJmpLabel@Xbyak@@@std@@@std@@@std@@@std@@_N@1@AAU?$pair@$$CBV?$basic_string@DU?$char_traits@D@std@@V?$allocator@D@2@@std@@$$CBUJmpLabel@Xbyak@@@1@V?$_List_unchecked_iterator@V?$_List_val@U?$_List_simple_types@U?$pair@$$CBV?$basic_string@DU?$char_traits@D@std@@V?$allocator@D@2@@std@@$$CBUJmpLabel@Xbyak@@@std@@@std@@@std@@@1@@Z 0041095e f i pack_stubs.obj
 0001:0000fa47       ??$_Insert@AAU?$pair@$$CBV?$basic_string@DU?$char_traits@D@std@@V?$allocator@D@2@@std@@USlabelVal@LabelManager@Xbyak@@@std@@@?$list@U?$pair@$$CBV?$basic_string@DU?$char_traits@D@std@@V?$allocator@D@2@@std@@USlabelVal@LabelManager@Xbyak@@@std@@V?$allocator@U?$pair@$$CBV?$basic_string@DU?$char_traits@D@std@@V?$allocator@D@2@@std@@USlabelVal@LabelManager@Xbyak@@@std@@@2@@std@@QAEXV?$_List_unchecked_const_iterator@V?$_List_val@U?$_List_simple_types@U?$pair@$$CBV?$basic_string@DU?$char_traits@D@std@@V?$allocator@D@2@@std@@USlabelVal@LabelManager@Xbyak@@@std@@@std@@@std@@U_Iterator_base0@2@@1@AAU?$pair@$$CBV?$basic_string@DU?$char_traits@D@std@@V?$allocator@D@2@@std@@USlabelVal@LabelManager@Xbyak@@@1@@Z 00410a47 f i pack_stubs.obj
 0001:0000fa76       ??$_Insert@AAU?$pair@$$CBV?$basic_string@DU?$char_traits@D@std@@V?$allocator@D@2@@std@@USlabelVal@LabelManager@Xbyak@@@std@@V?$_List_unchecked_iterator@V?$_List_val@U?$_List_simple_types@U?$pair@$$CBV?$basic_string@DU?$char_traits@D@std@@V?$allocator@D@2@@std@@USlabelVal@LabelManager@Xbyak@@@std@@@std@@@std@@@2@@?$_Hash@V?$_Umap_traits@V?$basic_string@DU?$char_traits@D@std@@V?$allocator@D@2@@std@@USlabelVal@LabelManager@Xbyak@@V?$_Uhash_compare@V?$basic_string@DU?$char_traits@D@std@@V?$allocator@D@2@@std@@U?$hash@V?$basic_string@DU?$char_traits@D@std@@V?$allocator@D@2@@std@@@2@U?$equal_to@V?$basic_string@DU?$char_traits@D@std@@V?$allocator@D@2@@std@@@2@@2@V?$allocator@U?$pair@$$CBV?$basic_string@DU?$char_traits@D@std@@V?$allocator@D@2@@std@@USlabelVal@LabelManager@Xbyak@@@std@@@2@$0A@@std@@@std@@IAE?AU?$pair@V?$_List_iterator@V?$_List_val@U?$_List_simple_types@U?$pair@$$CBV?$basic_string@DU?$char_traits@D@std@@V?$allocator@D@2@@std@@USlabelVal@LabelManager@Xbyak@@@std@@@std@@@std@@@std@@_N@1@AAU?$pair@$$CBV?$basic_string@DU?$char_traits@D@std@@V?$allocator@D@2@@std@@USlabelVal@LabelManager@Xbyak@@@1@V?$_List_unchecked_iterator@V?$_List_val@U?$_List_simple_types@U?$pair@$$CBV?$basic_string@DU?$char_traits@D@std@@V?$allocator@D@2@@std@@USlabelVal@LabelManager@Xbyak@@@std@@@std@@@std@@@1@@Z 00410a76 f i pack_stubs.obj
 0001:0000fb74       ??$_Insert@U?$pair@$$CBH$$CBUJmpLabel@Xbyak@@@std@@@?$list@U?$pair@$$CBH$$CBUJmpLabel@Xbyak@@@std@@V?$allocator@U?$pair@$$CBH$$CBUJmpLabel@Xbyak@@@std@@@2@@std@@QAEXV?$_List_unchecked_const_iterator@V?$_List_val@U?$_List_simple_types@U?$pair@$$CBH$$CBUJmpLabel@Xbyak@@@std@@@std@@@std@@U_Iterator_base0@2@@1@$$QAU?$pair@$$CBH$$CBUJmpLabel@Xbyak@@@1@@Z 00410b74 f i pack_stubs.obj
 0001:0000fba3       ??$_Insert@U?$pair@$$CBH$$CBUJmpLabel@Xbyak@@@std@@U_Not_a_node_tag@2@@?$_Hash@V?$_Umap_traits@H$$CBUJmpLabel@Xbyak@@V?$_Uhash_compare@HU?$hash@H@std@@U?$equal_to@H@2@@std@@V?$allocator@U?$pair@$$CBH$$CBUJmpLabel@Xbyak@@@std@@@4@$00@std@@@std@@IAE?AU?$pair@V?$_List_iterator@V?$_List_val@U?$_List_simple_types@U?$pair@$$CBH$$CBUJmpLabel@Xbyak@@@std@@@std@@@std@@@std@@_N@1@$$QAU?$pair@$$CBH$$CBUJmpLabel@Xbyak@@@1@U_Not_a_node_tag@1@@Z 00410ba3 f i pack_stubs.obj
 0001:0000fc8c       ??$_Insert@U?$pair@$$CBV?$basic_string@DU?$char_traits@D@std@@V?$allocator@D@2@@std@@$$CBUJmpLabel@Xbyak@@@std@@@?$list@U?$pair@$$CBV?$basic_string@DU?$char_traits@D@std@@V?$allocator@D@2@@std@@$$CBUJmpLabel@Xbyak@@@std@@V?$allocator@U?$pair@$$CBV?$basic_string@DU?$char_traits@D@std@@V?$allocator@D@2@@std@@$$CBUJmpLabel@Xbyak@@@std@@@2@@std@@QAEXV?$_List_unchecked_const_iterator@V?$_List_val@U?$_List_simple_types@U?$pair@$$CBV?$basic_string@DU?$char_traits@D@std@@V?$allocator@D@2@@std@@$$CBUJmpLabel@Xbyak@@@std@@@std@@@std@@U_Iterator_base0@2@@1@$$QAU?$pair@$$CBV?$basic_string@DU?$char_traits@D@std@@V?$allocator@D@2@@std@@$$CBUJmpLabel@Xbyak@@@1@@Z 00410c8c f i pack_stubs.obj
 0001:0000fcbb       ??$_Insert@U?$pair@$$CBV?$basic_string@DU?$char_traits@D@std@@V?$allocator@D@2@@std@@$$CBUJmpLabel@Xbyak@@@std@@U_Not_a_node_tag@2@@?$_Hash@V?$_Umap_traits@V?$basic_string@DU?$char_traits@D@std@@V?$allocator@D@2@@std@@$$CBUJmpLabel@Xbyak@@V?$_Uhash_compare@V?$basic_string@DU?$char_traits@D@std@@V?$allocator@D@2@@std@@U?$hash@V?$basic_string@DU?$char_traits@D@std@@V?$allocator@D@2@@std@@@2@U?$equal_to@V?$basic_string@DU?$char_traits@D@std@@V?$allocator@D@2@@std@@@2@@2@V?$allocator@U?$pair@$$CBV?$basic_string@DU?$char_traits@D@std@@V?$allocator@D@2@@std@@$$CBUJmpLabel@Xbyak@@@std@@@2@$00@std@@@std@@IAE?AU?$pair@V?$_List_iterator@V?$_List_val@U?$_List_simple_types@U?$pair@$$CBV?$basic_string@DU?$char_traits@D@std@@V?$allocator@D@2@@std@@$$CBUJmpLabel@Xbyak@@@std@@@std@@@std@@@std@@_N@1@$$QAU?$pair@$$CBV?$basic_string@DU?$char_traits@D@std@@V?$allocator@D@2@@std@@$$CBUJmpLabel@Xbyak@@@1@U_Not_a_node_tag@1@@Z 00410cbb f i pack_stubs.obj
 0001:0000fda5       ??$_Insert@UAddrInfo@CodeArray@Xbyak@@@?$list@UAddrInfo@CodeArray@Xbyak@@V?$allocator@UAddrInfo@CodeArray@Xbyak@@@std@@@std@@QAEXV?$_List_unchecked_const_iterator@V?$_List_val@U?$_List_simple_types@UAddrInfo@CodeArray@Xbyak@@@std@@@std@@U_Iterator_base0@2@@1@$$QAUAddrInfo@CodeArray@Xbyak@@@Z 00410da5 f i pack_stubs.obj
 0001:0000fdd4       ??$_Insert@USlabelState@LabelManager@Xbyak@@@?$list@USlabelState@LabelManager@Xbyak@@V?$allocator@USlabelState@LabelManager@Xbyak@@@std@@@std@@QAEXV?$_List_unchecked_const_iterator@V?$_List_val@U?$_List_simple_types@USlabelState@LabelManager@Xbyak@@@std@@@std@@U_Iterator_base0@2@@1@$$QAUSlabelState@LabelManager@Xbyak@@@Z 00410dd4 f i pack_stubs.obj
 0001:0000fe03       ??$_Reallocate_for@V<lambda_9366063389c5f42a00a5088cf24e69de>@@PBD@?$basic_string@DU?$char_traits@D@std@@V?$allocator@D@2@@std@@QAEAAV01@IV<lambda_9366063389c5f42a00a5088cf24e69de>@@PBD@Z 00410e03 f i pack_stubs.obj
 0001:0000fe6a       ??$_Traits_equal@U?$char_traits@D@std@@@std@@YG_NQBDI0I@Z 00410e6a f i pack_stubs.obj
 0001:0000fe92       ??$_Uninit_alloc_fill_n1@PAV?$_List_unchecked_iterator@V?$_List_val@U?$_List_simple_types@U?$pair@$$CBH$$CBUJmpLabel@Xbyak@@@std@@@std@@@std@@@std@@IV?$allocator@V?$_List_unchecked_iterator@V?$_List_val@U?$_List_simple_types@U?$pair@$$CBH$$CBUJmpLabel@Xbyak@@@std@@@std@@@std@@@std@@@2@@std@@YGPAV?$_List_unchecked_iterator@V?$_List_val@U?$_List_simple_types@U?$pair@$$CBH$$CBUJmpLabel@Xbyak@@@std@@@std@@@std@@@0@QAV10@IABV10@AAV?$allocator@V?$_List_unchecked_iterator@V?$_List_val@U?$_List_simple_types@U?$pair@$$CBH$$CBUJmpLabel@Xbyak@@@std@@@std@@@std@@@std@@@0@U?$integral_constant@_N$0A@@0@@Z 00410e92 f i pack_stubs.obj
 0001:0000feb3       ??$_Uninit_alloc_fill_n1@PAV?$_List_unchecked_iterator@V?$_List_val@U?$_List_simple_types@U?$pair@$$CBHUClabelVal@LabelManager@Xbyak@@@std@@@std@@@std@@@std@@IV?$allocator@V?$_List_unchecked_iterator@V?$_List_val@U?$_List_simple_types@U?$pair@$$CBHUClabelVal@LabelManager@Xbyak@@@std@@@std@@@std@@@std@@@2@@std@@YGPAV?$_List_unchecked_iterator@V?$_List_val@U?$_List_simple_types@U?$pair@$$CBHUClabelVal@LabelManager@Xbyak@@@std@@@std@@@std@@@0@QAV10@IABV10@AAV?$allocator@V?$_List_unchecked_iterator@V?$_List_val@U?$_List_simple_types@U?$pair@$$CBHUClabelVal@LabelManager@Xbyak@@@std@@@std@@@std@@@std@@@0@U?$integral_constant@_N$0A@@0@@Z 00410eb3 f i pack_stubs.obj
 0001:0000fed4       ??$_Uninit_alloc_fill_n1@PAV?$_List_unchecked_iterator@V?$_List_val@U?$_List_simple_types@U?$pair@$$CBV?$basic_string@DU?$char_traits@D@std@@V?$allocator@D@2@@std@@$$CBUJmpLabel@Xbyak@@@std@@@std@@@std@@@std@@IV?$allocator@V?$_List_unchecked_iterator@V?$_List_val@U?$_List_simple_types@U?$pair@$$CBV?$basic_string@DU?$char_traits@D@std@@V?$allocator@D@2@@std@@$$CBUJmpLabel@Xbyak@@@std@@@std@@@std@@@std@@@2@@std@@YGPAV?$_List_unchecked_iterator@V?$_List_val@U?$_List_simple_types@U?$pair@$$CBV?$basic_string@DU?$char_traits@D@std@@V?$allocator@D@2@@std@@$$CBUJmpLabel@Xbyak@@@std@@@std@@@std@@@0@QAV10@IABV10@AAV?$allocator@V?$_List_unchecked_iterator@V?$_List_val@U?$_List_simple_types@U?$pair@$$CBV?$basic_string@DU?$char_traits@D@std@@V?$allocator@D@2@@std@@$$CBUJmpLabel@Xbyak@@@std@@@std@@@std@@@std@@@0@U?$integral_constant@_N$0A@@0@@Z 00410ed4 f i pack_stubs.obj
 0001:0000fef5       ??$_Uninit_alloc_fill_n1@PAV?$_List_unchecked_iterator@V?$_List_val@U?$_List_simple_types@U?$pair@$$CBV?$basic_string@DU?$char_traits@D@std@@V?$allocator@D@2@@std@@USlabelVal@LabelManager@Xbyak@@@std@@@std@@@std@@@std@@IV?$allocator@V?$_List_unchecked_iterator@V?$_List_val@U?$_List_simple_types@U?$pair@$$CBV?$basic_string@DU?$char_traits@D@std@@V?$allocator@D@2@@std@@USlabelVal@LabelManager@Xbyak@@@std@@@std@@@std@@@std@@@2@@std@@YGPAV?$_List_unchecked_iterator@V?$_List_val@U?$_List_simple_types@U?$pair@$$CBV?$basic_string@DU?$char_traits@D@std@@V?$allocator@D@2@@std@@USlabelVal@LabelManager@Xbyak@@@std@@@std@@@std@@@0@QAV10@IABV10@AAV?$allocator@V?$_List_unchecked_iterator@V?$_List_val@U?$_List_simple_types@U?$pair@$$CBV?$basic_string@DU?$char_traits@D@std@@V?$allocator@D@2@@std@@USlabelVal@LabelManager@Xbyak@@@std@@@std@@@std@@@std@@@0@U?$integral_constant@_N$0A@@0@@Z 00410ef5 f i pack_stubs.obj
 0001:0000ff16       ??$_Uninitialized_move_al_unchecked@PAV?$_List_unchecked_iterator@V?$_List_val@U?$_List_simple_types@U?$pair@$$CBH$$CBUJmpLabel@Xbyak@@@std@@@std@@@std@@@std@@PAV12@V?$allocator@V?$_List_unchecked_iterator@V?$_List_val@U?$_List_simple_types@U?$pair@$$CBH$$CBUJmpLabel@Xbyak@@@std@@@std@@@std@@@std@@@2@@std@@YGPAV?$_List_unchecked_iterator@V?$_List_val@U?$_List_simple_types@U?$pair@$$CBH$$CBUJmpLabel@Xbyak@@@std@@@std@@@std@@@0@PAV10@QAV10@1AAV?$allocator@V?$_List_unchecked_iterator@V?$_List_val@U?$_List_simple_types@U?$pair@$$CBH$$CBUJmpLabel@Xbyak@@@std@@@std@@@std@@@std@@@0@U_General_ptr_iterator_tag@0@U_Unused_parameter@0@@Z 00410f16 f i pack_stubs.obj
 0001:0000ff4f       ??$_Uninitialized_move_al_unchecked@PAV?$_List_unchecked_iterator@V?$_List_val@U?$_List_simple_types@U?$pair@$$CBHUClabelVal@LabelManager@Xbyak@@@std@@@std@@@std@@@std@@PAV12@V?$allocator@V?$_List_unchecked_iterator@V?$_List_val@U?$_List_simple_types@U?$pair@$$CBHUClabelVal@LabelManager@Xbyak@@@std@@@std@@@std@@@std@@@2@@std@@YGPAV?$_List_unchecked_iterator@V?$_List_val@U?$_List_simple_types@U?$pair@$$CBHUClabelVal@LabelManager@Xbyak@@@std@@@std@@@std@@@0@PAV10@QAV10@1AAV?$allocator@V?$_List_unchecked_iterator@V?$_List_val@U?$_List_simple_types@U?$pair@$$CBHUClabelVal@LabelManager@Xbyak@@@std@@@std@@@std@@@std@@@0@U_General_ptr_iterator_tag@0@U_Unused_parameter@0@@Z 00410f4f f i pack_stubs.obj
 0001:0000ff88       ??$_Uninitialized_move_al_unchecked@PAV?$_List_unchecked_iterator@V?$_List_val@U?$_List_simple_types@U?$pair@$$CBV?$basic_string@DU?$char_traits@D@std@@V?$allocator@D@2@@std@@$$CBUJmpLabel@Xbyak@@@std@@@std@@@std@@@std@@PAV12@V?$allocator@V?$_List_unchecked_iterator@V?$_List_val@U?$_List_simple_types@U?$pair@$$CBV?$basic_string@DU?$char_traits@D@std@@V?$allocator@D@2@@std@@$$CBUJmpLabel@Xbyak@@@std@@@std@@@std@@@std@@@2@@std@@YGPAV?$_List_unchecked_iterator@V?$_List_val@U?$_List_simple_types@U?$pair@$$CBV?$basic_string@DU?$char_traits@D@std@@V?$allocator@D@2@@std@@$$CBUJmpLabel@Xbyak@@@std@@@std@@@std@@@0@PAV10@QAV10@1AAV?$allocator@V?$_List_unchecked_iterator@V?$_List_val@U?$_List_simple_types@U?$pair@$$CBV?$basic_string@DU?$char_traits@D@std@@V?$allocator@D@2@@std@@$$CBUJmpLabel@Xbyak@@@std@@@std@@@std@@@std@@@0@U_General_ptr_iterator_tag@0@U_Unused_parameter@0@@Z 00410f88 f i pack_stubs.obj
 0001:0000ffc1       ??$_Uninitialized_move_al_unchecked@PAV?$_List_unchecked_iterator@V?$_List_val@U?$_List_simple_types@U?$pair@$$CBV?$basic_string@DU?$char_traits@D@std@@V?$allocator@D@2@@std@@USlabelVal@LabelManager@Xbyak@@@std@@@std@@@std@@@std@@PAV12@V?$allocator@V?$_List_unchecked_iterator@V?$_List_val@U?$_List_simple_types@U?$pair@$$CBV?$basic_string@DU?$char_traits@D@std@@V?$allocator@D@2@@std@@USlabelVal@LabelManager@Xbyak@@@std@@@std@@@std@@@std@@@2@@std@@YGPAV?$_List_unchecked_iterator@V?$_List_val@U?$_List_simple_types@U?$pair@$$CBV?$basic_string@DU?$char_traits@D@std@@V?$allocator@D@2@@std@@USlabelVal@LabelManager@Xbyak@@@std@@@std@@@std@@@0@PAV10@QAV10@1AAV?$allocator@V?$_List_unchecked_iterator@V?$_List_val@U?$_List_simple_types@U?$pair@$$CBV?$basic_string@DU?$char_traits@D@std@@V?$allocator@D@2@@std@@USlabelVal@LabelManager@Xbyak@@@std@@@std@@@std@@@std@@@0@U_General_ptr_iterator_tag@0@U_Unused_parameter@0@@Z 00410fc1 f i pack_stubs.obj
 0001:0000fffa       ??$define_inner@V?$unordered_map@V?$basic_string@DU?$char_traits@D@std@@V?$allocator@D@2@@std@@USlabelVal@LabelManager@Xbyak@@U?$hash@V?$basic_string@DU?$char_traits@D@std@@V?$allocator@D@2@@std@@@2@U?$equal_to@V?$basic_string@DU?$char_traits@D@std@@V?$allocator@D@2@@std@@@2@V?$allocator@U?$pair@$$CBV?$basic_string@DU?$char_traits@D@std@@V?$allocator@D@2@@std@@USlabelVal@LabelManager@Xbyak@@@std@@@2@@std@@V?$unordered_multimap@V?$basic_string@DU?$char_traits@D@std@@V?$allocator@D@2@@std@@$$CBUJmpLabel@Xbyak@@U?$hash@V?$basic_string@DU?$char_traits@D@std@@V?$allocator@D@2@@std@@@2@U?$equal_to@V?$basic_string@DU?$char_traits@D@std@@V?$allocator@D@2@@std@@@2@V?$allocator@U?$pair@$$CBV?$basic_string@DU?$char_traits@D@std@@V?$allocator@D@2@@std@@$$CBUJmpLabel@Xbyak@@@std@@@2@@2@V?$basic_string@DU?$char_traits@D@std@@V?$allocator@D@2@@2@@LabelManager@Xbyak@@AAEXAAV?$unordered_map@V?$basic_string@DU?$char_traits@D@std@@V?$allocator@D@2@@std@@USlabelVal@LabelManager@Xbyak@@U?$hash@V?$basic_string@DU?$char_traits@D@std@@V?$allocator@D@2@@std@@@2@U?$equal_to@V?$basic_string@DU?$char_traits@D@std@@V?$allocator@D@2@@std@@@2@V?$allocator@U?$pair@$$CBV?$basic_string@DU?$char_traits@D@std@@V?$allocator@D@2@@std@@USlabelVal@LabelManager@Xbyak@@@std@@@2@@std@@AAV?$unordered_multimap@V?$basic_string@DU?$char_traits@D@std@@V?$allocator@D@2@@std@@$$CBUJmpLabel@Xbyak@@U?$hash@V?$basic_string@DU?$char_traits@D@std@@V?$allocator@D@2@@std@@@2@U?$equal_to@V?$basic_string@DU?$char_traits@D@std@@V?$allocator@D@2@@std@@@2@V?$allocator@U?$pair@$$CBV?$basic_string@DU?$char_traits@D@std@@V?$allocator@D@2@@std@@$$CBUJmpLabel@Xbyak@@@std@@@2@@3@ABV?$basic_string@DU?$char_traits@D@std@@V?$allocator@D@2@@3@I@Z 00410ffa f i pack_stubs.obj
 0001:0001011e       ??$emplace@AAU?$pair@$$CBV?$basic_string@DU?$char_traits@D@std@@V?$allocator@D@2@@std@@USlabelVal@LabelManager@Xbyak@@@std@@@?$_Hash@V?$_Umap_traits@V?$basic_string@DU?$char_traits@D@std@@V?$allocator@D@2@@std@@USlabelVal@LabelManager@Xbyak@@V?$_Uhash_compare@V?$basic_string@DU?$char_traits@D@std@@V?$allocator@D@2@@std@@U?$hash@V?$basic_string@DU?$char_traits@D@std@@V?$allocator@D@2@@std@@@2@U?$equal_to@V?$basic_string@DU?$char_traits@D@std@@V?$allocator@D@2@@std@@@2@@2@V?$allocator@U?$pair@$$CBV?$basic_string@DU?$char_traits@D@std@@V?$allocator@D@2@@std@@USlabelVal@LabelManager@Xbyak@@@std@@@2@$0A@@std@@@std@@QAE?AU?$pair@V?$_List_iterator@V?$_List_val@U?$_List_simple_types@U?$pair@$$CBV?$basic_string@DU?$char_traits@D@std@@V?$allocator@D@2@@std@@USlabelVal@LabelManager@Xbyak@@@std@@@std@@@std@@@std@@_N@1@AAU?$pair@$$CBV?$basic_string@DU?$char_traits@D@std@@V?$allocator@D@2@@std@@USlabelVal@LabelManager@Xbyak@@@1@@Z 0041111e f i pack_stubs.obj
 0001:00010151       ??$erase@V?$_List_iterator@V?$_List_val@U?$_List_simple_types@U?$pair@$$CBH$$CBUJmpLabel@Xbyak@@@std@@@std@@@std@@@std@@X@?$_Hash@V?$_Umap_traits@H$$CBUJmpLabel@Xbyak@@V?$_Uhash_compare@HU?$hash@H@std@@U?$equal_to@H@2@@std@@V?$allocator@U?$pair@$$CBH$$CBUJmpLabel@Xbyak@@@std@@@4@$00@std@@@std@@QAE?AV?$_List_iterator@V?$_List_val@U?$_List_simple_types@U?$pair@$$CBH$$CBUJmpLabel@Xbyak@@@std@@@std@@@std@@@1@V21@@Z 00411151 f i pack_stubs.obj
 0001:00010165       ??$erase@V?$_List_iterator@V?$_List_val@U?$_List_simple_types@U?$pair@$$CBV?$basic_string@DU?$char_traits@D@std@@V?$allocator@D@2@@std@@$$CBUJmpLabel@Xbyak@@@std@@@std@@@std@@@std@@X@?$_Hash@V?$_Umap_traits@V?$basic_string@DU?$char_traits@D@std@@V?$allocator@D@2@@std@@$$CBUJmpLabel@Xbyak@@V?$_Uhash_compare@V?$basic_string@DU?$char_traits@D@std@@V?$allocator@D@2@@std@@U?$hash@V?$basic_string@DU?$char_traits@D@std@@V?$allocator@D@2@@std@@@2@U?$equal_to@V?$basic_string@DU?$char_traits@D@std@@V?$allocator@D@2@@std@@@2@@2@V?$allocator@U?$pair@$$CBV?$basic_string@DU?$char_traits@D@std@@V?$allocator@D@2@@std@@$$CBUJmpLabel@Xbyak@@@std@@@2@$00@std@@@std@@QAE?AV?$_List_iterator@V?$_List_val@U?$_List_simple_types@U?$pair@$$CBV?$basic_string@DU?$char_traits@D@std@@V?$allocator@D@2@@std@@$$CBUJmpLabel@Xbyak@@@std@@@std@@@std@@@1@V21@@Z 00411165 f i pack_stubs.obj
 0001:00010179       ??$erase@V?$_List_iterator@V?$_List_val@U?$_List_simple_types@U?$pair@$$CBV?$basic_string@DU?$char_traits@D@std@@V?$allocator@D@2@@std@@USlabelVal@LabelManager@Xbyak@@@std@@@std@@@std@@@std@@X@?$_Hash@V?$_Umap_traits@V?$basic_string@DU?$char_traits@D@std@@V?$allocator@D@2@@std@@USlabelVal@LabelManager@Xbyak@@V?$_Uhash_compare@V?$basic_string@DU?$char_traits@D@std@@V?$allocator@D@2@@std@@U?$hash@V?$basic_string@DU?$char_traits@D@std@@V?$allocator@D@2@@std@@@2@U?$equal_to@V?$basic_string@DU?$char_traits@D@std@@V?$allocator@D@2@@std@@@2@@2@V?$allocator@U?$pair@$$CBV?$basic_string@DU?$char_traits@D@std@@V?$allocator@D@2@@std@@USlabelVal@LabelManager@Xbyak@@@std@@@2@$0A@@std@@@std@@QAE?AV?$_List_iterator@V?$_List_val@U?$_List_simple_types@U?$pair@$$CBV?$basic_string@DU?$char_traits@D@std@@V?$allocator@D@2@@std@@USlabelVal@LabelManager@Xbyak@@@std@@@std@@@std@@@1@V21@@Z 00411179 f i pack_stubs.obj
 0001:0001018d       ??$getOffset_inner@V?$unordered_map@HUClabelVal@LabelManager@Xbyak@@U?$hash@H@std@@U?$equal_to@H@5@V?$allocator@U?$pair@$$CBHUClabelVal@LabelManager@Xbyak@@@std@@@5@@std@@H@LabelManager@Xbyak@@ABE_NABV?$unordered_map@HUClabelVal@LabelManager@Xbyak@@U?$hash@H@std@@U?$equal_to@H@5@V?$allocator@U?$pair@$$CBHUClabelVal@LabelManager@Xbyak@@@std@@@5@@std@@PAIABH@Z 0041118d f i pack_stubs.obj
 0001:000101bd       ??$getOffset_inner@V?$unordered_map@V?$basic_string@DU?$char_traits@D@std@@V?$allocator@D@2@@std@@USlabelVal@LabelManager@Xbyak@@U?$hash@V?$basic_string@DU?$char_traits@D@std@@V?$allocator@D@2@@std@@@2@U?$equal_to@V?$basic_string@DU?$char_traits@D@std@@V?$allocator@D@2@@std@@@2@V?$allocator@U?$pair@$$CBV?$basic_string@DU?$char_traits@D@std@@V?$allocator@D@2@@std@@USlabelVal@LabelManager@Xbyak@@@std@@@2@@std@@V?$basic_string@DU?$char_traits@D@std@@V?$allocator@D@2@@2@@LabelManager@Xbyak@@ABE_NABV?$unordered_map@V?$basic_string@DU?$char_traits@D@std@@V?$allocator@D@2@@std@@USlabelVal@LabelManager@Xbyak@@U?$hash@V?$basic_string@DU?$char_traits@D@std@@V?$allocator@D@2@@std@@@2@U?$equal_to@V?$basic_string@DU?$char_traits@D@std@@V?$allocator@D@2@@std@@@2@V?$allocator@U?$pair@$$CBV?$basic_string@DU?$char_traits@D@std@@V?$allocator@D@2@@std@@USlabelVal@LabelManager@Xbyak@@@std@@@2@@std@@PAIABV?$basic_string@DU?$char_traits@D@std@@V?$allocator@D@2@@3@@Z 004111bd f i pack_stubs.obj
 0001:000101ed       ??$opJmp@V?$basic_string@DU?$char_traits@D@std@@V?$allocator@D@2@@std@@@CodeGenerator@Xbyak@@AAEXAAV?$basic_string@DU?$char_traits@D@std@@V?$allocator@D@2@@std@@W4LabelType@01@EEE@Z 004111ed f i pack_stubs.obj
 0001:000102c3       ??$putL_inner@$$CBVLabel@Xbyak@@@CodeGenerator@Xbyak@@AAEXABVLabel@1@_NI@Z 004112c3 f i pack_stubs.obj
 0001:0001039b       ??0?$_Hash@V?$_Umap_traits@H$$CBUJmpLabel@Xbyak@@V?$_Uhash_compare@HU?$hash@H@std@@U?$equal_to@H@2@@std@@V?$allocator@U?$pair@$$CBH$$CBUJmpLabel@Xbyak@@@std@@@4@$00@std@@@std@@QAE@ABV?$_Uhash_compare@HU?$hash@H@std@@U?$equal_to@H@2@@1@ABV?$allocator@U?$pair@$$CBH$$CBUJmpLabel@Xbyak@@@std@@@1@@Z 0041139b f i pack_stubs.obj
 0001:000103dd       ??0?$_Hash@V?$_Umap_traits@HUClabelVal@LabelManager@Xbyak@@V?$_Uhash_compare@HU?$hash@H@std@@U?$equal_to@H@2@@std@@V?$allocator@U?$pair@$$CBHUClabelVal@LabelManager@Xbyak@@@std@@@5@$0A@@std@@@std@@QAE@ABV?$_Uhash_compare@HU?$hash@H@std@@U?$equal_to@H@2@@1@ABV?$allocator@U?$pair@$$CBHUClabelVal@LabelManager@Xbyak@@@std@@@1@@Z 004113dd f i pack_stubs.obj
 0001:0001041f       ??0?$_Hash@V?$_Umap_traits@V?$basic_string@DU?$char_traits@D@std@@V?$allocator@D@2@@std@@$$CBUJmpLabel@Xbyak@@V?$_Uhash_compare@V?$basic_string@DU?$char_traits@D@std@@V?$allocator@D@2@@std@@U?$hash@V?$basic_string@DU?$char_traits@D@std@@V?$allocator@D@2@@std@@@2@U?$equal_to@V?$basic_string@DU?$char_traits@D@std@@V?$allocator@D@2@@std@@@2@@2@V?$allocator@U?$pair@$$CBV?$basic_string@DU?$char_traits@D@std@@V?$allocator@D@2@@std@@$$CBUJmpLabel@Xbyak@@@std@@@2@$00@std@@@std@@QAE@$$QAV01@@Z 0041141f f i pack_stubs.obj
 0001:00010468       ??0?$_Hash@V?$_Umap_traits@V?$basic_string@DU?$char_traits@D@std@@V?$allocator@D@2@@std@@$$CBUJmpLabel@Xbyak@@V?$_Uhash_compare@V?$basic_string@DU?$char_traits@D@std@@V?$allocator@D@2@@std@@U?$hash@V?$basic_string@DU?$char_traits@D@std@@V?$allocator@D@2@@std@@@2@U?$equal_to@V?$basic_string@DU?$char_traits@D@std@@V?$allocator@D@2@@std@@@2@@2@V?$allocator@U?$pair@$$CBV?$basic_string@DU?$char_traits@D@std@@V?$allocator@D@2@@std@@$$CBUJmpLabel@Xbyak@@@std@@@2@$00@std@@@std@@QAE@ABV?$_Uhash_compare@V?$basic_string@DU?$char_traits@D@std@@V?$allocator@D@2@@std@@U?$hash@V?$basic_string@DU?$char_traits@D@std@@V?$allocator@D@2@@std@@@2@U?$equal_to@V?$basic_string@DU?$char_traits@D@std@@V?$allocator@D@2@@std@@@2@@1@ABV?$allocator@U?$pair@$$CBV?$basic_string@DU?$char_traits@D@std@@V?$allocator@D@2@@std@@$$CBUJmpLabel@Xbyak@@@std@@@1@@Z 00411468 f i pack_stubs.obj
 0001:000104aa       ??0?$_Hash@V?$_Umap_traits@V?$basic_string@DU?$char_traits@D@std@@V?$allocator@D@2@@std@@USlabelVal@LabelManager@Xbyak@@V?$_Uhash_compare@V?$basic_string@DU?$char_traits@D@std@@V?$allocator@D@2@@std@@U?$hash@V?$basic_string@DU?$char_traits@D@std@@V?$allocator@D@2@@std@@@2@U?$equal_to@V?$basic_string@DU?$char_traits@D@std@@V?$allocator@D@2@@std@@@2@@2@V?$allocator@U?$pair@$$CBV?$basic_string@DU?$char_traits@D@std@@V?$allocator@D@2@@std@@USlabelVal@LabelManager@Xbyak@@@std@@@2@$0A@@std@@@std@@QAE@$$QAV01@@Z 004114aa f i pack_stubs.obj
 0001:000104f3       ??0?$_Hash@V?$_Umap_traits@V?$basic_string@DU?$char_traits@D@std@@V?$allocator@D@2@@std@@USlabelVal@LabelManager@Xbyak@@V?$_Uhash_compare@V?$basic_string@DU?$char_traits@D@std@@V?$allocator@D@2@@std@@U?$hash@V?$basic_string@DU?$char_traits@D@std@@V?$allocator@D@2@@std@@@2@U?$equal_to@V?$basic_string@DU?$char_traits@D@std@@V?$allocator@D@2@@std@@@2@@2@V?$allocator@U?$pair@$$CBV?$basic_string@DU?$char_traits@D@std@@V?$allocator@D@2@@std@@USlabelVal@LabelManager@Xbyak@@@std@@@2@$0A@@std@@@std@@QAE@ABV?$_Uhash_compare@V?$basic_string@DU?$char_traits@D@std@@V?$allocator@D@2@@std@@U?$hash@V?$basic_string@DU?$char_traits@D@std@@V?$allocator@D@2@@std@@@2@U?$equal_to@V?$basic_string@DU?$char_traits@D@std@@V?$allocator@D@2@@std@@@2@@1@ABV?$allocator@U?$pair@$$CBV?$basic_string@DU?$char_traits@D@std@@V?$allocator@D@2@@std@@USlabelVal@LabelManager@Xbyak@@@std@@@1@@Z 004114f3 f i pack_stubs.obj
 0001:00010535       ??0?$list@U?$pair@$$CBV?$basic_string@DU?$char_traits@D@std@@V?$allocator@D@2@@std@@$$CBUJmpLabel@Xbyak@@@std@@V?$allocator@U?$pair@$$CBV?$basic_string@DU?$char_traits@D@std@@V?$allocator@D@2@@std@@$$CBUJmpLabel@Xbyak@@@std@@@2@@std@@QAE@$$QAV01@@Z 00411535 f i pack_stubs.obj
 0001:00010564       ??0?$list@U?$pair@$$CBV?$basic_string@DU?$char_traits@D@std@@V?$allocator@D@2@@std@@USlabelVal@LabelManager@Xbyak@@@std@@V?$allocator@U?$pair@$$CBV?$basic_string@DU?$char_traits@D@std@@V?$allocator@D@2@@std@@USlabelVal@LabelManager@Xbyak@@@std@@@2@@std@@QAE@$$QAV01@@Z 00411564 f i pack_stubs.obj
 0001:00010593       ??0?$pair@$$CBV?$basic_string@DU?$char_traits@D@std@@V?$allocator@D@2@@std@@$$CBUJmpLabel@Xbyak@@@std@@QAE@$$QAU01@@Z 00411593 f i pack_stubs.obj
 0001:000105bc       ??0?$pair@$$CBV?$basic_string@DU?$char_traits@D@std@@V?$allocator@D@2@@std@@USlabelVal@LabelManager@Xbyak@@@std@@QAE@ABU01@@Z 004115bc f i pack_stubs.obj
 0001:000105df       ??0?$vector@V?$_List_unchecked_iterator@V?$_List_val@U?$_List_simple_types@U?$pair@$$CBV?$basic_string@DU?$char_traits@D@std@@V?$allocator@D@2@@std@@$$CBUJmpLabel@Xbyak@@@std@@@std@@@std@@@std@@V?$allocator@V?$_List_unchecked_iterator@V?$_List_val@U?$_List_simple_types@U?$pair@$$CBV?$basic_string@DU?$char_traits@D@std@@V?$allocator@D@2@@std@@$$CBUJmpLabel@Xbyak@@@std@@@std@@@std@@@std@@@2@@std@@QAE@$$QAV01@@Z 004115df f i pack_stubs.obj
 0001:0001060c       ??0?$vector@V?$_List_unchecked_iterator@V?$_List_val@U?$_List_simple_types@U?$pair@$$CBV?$basic_string@DU?$char_traits@D@std@@V?$allocator@D@2@@std@@USlabelVal@LabelManager@Xbyak@@@std@@@std@@@std@@@std@@V?$allocator@V?$_List_unchecked_iterator@V?$_List_val@U?$_List_simple_types@U?$pair@$$CBV?$basic_string@DU?$char_traits@D@std@@V?$allocator@D@2@@std@@USlabelVal@LabelManager@Xbyak@@@std@@@std@@@std@@@std@@@2@@std@@QAE@$$QAV01@@Z 0041160c f i pack_stubs.obj
 0001:00010639       ??0Address@Xbyak@@QAE@I_NI0000@Z 00411639 f i pack_stubs.obj
 0001:0001067c       ??0Bootstrapper@@QAE@HHH@Z 0041167c f i pack_stubs.obj
 0001:0001085f       ??0CodeArray@Xbyak@@QAE@IPAXPAUAllocator@1@@Z 0041185f f i pack_stubs.obj
 0001:0001094d       ??0CodeGenerator@Xbyak@@QAE@IPAXPAUAllocator@1@@Z 0041194d f i pack_stubs.obj
 0001:00010e44       ??0Error@Xbyak@@QAE@ABV01@@Z 00411e44 f i pack_stubs.obj
 0001:00010e65       ??0Error@Xbyak@@QAE@H@Z    00411e65 f i pack_stubs.obj
 0001:00010ea7       ??0LabelManager@Xbyak@@QAE@XZ 00411ea7 f i pack_stubs.obj
 0001:00010efa       ??0RegExp@Xbyak@@QAE@ABVReg@1@H@Z 00411efa f i pack_stubs.obj
 0001:00010f85       ??0SlabelState@LabelManager@Xbyak@@QAE@$$QAU012@@Z 00411f85 f i pack_stubs.obj
 0001:00010fa6       ??0SlabelState@LabelManager@Xbyak@@QAE@XZ 00411fa6 f i pack_stubs.obj
 0001:00010fd8       ??0exception@std@@QAE@ABV01@@Z 00411fd8 f i pack_stubs.obj
 0001:00011001       ??1?$_Hash@V?$_Umap_traits@H$$CBUJmpLabel@Xbyak@@V?$_Uhash_compare@HU?$hash@H@std@@U?$equal_to@H@2@@std@@V?$allocator@U?$pair@$$CBH$$CBUJmpLabel@Xbyak@@@std@@@4@$00@std@@@std@@QAE@XZ 00412001 f i pack_stubs.obj
 0001:00011020       ??1?$_Hash@V?$_Umap_traits@HUClabelVal@LabelManager@Xbyak@@V?$_Uhash_compare@HU?$hash@H@std@@U?$equal_to@H@2@@std@@V?$allocator@U?$pair@$$CBHUClabelVal@LabelManager@Xbyak@@@std@@@5@$0A@@std@@@std@@QAE@XZ 00412020 f i pack_stubs.obj
 0001:0001103f       ??1?$_Hash@V?$_Umap_traits@V?$basic_string@DU?$char_traits@D@std@@V?$allocator@D@2@@std@@$$CBUJmpLabel@Xbyak@@V?$_Uhash_compare@V?$basic_string@DU?$char_traits@D@std@@V?$allocator@D@2@@std@@U?$hash@V?$basic_string@DU?$char_traits@D@std@@V?$allocator@D@2@@std@@@2@U?$equal_to@V?$basic_string@DU?$char_traits@D@std@@V?$allocator@D@2@@std@@@2@@2@V?$allocator@U?$pair@$$CBV?$basic_string@DU?$char_traits@D@std@@V?$allocator@D@2@@std@@$$CBUJmpLabel@Xbyak@@@std@@@2@$00@std@@@std@@QAE@XZ 0041203f f i pack_stubs.obj
 0001:0001105e       ??1?$_Hash@V?$_Umap_traits@V?$basic_string@DU?$char_traits@D@std@@V?$allocator@D@2@@std@@USlabelVal@LabelManager@Xbyak@@V?$_Uhash_compare@V?$basic_string@DU?$char_traits@D@std@@V?$allocator@D@2@@std@@U?$hash@V?$basic_string@DU?$char_traits@D@std@@V?$allocator@D@2@@std@@@2@U?$equal_to@V?$basic_string@DU?$char_traits@D@std@@V?$allocator@D@2@@std@@@2@@2@V?$allocator@U?$pair@$$CBV?$basic_string@DU?$char_traits@D@std@@V?$allocator@D@2@@std@@USlabelVal@LabelManager@Xbyak@@@std@@@2@$0A@@std@@@std@@QAE@XZ 0041205e f i pack_stubs.obj
 0001:0001107d       ??1Allocator@Xbyak@@UAE@XZ 0041207d f i pack_stubs.obj
 0001:00011084       ??1CodeArray@Xbyak@@UAE@XZ 00412084 f i pack_stubs.obj
 0001:000110e0       ??1Error@Xbyak@@UAE@XZ     004120e0 f i pack_stubs.obj
 0001:000110f1       ??1LabelManager@Xbyak@@QAE@XZ 004120f1 f i pack_stubs.obj
 0001:00011118       ??1exception@std@@UAE@XZ   00412118 f i pack_stubs.obj
 0001:00011129       ??HXbyak@@YG?AVRegExp@0@ABV10@0@Z 00412129 f i pack_stubs.obj
 0001:000111f1       ??R?$hash@V?$basic_string@DU?$char_traits@D@std@@V?$allocator@D@2@@std@@@std@@QBEIABV?$basic_string@DU?$char_traits@D@std@@V?$allocator@D@2@@1@@Z 004121f1 f i pack_stubs.obj
 0001:0001120f       ??_EAllocator@Xbyak@@UAEPAXI@Z 0041220f f i pack_stubs.obj
 0001:0001120f       ??_GAllocator@Xbyak@@UAEPAXI@Z 0041220f f i pack_stubs.obj
 0001:0001122f       ??_GBootstrapper@@UAEPAXI@Z 0041222f f i pack_stubs.obj
 0001:0001122f       ??_EBootstrapper@@UAEPAXI@Z 0041222f f i pack_stubs.obj
 0001:0001125b       ??_ECodeArray@Xbyak@@UAEPAXI@Z 0041225b f i pack_stubs.obj
 0001:0001125b       ??_GCodeArray@Xbyak@@UAEPAXI@Z 0041225b f i pack_stubs.obj
 0001:0001127a       ??_ECodeGenerator@Xbyak@@UAEPAXI@Z 0041227a f i pack_stubs.obj
 0001:0001127a       ??_GCodeGenerator@Xbyak@@UAEPAXI@Z 0041227a f i pack_stubs.obj
 0001:000112a6       ??_EError@Xbyak@@UAEPAXI@Z 004122a6 f i pack_stubs.obj
 0001:000112a6       ??_GError@Xbyak@@UAEPAXI@Z 004122a6 f i pack_stubs.obj
 0001:000112d0       ??_GSlabelState@LabelManager@Xbyak@@QAEPAXI@Z 004122d0 f i pack_stubs.obj
 0001:000112f9       ??_Eexception@std@@UAEPAXI@Z 004122f9 f i pack_stubs.obj
 0001:000112f9       ??_Gexception@std@@UAEPAXI@Z 004122f9 f i pack_stubs.obj
 0001:00011323       ?CreateRva@CRelocBuilder@@QAEPAU_RVA_ITEM@@K@Z 00412323 f i pack_stubs.obj
 0001:00011354       ?DeleteRvaList@CRelocBuilder@@QAEXXZ 00412354 f i pack_stubs.obj
 0001:00011375       ?Export@CRelocBuilder@@QAEXPAX@Z 00412375 f i pack_stubs.obj
 0001:000113e0       ?GetSize@CRelocBuilder@@QAEKXZ 004123e0 f i pack_stubs.obj
 0001:0001140e       ?IsInInt32@inner@Xbyak@@YG_N_K@Z 0041240e f i pack_stubs.obj
 0001:00011438       ?L@CodeGenerator@Xbyak@@QAEXABV?$basic_string@DU?$char_traits@D@std@@V?$allocator@D@2@@std@@@Z 00412438 f i pack_stubs.obj
 0001:0001145d       ?_Buy@?$vector@V?$_List_unchecked_iterator@V?$_List_val@U?$_List_simple_types@U?$pair@$$CBH$$CBUJmpLabel@Xbyak@@@std@@@std@@@std@@@std@@V?$allocator@V?$_List_unchecked_iterator@V?$_List_val@U?$_List_simple_types@U?$pair@$$CBH$$CBUJmpLabel@Xbyak@@@std@@@std@@@std@@@std@@@2@@std@@AAE_NI@Z 0041245d f i pack_stubs.obj
 0001:0001149d       ?_Buy@?$vector@V?$_List_unchecked_iterator@V?$_List_val@U?$_List_simple_types@U?$pair@$$CBHUClabelVal@LabelManager@Xbyak@@@std@@@std@@@std@@@std@@V?$allocator@V?$_List_unchecked_iterator@V?$_List_val@U?$_List_simple_types@U?$pair@$$CBHUClabelVal@LabelManager@Xbyak@@@std@@@std@@@std@@@std@@@2@@std@@AAE_NI@Z 0041249d f i pack_stubs.obj
 0001:000114dd       ?_Buy@?$vector@V?$_List_unchecked_iterator@V?$_List_val@U?$_List_simple_types@U?$pair@$$CBV?$basic_string@DU?$char_traits@D@std@@V?$allocator@D@2@@std@@$$CBUJmpLabel@Xbyak@@@std@@@std@@@std@@@std@@V?$allocator@V?$_List_unchecked_iterator@V?$_List_val@U?$_List_simple_types@U?$pair@$$CBV?$basic_string@DU?$char_traits@D@std@@V?$allocator@D@2@@std@@$$CBUJmpLabel@Xbyak@@@std@@@std@@@std@@@std@@@2@@std@@AAE_NI@Z 004124dd f i pack_stubs.obj
 0001:0001151d       ?_Buy@?$vector@V?$_List_unchecked_iterator@V?$_List_val@U?$_List_simple_types@U?$pair@$$CBV?$basic_string@DU?$char_traits@D@std@@V?$allocator@D@2@@std@@USlabelVal@LabelManager@Xbyak@@@std@@@std@@@std@@@std@@V?$allocator@V?$_List_unchecked_iterator@V?$_List_val@U?$_List_simple_types@U?$pair@$$CBV?$basic_string@DU?$char_traits@D@std@@V?$allocator@D@2@@std@@USlabelVal@LabelManager@Xbyak@@@std@@@std@@@std@@@std@@@2@@std@@AAE_NI@Z 0041251d f i pack_stubs.obj
 0001:0001155d       ?_Buynode0@?$_List_alloc@U?$_List_base_types@U?$pair@$$CBH$$CBUJmpLabel@Xbyak@@@std@@V?$allocator@U?$pair@$$CBH$$CBUJmpLabel@Xbyak@@@std@@@2@@std@@@std@@QAEPAU?$_List_node@U?$pair@$$CBH$$CBUJmpLabel@Xbyak@@@std@@PAX@2@PAU32@0@Z 0041255d f i pack_stubs.obj
 0001:000115c2       ?_Buynode0@?$_List_alloc@U?$_List_base_types@U?$pair@$$CBHUClabelVal@LabelManager@Xbyak@@@std@@V?$allocator@U?$pair@$$CBHUClabelVal@LabelManager@Xbyak@@@std@@@2@@std@@@std@@QAEPAU?$_List_node@U?$pair@$$CBHUClabelVal@LabelManager@Xbyak@@@std@@PAX@2@PAU32@0@Z 004125c2 f i pack_stubs.obj
 0001:00011627       ?_Buynode0@?$_List_alloc@U?$_List_base_types@U?$pair@$$CBV?$basic_string@DU?$char_traits@D@std@@V?$allocator@D@2@@std@@$$CBUJmpLabel@Xbyak@@@std@@V?$allocator@U?$pair@$$CBV?$basic_string@DU?$char_traits@D@std@@V?$allocator@D@2@@std@@$$CBUJmpLabel@Xbyak@@@std@@@2@@std@@@std@@QAEPAU?$_List_node@U?$pair@$$CBV?$basic_string@DU?$char_traits@D@std@@V?$allocator@D@2@@std@@$$CBUJmpLabel@Xbyak@@@std@@PAX@2@PAU32@0@Z 00412627 f i pack_stubs.obj
 0001:0001168c       ?_Buynode0@?$_List_alloc@U?$_List_base_types@U?$pair@$$CBV?$basic_string@DU?$char_traits@D@std@@V?$allocator@D@2@@std@@USlabelVal@LabelManager@Xbyak@@@std@@V?$allocator@U?$pair@$$CBV?$basic_string@DU?$char_traits@D@std@@V?$allocator@D@2@@std@@USlabelVal@LabelManager@Xbyak@@@std@@@2@@std@@@std@@QAEPAU?$_List_node@U?$pair@$$CBV?$basic_string@DU?$char_traits@D@std@@V?$allocator@D@2@@std@@USlabelVal@LabelManager@Xbyak@@@std@@PAX@2@PAU32@0@Z 0041268c f i pack_stubs.obj
 0001:000116f1       ?_Buynode0@?$_List_alloc@U?$_List_base_types@UAddrInfo@CodeArray@Xbyak@@V?$allocator@UAddrInfo@CodeArray@Xbyak@@@std@@@std@@@std@@QAEPAU?$_List_node@UAddrInfo@CodeArray@Xbyak@@PAX@2@PAU32@0@Z 004126f1 f i pack_stubs.obj
 0001:00011756       ?_Buynode0@?$_List_alloc@U?$_List_base_types@USlabelState@LabelManager@Xbyak@@V?$allocator@USlabelState@LabelManager@Xbyak@@@std@@@std@@@std@@QAEPAU?$_List_node@USlabelState@LabelManager@Xbyak@@PAX@2@PAU32@0@Z 00412756 f i pack_stubs.obj
 0001:000117bb       ?_Calculate_growth@?$basic_string@DU?$char_traits@D@std@@V?$allocator@D@2@@std@@QBEII@Z 004127bb f i pack_stubs.obj
 0001:000117ef       ?_Calculate_growth@?$vector@V?$_List_unchecked_iterator@V?$_List_val@U?$_List_simple_types@U?$pair@$$CBH$$CBUJmpLabel@Xbyak@@@std@@@std@@@std@@@std@@V?$allocator@V?$_List_unchecked_iterator@V?$_List_val@U?$_List_simple_types@U?$pair@$$CBH$$CBUJmpLabel@Xbyak@@@std@@@std@@@std@@@std@@@2@@std@@ABEII@Z 004127ef f i pack_stubs.obj
 0001:00011816       ?_Calculate_growth@?$vector@V?$_List_unchecked_iterator@V?$_List_val@U?$_List_simple_types@U?$pair@$$CBHUClabelVal@LabelManager@Xbyak@@@std@@@std@@@std@@@std@@V?$allocator@V?$_List_unchecked_iterator@V?$_List_val@U?$_List_simple_types@U?$pair@$$CBHUClabelVal@LabelManager@Xbyak@@@std@@@std@@@std@@@std@@@2@@std@@ABEII@Z 00412816 f i pack_stubs.obj
 0001:0001183d       ?_Calculate_growth@?$vector@V?$_List_unchecked_iterator@V?$_List_val@U?$_List_simple_types@U?$pair@$$CBV?$basic_string@DU?$char_traits@D@std@@V?$allocator@D@2@@std@@$$CBUJmpLabel@Xbyak@@@std@@@std@@@std@@@std@@V?$allocator@V?$_List_unchecked_iterator@V?$_List_val@U?$_List_simple_types@U?$pair@$$CBV?$basic_string@DU?$char_traits@D@std@@V?$allocator@D@2@@std@@$$CBUJmpLabel@Xbyak@@@std@@@std@@@std@@@std@@@2@@std@@ABEII@Z 0041283d f i pack_stubs.obj
 0001:00011864       ?_Calculate_growth@?$vector@V?$_List_unchecked_iterator@V?$_List_val@U?$_List_simple_types@U?$pair@$$CBV?$basic_string@DU?$char_traits@D@std@@V?$allocator@D@2@@std@@USlabelVal@LabelManager@Xbyak@@@std@@@std@@@std@@@std@@V?$allocator@V?$_List_unchecked_iterator@V?$_List_val@U?$_List_simple_types@U?$pair@$$CBV?$basic_string@DU?$char_traits@D@std@@V?$allocator@D@2@@std@@USlabelVal@LabelManager@Xbyak@@@std@@@std@@@std@@@std@@@2@@std@@ABEII@Z 00412864 f i pack_stubs.obj
 0001:0001188b       ?_Change_array@?$vector@V?$_List_unchecked_iterator@V?$_List_val@U?$_List_simple_types@U?$pair@$$CBH$$CBUJmpLabel@Xbyak@@@std@@@std@@@std@@@std@@V?$allocator@V?$_List_unchecked_iterator@V?$_List_val@U?$_List_simple_types@U?$pair@$$CBH$$CBUJmpLabel@Xbyak@@@std@@@std@@@std@@@std@@@2@@std@@AAEXQAV?$_List_unchecked_iterator@V?$_List_val@U?$_List_simple_types@U?$pair@$$CBH$$CBUJmpLabel@Xbyak@@@std@@@std@@@std@@@2@II@Z 0041288b f i pack_stubs.obj
 0001:000118c1       ?_Change_array@?$vector@V?$_List_unchecked_iterator@V?$_List_val@U?$_List_simple_types@U?$pair@$$CBHUClabelVal@LabelManager@Xbyak@@@std@@@std@@@std@@@std@@V?$allocator@V?$_List_unchecked_iterator@V?$_List_val@U?$_List_simple_types@U?$pair@$$CBHUClabelVal@LabelManager@Xbyak@@@std@@@std@@@std@@@std@@@2@@std@@AAEXQAV?$_List_unchecked_iterator@V?$_List_val@U?$_List_simple_types@U?$pair@$$CBHUClabelVal@LabelManager@Xbyak@@@std@@@std@@@std@@@2@II@Z 004128c1 f i pack_stubs.obj
 0001:000118f7       ?_Change_array@?$vector@V?$_List_unchecked_iterator@V?$_List_val@U?$_List_simple_types@U?$pair@$$CBV?$basic_string@DU?$char_traits@D@std@@V?$allocator@D@2@@std@@$$CBUJmpLabel@Xbyak@@@std@@@std@@@std@@@std@@V?$allocator@V?$_List_unchecked_iterator@V?$_List_val@U?$_List_simple_types@U?$pair@$$CBV?$basic_string@DU?$char_traits@D@std@@V?$allocator@D@2@@std@@$$CBUJmpLabel@Xbyak@@@std@@@std@@@std@@@std@@@2@@std@@AAEXQAV?$_List_unchecked_iterator@V?$_List_val@U?$_List_simple_types@U?$pair@$$CBV?$basic_string@DU?$char_traits@D@std@@V?$allocator@D@2@@std@@$$CBUJmpLabel@Xbyak@@@std@@@std@@@std@@@2@II@Z 004128f7 f i pack_stubs.obj
 0001:0001192d       ?_Change_array@?$vector@V?$_List_unchecked_iterator@V?$_List_val@U?$_List_simple_types@U?$pair@$$CBV?$basic_string@DU?$char_traits@D@std@@V?$allocator@D@2@@std@@USlabelVal@LabelManager@Xbyak@@@std@@@std@@@std@@@std@@V?$allocator@V?$_List_unchecked_iterator@V?$_List_val@U?$_List_simple_types@U?$pair@$$CBV?$basic_string@DU?$char_traits@D@std@@V?$allocator@D@2@@std@@USlabelVal@LabelManager@Xbyak@@@std@@@std@@@std@@@std@@@2@@std@@AAEXQAV?$_List_unchecked_iterator@V?$_List_val@U?$_List_simple_types@U?$pair@$$CBV?$basic_string@DU?$char_traits@D@std@@V?$allocator@D@2@@std@@USlabelVal@LabelManager@Xbyak@@@std@@@std@@@std@@@2@II@Z 0041292d f i pack_stubs.obj
 0001:00011963       ?_Check_size@?$_Hash@V?$_Umap_traits@H$$CBUJmpLabel@Xbyak@@V?$_Uhash_compare@HU?$hash@H@std@@U?$equal_to@H@2@@std@@V?$allocator@U?$pair@$$CBH$$CBUJmpLabel@Xbyak@@@std@@@4@$00@std@@@std@@IAEXXZ 00412963 f i pack_stubs.obj
 0001:000119a6       ?_Check_size@?$_Hash@V?$_Umap_traits@V?$basic_string@DU?$char_traits@D@std@@V?$allocator@D@2@@std@@$$CBUJmpLabel@Xbyak@@V?$_Uhash_compare@V?$basic_string@DU?$char_traits@D@std@@V?$allocator@D@2@@std@@U?$hash@V?$basic_string@DU?$char_traits@D@std@@V?$allocator@D@2@@std@@@2@U?$equal_to@V?$basic_string@DU?$char_traits@D@std@@V?$allocator@D@2@@std@@@2@@2@V?$allocator@U?$pair@$$CBV?$basic_string@DU?$char_traits@D@std@@V?$allocator@D@2@@std@@$$CBUJmpLabel@Xbyak@@@std@@@2@$00@std@@@std@@IAEXXZ 004129a6 f i pack_stubs.obj
 0001:000119e9       ?_Check_size@?$_Hash@V?$_Umap_traits@V?$basic_string@DU?$char_traits@D@std@@V?$allocator@D@2@@std@@USlabelVal@LabelManager@Xbyak@@V?$_Uhash_compare@V?$basic_string@DU?$char_traits@D@std@@V?$allocator@D@2@@std@@U?$hash@V?$basic_string@DU?$char_traits@D@std@@V?$allocator@D@2@@std@@@2@U?$equal_to@V?$basic_string@DU?$char_traits@D@std@@V?$allocator@D@2@@std@@@2@@2@V?$allocator@U?$pair@$$CBV?$basic_string@DU?$char_traits@D@std@@V?$allocator@D@2@@std@@USlabelVal@LabelManager@Xbyak@@@std@@@2@$0A@@std@@@std@@IAEXXZ 004129e9 f i pack_stubs.obj
 0001:00011a2c       ?_Construct_lv_contents@?$basic_string@DU?$char_traits@D@std@@V?$allocator@D@2@@std@@QAEXABV12@@Z 00412a2c f i pack_stubs.obj
 0001:00011a86       ?_Destroy_if_node@?$_Hash@V?$_Umap_traits@H$$CBUJmpLabel@Xbyak@@V?$_Uhash_compare@HU?$hash@H@std@@U?$equal_to@H@2@@std@@V?$allocator@U?$pair@$$CBH$$CBUJmpLabel@Xbyak@@@std@@@4@$00@std@@@std@@IAEXV?$_List_unchecked_iterator@V?$_List_val@U?$_List_simple_types@U?$pair@$$CBH$$CBUJmpLabel@Xbyak@@@std@@@std@@@std@@@2@@Z 00412a86 f i pack_stubs.obj
 0001:00011a9d       ?_Destroy_if_node@?$_Hash@V?$_Umap_traits@V?$basic_string@DU?$char_traits@D@std@@V?$allocator@D@2@@std@@$$CBUJmpLabel@Xbyak@@V?$_Uhash_compare@V?$basic_string@DU?$char_traits@D@std@@V?$allocator@D@2@@std@@U?$hash@V?$basic_string@DU?$char_traits@D@std@@V?$allocator@D@2@@std@@@2@U?$equal_to@V?$basic_string@DU?$char_traits@D@std@@V?$allocator@D@2@@std@@@2@@2@V?$allocator@U?$pair@$$CBV?$basic_string@DU?$char_traits@D@std@@V?$allocator@D@2@@std@@$$CBUJmpLabel@Xbyak@@@std@@@2@$00@std@@@std@@IAEXV?$_List_unchecked_iterator@V?$_List_val@U?$_List_simple_types@U?$pair@$$CBV?$basic_string@DU?$char_traits@D@std@@V?$allocator@D@2@@std@@$$CBUJmpLabel@Xbyak@@@std@@@std@@@std@@@2@@Z 00412a9d f i pack_stubs.obj
 0001:00011ab4       ?_Destroy_if_node@?$_Hash@V?$_Umap_traits@V?$basic_string@DU?$char_traits@D@std@@V?$allocator@D@2@@std@@USlabelVal@LabelManager@Xbyak@@V?$_Uhash_compare@V?$basic_string@DU?$char_traits@D@std@@V?$allocator@D@2@@std@@U?$hash@V?$basic_string@DU?$char_traits@D@std@@V?$allocator@D@2@@std@@@2@U?$equal_to@V?$basic_string@DU?$char_traits@D@std@@V?$allocator@D@2@@std@@@2@@2@V?$allocator@U?$pair@$$CBV?$basic_string@DU?$char_traits@D@std@@V?$allocator@D@2@@std@@USlabelVal@LabelManager@Xbyak@@@std@@@2@$0A@@std@@@std@@IAEXV?$_List_unchecked_iterator@V?$_List_val@U?$_List_simple_types@U?$pair@$$CBV?$basic_string@DU?$char_traits@D@std@@V?$allocator@D@2@@std@@USlabelVal@LabelManager@Xbyak@@@std@@@std@@@std@@@2@@Z 00412ab4 f i pack_stubs.obj
 0001:00011acb       ?_End@?$_Hash@V?$_Umap_traits@H$$CBUJmpLabel@Xbyak@@V?$_Uhash_compare@HU?$hash@H@std@@U?$equal_to@H@2@@std@@V?$allocator@U?$pair@$$CBH$$CBUJmpLabel@Xbyak@@@std@@@4@$00@std@@@std@@IAE?AV?$_List_unchecked_iterator@V?$_List_val@U?$_List_simple_types@U?$pair@$$CBH$$CBUJmpLabel@Xbyak@@@std@@@std@@@std@@@2@I@Z 00412acb f i pack_stubs.obj
 0001:00011ae9       ?_End@?$_Hash@V?$_Umap_traits@HUClabelVal@LabelManager@Xbyak@@V?$_Uhash_compare@HU?$hash@H@std@@U?$equal_to@H@2@@std@@V?$allocator@U?$pair@$$CBHUClabelVal@LabelManager@Xbyak@@@std@@@5@$0A@@std@@@std@@IBE?AV?$_List_unchecked_const_iterator@V?$_List_val@U?$_List_simple_types@U?$pair@$$CBHUClabelVal@LabelManager@Xbyak@@@std@@@std@@@std@@U_Iterator_base0@2@@2@I@Z 00412ae9 f i pack_stubs.obj
 0001:00011b07       ?_End@?$_Hash@V?$_Umap_traits@V?$basic_string@DU?$char_traits@D@std@@V?$allocator@D@2@@std@@$$CBUJmpLabel@Xbyak@@V?$_Uhash_compare@V?$basic_string@DU?$char_traits@D@std@@V?$allocator@D@2@@std@@U?$hash@V?$basic_string@DU?$char_traits@D@std@@V?$allocator@D@2@@std@@@2@U?$equal_to@V?$basic_string@DU?$char_traits@D@std@@V?$allocator@D@2@@std@@@2@@2@V?$allocator@U?$pair@$$CBV?$basic_string@DU?$char_traits@D@std@@V?$allocator@D@2@@std@@$$CBUJmpLabel@Xbyak@@@std@@@2@$00@std@@@std@@IAE?AV?$_List_unchecked_iterator@V?$_List_val@U?$_List_simple_types@U?$pair@$$CBV?$basic_string@DU?$char_traits@D@std@@V?$allocator@D@2@@std@@$$CBUJmpLabel@Xbyak@@@std@@@std@@@std@@@2@I@Z 00412b07 f i pack_stubs.obj
 0001:00011b25       ?_End@?$_Hash@V?$_Umap_traits@V?$basic_string@DU?$char_traits@D@std@@V?$allocator@D@2@@std@@USlabelVal@LabelManager@Xbyak@@V?$_Uhash_compare@V?$basic_string@DU?$char_traits@D@std@@V?$allocator@D@2@@std@@U?$hash@V?$basic_string@DU?$char_traits@D@std@@V?$allocator@D@2@@std@@@2@U?$equal_to@V?$basic_string@DU?$char_traits@D@std@@V?$allocator@D@2@@std@@@2@@2@V?$allocator@U?$pair@$$CBV?$basic_string@DU?$char_traits@D@std@@V?$allocator@D@2@@std@@USlabelVal@LabelManager@Xbyak@@@std@@@2@$0A@@std@@@std@@IAE?AV?$_List_unchecked_iterator@V?$_List_val@U?$_List_simple_types@U?$pair@$$CBV?$basic_string@DU?$char_traits@D@std@@V?$allocator@D@2@@std@@USlabelVal@LabelManager@Xbyak@@@std@@@std@@@std@@@2@I@Z 00412b25 f i pack_stubs.obj
 0001:00011b43       ?_End@?$_Hash@V?$_Umap_traits@V?$basic_string@DU?$char_traits@D@std@@V?$allocator@D@2@@std@@USlabelVal@LabelManager@Xbyak@@V?$_Uhash_compare@V?$basic_string@DU?$char_traits@D@std@@V?$allocator@D@2@@std@@U?$hash@V?$basic_string@DU?$char_traits@D@std@@V?$allocator@D@2@@std@@@2@U?$equal_to@V?$basic_string@DU?$char_traits@D@std@@V?$allocator@D@2@@std@@@2@@2@V?$allocator@U?$pair@$$CBV?$basic_string@DU?$char_traits@D@std@@V?$allocator@D@2@@std@@USlabelVal@LabelManager@Xbyak@@@std@@@2@$0A@@std@@@std@@IBE?AV?$_List_unchecked_const_iterator@V?$_List_val@U?$_List_simple_types@U?$pair@$$CBV?$basic_string@DU?$char_traits@D@std@@V?$allocator@D@2@@std@@USlabelVal@LabelManager@Xbyak@@@std@@@std@@@std@@U_Iterator_base0@2@@2@I@Z 00412b43 f i pack_stubs.obj
 0001:00011b61       ?_Equal@?$basic_string@DU?$char_traits@D@std@@V?$allocator@D@2@@std@@QBE_NABV12@@Z 00412b61 f i pack_stubs.obj
 0001:00011b8b       ?_Equal@?$basic_string@DU?$char_traits@D@std@@V?$allocator@D@2@@std@@QBE_NQBD@Z 00412b8b f i pack_stubs.obj
 0001:00011bb8       ?_Erase_bucket@?$_Hash@V?$_Umap_traits@H$$CBUJmpLabel@Xbyak@@V?$_Uhash_compare@HU?$hash@H@std@@U?$equal_to@H@2@@std@@V?$allocator@U?$pair@$$CBH$$CBUJmpLabel@Xbyak@@@std@@@4@$00@std@@@std@@IAEXV?$_List_iterator@V?$_List_val@U?$_List_simple_types@U?$pair@$$CBH$$CBUJmpLabel@Xbyak@@@std@@@std@@@std@@@2@I@Z 00412bb8 f i pack_stubs.obj
 0001:00011bfc       ?_Erase_bucket@?$_Hash@V?$_Umap_traits@V?$basic_string@DU?$char_traits@D@std@@V?$allocator@D@2@@std@@$$CBUJmpLabel@Xbyak@@V?$_Uhash_compare@V?$basic_string@DU?$char_traits@D@std@@V?$allocator@D@2@@std@@U?$hash@V?$basic_string@DU?$char_traits@D@std@@V?$allocator@D@2@@std@@@2@U?$equal_to@V?$basic_string@DU?$char_traits@D@std@@V?$allocator@D@2@@std@@@2@@2@V?$allocator@U?$pair@$$CBV?$basic_string@DU?$char_traits@D@std@@V?$allocator@D@2@@std@@$$CBUJmpLabel@Xbyak@@@std@@@2@$00@std@@@std@@IAEXV?$_List_iterator@V?$_List_val@U?$_List_simple_types@U?$pair@$$CBV?$basic_string@DU?$char_traits@D@std@@V?$allocator@D@2@@std@@$$CBUJmpLabel@Xbyak@@@std@@@std@@@std@@@2@I@Z 00412bfc f i pack_stubs.obj
 0001:00011c40       ?_Erase_bucket@?$_Hash@V?$_Umap_traits@V?$basic_string@DU?$char_traits@D@std@@V?$allocator@D@2@@std@@USlabelVal@LabelManager@Xbyak@@V?$_Uhash_compare@V?$basic_string@DU?$char_traits@D@std@@V?$allocator@D@2@@std@@U?$hash@V?$basic_string@DU?$char_traits@D@std@@V?$allocator@D@2@@std@@@2@U?$equal_to@V?$basic_string@DU?$char_traits@D@std@@V?$allocator@D@2@@std@@@2@@2@V?$allocator@U?$pair@$$CBV?$basic_string@DU?$char_traits@D@std@@V?$allocator@D@2@@std@@USlabelVal@LabelManager@Xbyak@@@std@@@2@$0A@@std@@@std@@IAEXV?$_List_iterator@V?$_List_val@U?$_List_simple_types@U?$pair@$$CBV?$basic_string@DU?$char_traits@D@std@@V?$allocator@D@2@@std@@USlabelVal@LabelManager@Xbyak@@@std@@@std@@@std@@@2@I@Z 00412c40 f i pack_stubs.obj
 0001:00011c84       ?_Fnv1a_append_bytes@std@@YGIIQBEI@Z 00412c84 f i pack_stubs.obj
 0001:00011cae       ?_Freenode@?$_List_buy@U?$pair@$$CBV?$basic_string@DU?$char_traits@D@std@@V?$allocator@D@2@@std@@$$CBUJmpLabel@Xbyak@@@std@@V?$allocator@U?$pair@$$CBV?$basic_string@DU?$char_traits@D@std@@V?$allocator@D@2@@std@@$$CBUJmpLabel@Xbyak@@@std@@@2@@std@@QAEXPAU?$_List_node@U?$pair@$$CBV?$basic_string@DU?$char_traits@D@std@@V?$allocator@D@2@@std@@$$CBUJmpLabel@Xbyak@@@std@@PAX@2@@Z 00412cae f i pack_stubs.obj
 0001:00011cc7       ?_Freenode@?$_List_buy@U?$pair@$$CBV?$basic_string@DU?$char_traits@D@std@@V?$allocator@D@2@@std@@USlabelVal@LabelManager@Xbyak@@@std@@V?$allocator@U?$pair@$$CBV?$basic_string@DU?$char_traits@D@std@@V?$allocator@D@2@@std@@USlabelVal@LabelManager@Xbyak@@@std@@@2@@std@@QAEXPAU?$_List_node@U?$pair@$$CBV?$basic_string@DU?$char_traits@D@std@@V?$allocator@D@2@@std@@USlabelVal@LabelManager@Xbyak@@@std@@PAX@2@@Z 00412cc7 f i pack_stubs.obj
 0001:00011ce0       ?_Freenode@?$_List_buy@USlabelState@LabelManager@Xbyak@@V?$allocator@USlabelState@LabelManager@Xbyak@@@std@@@std@@QAEXPAU?$_List_node@USlabelState@LabelManager@Xbyak@@PAX@2@@Z 00412ce0 f i pack_stubs.obj
 0001:00011cfb       ?_Getal@?$_Vector_alloc@U?$_Vec_base_types@V?$_List_unchecked_iterator@V?$_List_val@U?$_List_simple_types@U?$pair@$$CBH$$CBUJmpLabel@Xbyak@@@std@@@std@@@std@@@std@@V?$allocator@V?$_List_unchecked_iterator@V?$_List_val@U?$_List_simple_types@U?$pair@$$CBH$$CBUJmpLabel@Xbyak@@@std@@@std@@@std@@@std@@@2@@std@@@std@@QAEAAV?$allocator@V?$_List_unchecked_iterator@V?$_List_val@U?$_List_simple_types@U?$pair@$$CBH$$CBUJmpLabel@Xbyak@@@std@@@std@@@std@@@std@@@2@XZ 00412cfb f i pack_stubs.obj
 0001:00011cfe       ?_Getal@?$_Vector_alloc@U?$_Vec_base_types@V?$_List_unchecked_iterator@V?$_List_val@U?$_List_simple_types@U?$pair@$$CBHUClabelVal@LabelManager@Xbyak@@@std@@@std@@@std@@@std@@V?$allocator@V?$_List_unchecked_iterator@V?$_List_val@U?$_List_simple_types@U?$pair@$$CBHUClabelVal@LabelManager@Xbyak@@@std@@@std@@@std@@@std@@@2@@std@@@std@@QAEAAV?$allocator@V?$_List_unchecked_iterator@V?$_List_val@U?$_List_simple_types@U?$pair@$$CBHUClabelVal@LabelManager@Xbyak@@@std@@@std@@@std@@@std@@@2@XZ 00412cfe f i pack_stubs.obj
 0001:00011d01       ?_Getal@?$_Vector_alloc@U?$_Vec_base_types@V?$_List_unchecked_iterator@V?$_List_val@U?$_List_simple_types@U?$pair@$$CBV?$basic_string@DU?$char_traits@D@std@@V?$allocator@D@2@@std@@$$CBUJmpLabel@Xbyak@@@std@@@std@@@std@@@std@@V?$allocator@V?$_List_unchecked_iterator@V?$_List_val@U?$_List_simple_types@U?$pair@$$CBV?$basic_string@DU?$char_traits@D@std@@V?$allocator@D@2@@std@@$$CBUJmpLabel@Xbyak@@@std@@@std@@@std@@@std@@@2@@std@@@std@@QAEAAV?$allocator@V?$_List_unchecked_iterator@V?$_List_val@U?$_List_simple_types@U?$pair@$$CBV?$basic_string@DU?$char_traits@D@std@@V?$allocator@D@2@@std@@$$CBUJmpLabel@Xbyak@@@std@@@std@@@std@@@std@@@2@XZ 00412d01 f i pack_stubs.obj
 0001:00011d04       ?_Getal@?$_Vector_alloc@U?$_Vec_base_types@V?$_List_unchecked_iterator@V?$_List_val@U?$_List_simple_types@U?$pair@$$CBV?$basic_string@DU?$char_traits@D@std@@V?$allocator@D@2@@std@@USlabelVal@LabelManager@Xbyak@@@std@@@std@@@std@@@std@@V?$allocator@V?$_List_unchecked_iterator@V?$_List_val@U?$_List_simple_types@U?$pair@$$CBV?$basic_string@DU?$char_traits@D@std@@V?$allocator@D@2@@std@@USlabelVal@LabelManager@Xbyak@@@std@@@std@@@std@@@std@@@2@@std@@@std@@QAEAAV?$allocator@V?$_List_unchecked_iterator@V?$_List_val@U?$_List_simple_types@U?$pair@$$CBV?$basic_string@DU?$char_traits@D@std@@V?$allocator@D@2@@std@@USlabelVal@LabelManager@Xbyak@@@std@@@std@@@std@@@std@@@2@XZ 00412d04 f i pack_stubs.obj
 0001:00011d07       ?_Incsize@?$list@U?$pair@$$CBH$$CBUJmpLabel@Xbyak@@@std@@V?$allocator@U?$pair@$$CBH$$CBUJmpLabel@Xbyak@@@std@@@2@@std@@QAEXI@Z 00412d07 f i pack_stubs.obj
 0001:00011d2f       ?_Incsize@?$list@U?$pair@$$CBV?$basic_string@DU?$char_traits@D@std@@V?$allocator@D@2@@std@@$$CBUJmpLabel@Xbyak@@@std@@V?$allocator@U?$pair@$$CBV?$basic_string@DU?$char_traits@D@std@@V?$allocator@D@2@@std@@$$CBUJmpLabel@Xbyak@@@std@@@2@@std@@QAEXI@Z 00412d2f f i pack_stubs.obj
 0001:00011d57       ?_Incsize@?$list@U?$pair@$$CBV?$basic_string@DU?$char_traits@D@std@@V?$allocator@D@2@@std@@USlabelVal@LabelManager@Xbyak@@@std@@V?$allocator@U?$pair@$$CBV?$basic_string@DU?$char_traits@D@std@@V?$allocator@D@2@@std@@USlabelVal@LabelManager@Xbyak@@@std@@@2@@std@@QAEXI@Z 00412d57 f i pack_stubs.obj
 0001:00011d7f       ?_Incsize@?$list@UAddrInfo@CodeArray@Xbyak@@V?$allocator@UAddrInfo@CodeArray@Xbyak@@@std@@@std@@QAEXI@Z 00412d7f f i pack_stubs.obj
 0001:00011da7       ?_Incsize@?$list@USlabelState@LabelManager@Xbyak@@V?$allocator@USlabelState@LabelManager@Xbyak@@@std@@@std@@QAEXI@Z 00412da7 f i pack_stubs.obj
 0001:00011dcf       ?_Init@?$_Hash@V?$_Umap_traits@H$$CBUJmpLabel@Xbyak@@V?$_Uhash_compare@HU?$hash@H@std@@U?$equal_to@H@2@@std@@V?$allocator@U?$pair@$$CBH$$CBUJmpLabel@Xbyak@@@std@@@4@$00@std@@@std@@IAEXI@Z 00412dcf f i pack_stubs.obj
 0001:00011e0a       ?_Init@?$_Hash@V?$_Umap_traits@HUClabelVal@LabelManager@Xbyak@@V?$_Uhash_compare@HU?$hash@H@std@@U?$equal_to@H@2@@std@@V?$allocator@U?$pair@$$CBHUClabelVal@LabelManager@Xbyak@@@std@@@5@$0A@@std@@@std@@IAEXI@Z 00412e0a f i pack_stubs.obj
 0001:00011e45       ?_Init@?$_Hash@V?$_Umap_traits@V?$basic_string@DU?$char_traits@D@std@@V?$allocator@D@2@@std@@$$CBUJmpLabel@Xbyak@@V?$_Uhash_compare@V?$basic_string@DU?$char_traits@D@std@@V?$allocator@D@2@@std@@U?$hash@V?$basic_string@DU?$char_traits@D@std@@V?$allocator@D@2@@std@@@2@U?$equal_to@V?$basic_string@DU?$char_traits@D@std@@V?$allocator@D@2@@std@@@2@@2@V?$allocator@U?$pair@$$CBV?$basic_string@DU?$char_traits@D@std@@V?$allocator@D@2@@std@@$$CBUJmpLabel@Xbyak@@@std@@@2@$00@std@@@std@@IAEXI@Z 00412e45 f i pack_stubs.obj
 0001:00011e80       ?_Init@?$_Hash@V?$_Umap_traits@V?$basic_string@DU?$char_traits@D@std@@V?$allocator@D@2@@std@@USlabelVal@LabelManager@Xbyak@@V?$_Uhash_compare@V?$basic_string@DU?$char_traits@D@std@@V?$allocator@D@2@@std@@U?$hash@V?$basic_string@DU?$char_traits@D@std@@V?$allocator@D@2@@std@@@2@U?$equal_to@V?$basic_string@DU?$char_traits@D@std@@V?$allocator@D@2@@std@@@2@@2@V?$allocator@U?$pair@$$CBV?$basic_string@DU?$char_traits@D@std@@V?$allocator@D@2@@std@@USlabelVal@LabelManager@Xbyak@@@std@@@2@$0A@@std@@@std@@IAEXI@Z 00412e80 f i pack_stubs.obj
 0001:00011ebb       ?_Insert_bucket@?$_Hash@V?$_Umap_traits@H$$CBUJmpLabel@Xbyak@@V?$_Uhash_compare@HU?$hash@H@std@@U?$equal_to@H@2@@std@@V?$allocator@U?$pair@$$CBH$$CBUJmpLabel@Xbyak@@@std@@@4@$00@std@@@std@@IAEXV?$_List_unchecked_iterator@V?$_List_val@U?$_List_simple_types@U?$pair@$$CBH$$CBUJmpLabel@Xbyak@@@std@@@std@@@std@@@2@0I@Z 00412ebb f i pack_stubs.obj
 0001:00011f0a       ?_Insert_bucket@?$_Hash@V?$_Umap_traits@V?$basic_string@DU?$char_traits@D@std@@V?$allocator@D@2@@std@@$$CBUJmpLabel@Xbyak@@V?$_Uhash_compare@V?$basic_string@DU?$char_traits@D@std@@V?$allocator@D@2@@std@@U?$hash@V?$basic_string@DU?$char_traits@D@std@@V?$allocator@D@2@@std@@@2@U?$equal_to@V?$basic_string@DU?$char_traits@D@std@@V?$allocator@D@2@@std@@@2@@2@V?$allocator@U?$pair@$$CBV?$basic_string@DU?$char_traits@D@std@@V?$allocator@D@2@@std@@$$CBUJmpLabel@Xbyak@@@std@@@2@$00@std@@@std@@IAEXV?$_List_unchecked_iterator@V?$_List_val@U?$_List_simple_types@U?$pair@$$CBV?$basic_string@DU?$char_traits@D@std@@V?$allocator@D@2@@std@@$$CBUJmpLabel@Xbyak@@@std@@@std@@@std@@@2@0I@Z 00412f0a f i pack_stubs.obj
 0001:00011f59       ?_Insert_bucket@?$_Hash@V?$_Umap_traits@V?$basic_string@DU?$char_traits@D@std@@V?$allocator@D@2@@std@@USlabelVal@LabelManager@Xbyak@@V?$_Uhash_compare@V?$basic_string@DU?$char_traits@D@std@@V?$allocator@D@2@@std@@U?$hash@V?$basic_string@DU?$char_traits@D@std@@V?$allocator@D@2@@std@@@2@U?$equal_to@V?$basic_string@DU?$char_traits@D@std@@V?$allocator@D@2@@std@@@2@@2@V?$allocator@U?$pair@$$CBV?$basic_string@DU?$char_traits@D@std@@V?$allocator@D@2@@std@@USlabelVal@LabelManager@Xbyak@@@std@@@2@$0A@@std@@@std@@IAEXV?$_List_unchecked_iterator@V?$_List_val@U?$_List_simple_types@U?$pair@$$CBV?$basic_string@DU?$char_traits@D@std@@V?$allocator@D@2@@std@@USlabelVal@LabelManager@Xbyak@@@std@@@std@@@std@@@2@0I@Z 00412f59 f i pack_stubs.obj
 0001:00011fa8       ?_Make_iter@?$_Hash@V?$_Umap_traits@H$$CBUJmpLabel@Xbyak@@V?$_Uhash_compare@HU?$hash@H@std@@U?$equal_to@H@2@@std@@V?$allocator@U?$pair@$$CBH$$CBUJmpLabel@Xbyak@@@std@@@4@$00@std@@@std@@QBE?AV?$_List_iterator@V?$_List_val@U?$_List_simple_types@U?$pair@$$CBH$$CBUJmpLabel@Xbyak@@@std@@@std@@@std@@@2@V?$_List_unchecked_const_iterator@V?$_List_val@U?$_List_simple_types@U?$pair@$$CBH$$CBUJmpLabel@Xbyak@@@std@@@std@@@std@@U_Iterator_base0@2@@2@@Z 00412fa8 f i pack_stubs.obj
 0001:00011fb5       ?_Make_iter@?$_Hash@V?$_Umap_traits@V?$basic_string@DU?$char_traits@D@std@@V?$allocator@D@2@@std@@$$CBUJmpLabel@Xbyak@@V?$_Uhash_compare@V?$basic_string@DU?$char_traits@D@std@@V?$allocator@D@2@@std@@U?$hash@V?$basic_string@DU?$char_traits@D@std@@V?$allocator@D@2@@std@@@2@U?$equal_to@V?$basic_string@DU?$char_traits@D@std@@V?$allocator@D@2@@std@@@2@@2@V?$allocator@U?$pair@$$CBV?$basic_string@DU?$char_traits@D@std@@V?$allocator@D@2@@std@@$$CBUJmpLabel@Xbyak@@@std@@@2@$00@std@@@std@@QBE?AV?$_List_iterator@V?$_List_val@U?$_List_simple_types@U?$pair@$$CBV?$basic_string@DU?$char_traits@D@std@@V?$allocator@D@2@@std@@$$CBUJmpLabel@Xbyak@@@std@@@std@@@std@@@2@V?$_List_unchecked_const_iterator@V?$_List_val@U?$_List_simple_types@U?$pair@$$CBV?$basic_string@DU?$char_traits@D@std@@V?$allocator@D@2@@std@@$$CBUJmpLabel@Xbyak@@@std@@@std@@@std@@U_Iterator_base0@2@@2@@Z 00412fb5 f i pack_stubs.obj
 0001:00011fc2       ?_Make_iter@?$_Hash@V?$_Umap_traits@V?$basic_string@DU?$char_traits@D@std@@V?$allocator@D@2@@std@@USlabelVal@LabelManager@Xbyak@@V?$_Uhash_compare@V?$basic_string@DU?$char_traits@D@std@@V?$allocator@D@2@@std@@U?$hash@V?$basic_string@DU?$char_traits@D@std@@V?$allocator@D@2@@std@@@2@U?$equal_to@V?$basic_string@DU?$char_traits@D@std@@V?$allocator@D@2@@std@@@2@@2@V?$allocator@U?$pair@$$CBV?$basic_string@DU?$char_traits@D@std@@V?$allocator@D@2@@std@@USlabelVal@LabelManager@Xbyak@@@std@@@2@$0A@@std@@@std@@QBE?AV?$_List_iterator@V?$_List_val@U?$_List_simple_types@U?$pair@$$CBV?$basic_string@DU?$char_traits@D@std@@V?$allocator@D@2@@std@@USlabelVal@LabelManager@Xbyak@@@std@@@std@@@std@@@2@V?$_List_unchecked_const_iterator@V?$_List_val@U?$_List_simple_types@U?$pair@$$CBV?$basic_string@DU?$char_traits@D@std@@V?$allocator@D@2@@std@@USlabelVal@LabelManager@Xbyak@@@std@@@std@@@std@@U_Iterator_base0@2@@2@@Z 00412fc2 f i pack_stubs.obj
 0001:00011fcf       ?_Reallocate_exactly@?$vector@V?$_List_unchecked_iterator@V?$_List_val@U?$_List_simple_types@U?$pair@$$CBH$$CBUJmpLabel@Xbyak@@@std@@@std@@@std@@@std@@V?$allocator@V?$_List_unchecked_iterator@V?$_List_val@U?$_List_simple_types@U?$pair@$$CBH$$CBUJmpLabel@Xbyak@@@std@@@std@@@std@@@std@@@2@@std@@AAEXI@Z 00412fcf f i pack_stubs.obj
 0001:00012053       ?_Reallocate_exactly@?$vector@V?$_List_unchecked_iterator@V?$_List_val@U?$_List_simple_types@U?$pair@$$CBHUClabelVal@LabelManager@Xbyak@@@std@@@std@@@std@@@std@@V?$allocator@V?$_List_unchecked_iterator@V?$_List_val@U?$_List_simple_types@U?$pair@$$CBHUClabelVal@LabelManager@Xbyak@@@std@@@std@@@std@@@std@@@2@@std@@AAEXI@Z 00413053 f i pack_stubs.obj
 0001:000120d7       ?_Reallocate_exactly@?$vector@V?$_List_unchecked_iterator@V?$_List_val@U?$_List_simple_types@U?$pair@$$CBV?$basic_string@DU?$char_traits@D@std@@V?$allocator@D@2@@std@@$$CBUJmpLabel@Xbyak@@@std@@@std@@@std@@@std@@V?$allocator@V?$_List_unchecked_iterator@V?$_List_val@U?$_List_simple_types@U?$pair@$$CBV?$basic_string@DU?$char_traits@D@std@@V?$allocator@D@2@@std@@$$CBUJmpLabel@Xbyak@@@std@@@std@@@std@@@std@@@2@@std@@AAEXI@Z 004130d7 f i pack_stubs.obj
 0001:0001215b       ?_Reallocate_exactly@?$vector@V?$_List_unchecked_iterator@V?$_List_val@U?$_List_simple_types@U?$pair@$$CBV?$basic_string@DU?$char_traits@D@std@@V?$allocator@D@2@@std@@USlabelVal@LabelManager@Xbyak@@@std@@@std@@@std@@@std@@V?$allocator@V?$_List_unchecked_iterator@V?$_List_val@U?$_List_simple_types@U?$pair@$$CBV?$basic_string@DU?$char_traits@D@std@@V?$allocator@D@2@@std@@USlabelVal@LabelManager@Xbyak@@@std@@@std@@@std@@@std@@@2@@std@@AAEXI@Z 0041315b f i pack_stubs.obj
 0001:000121df       ?_Reinsert@?$_Hash@V?$_Umap_traits@H$$CBUJmpLabel@Xbyak@@V?$_Uhash_compare@HU?$hash@H@std@@U?$equal_to@H@2@@std@@V?$allocator@U?$pair@$$CBH$$CBUJmpLabel@Xbyak@@@std@@@4@$00@std@@@std@@IAEXXZ 004131df f i pack_stubs.obj
 0001:00012210       ?_Reinsert@?$_Hash@V?$_Umap_traits@V?$basic_string@DU?$char_traits@D@std@@V?$allocator@D@2@@std@@$$CBUJmpLabel@Xbyak@@V?$_Uhash_compare@V?$basic_string@DU?$char_traits@D@std@@V?$allocator@D@2@@std@@U?$hash@V?$basic_string@DU?$char_traits@D@std@@V?$allocator@D@2@@std@@@2@U?$equal_to@V?$basic_string@DU?$char_traits@D@std@@V?$allocator@D@2@@std@@@2@@2@V?$allocator@U?$pair@$$CBV?$basic_string@DU?$char_traits@D@std@@V?$allocator@D@2@@std@@$$CBUJmpLabel@Xbyak@@@std@@@2@$00@std@@@std@@IAEXXZ 00413210 f i pack_stubs.obj
 0001:00012241       ?_Reinsert@?$_Hash@V?$_Umap_traits@V?$basic_string@DU?$char_traits@D@std@@V?$allocator@D@2@@std@@USlabelVal@LabelManager@Xbyak@@V?$_Uhash_compare@V?$basic_string@DU?$char_traits@D@std@@V?$allocator@D@2@@std@@U?$hash@V?$basic_string@DU?$char_traits@D@std@@V?$allocator@D@2@@std@@@2@U?$equal_to@V?$basic_string@DU?$char_traits@D@std@@V?$allocator@D@2@@std@@@2@@2@V?$allocator@U?$pair@$$CBV?$basic_string@DU?$char_traits@D@std@@V?$allocator@D@2@@std@@USlabelVal@LabelManager@Xbyak@@@std@@@2@$0A@@std@@@std@@IAEXXZ 00413241 f i pack_stubs.obj
 0001:00012272       ?_Tidy@?$vector@V?$_List_unchecked_iterator@V?$_List_val@U?$_List_simple_types@U?$pair@$$CBH$$CBUJmpLabel@Xbyak@@@std@@@std@@@std@@@std@@V?$allocator@V?$_List_unchecked_iterator@V?$_List_val@U?$_List_simple_types@U?$pair@$$CBH$$CBUJmpLabel@Xbyak@@@std@@@std@@@std@@@std@@@2@@std@@AAEXXZ 00413272 f i pack_stubs.obj
 0001:00012296       ?_Tidy@?$vector@V?$_List_unchecked_iterator@V?$_List_val@U?$_List_simple_types@U?$pair@$$CBHUClabelVal@LabelManager@Xbyak@@@std@@@std@@@std@@@std@@V?$allocator@V?$_List_unchecked_iterator@V?$_List_val@U?$_List_simple_types@U?$pair@$$CBHUClabelVal@LabelManager@Xbyak@@@std@@@std@@@std@@@std@@@2@@std@@AAEXXZ 00413296 f i pack_stubs.obj
 0001:000122ba       ?_Tidy@?$vector@V?$_List_unchecked_iterator@V?$_List_val@U?$_List_simple_types@U?$pair@$$CBV?$basic_string@DU?$char_traits@D@std@@V?$allocator@D@2@@std@@$$CBUJmpLabel@Xbyak@@@std@@@std@@@std@@@std@@V?$allocator@V?$_List_unchecked_iterator@V?$_List_val@U?$_List_simple_types@U?$pair@$$CBV?$basic_string@DU?$char_traits@D@std@@V?$allocator@D@2@@std@@$$CBUJmpLabel@Xbyak@@@std@@@std@@@std@@@std@@@2@@std@@AAEXXZ 004132ba f i pack_stubs.obj
 0001:000122de       ?_Tidy@?$vector@V?$_List_unchecked_iterator@V?$_List_val@U?$_List_simple_types@U?$pair@$$CBV?$basic_string@DU?$char_traits@D@std@@V?$allocator@D@2@@std@@USlabelVal@LabelManager@Xbyak@@@std@@@std@@@std@@@std@@V?$allocator@V?$_List_unchecked_iterator@V?$_List_val@U?$_List_simple_types@U?$pair@$$CBV?$basic_string@DU?$char_traits@D@std@@V?$allocator@D@2@@std@@USlabelVal@LabelManager@Xbyak@@@std@@@std@@@std@@@std@@@2@@std@@AAEXXZ 004132de f i pack_stubs.obj
 0001:00012302       ?_Tidy_deallocate@?$basic_string@DU?$char_traits@D@std@@V?$allocator@D@2@@std@@QAEXXZ 00413302 f i pack_stubs.obj
 0001:00012326       ?_Unchecked_splice@?$list@U?$pair@$$CBH$$CBUJmpLabel@Xbyak@@@std@@V?$allocator@U?$pair@$$CBH$$CBUJmpLabel@Xbyak@@@std@@@2@@std@@QAEXV?$_List_unchecked_const_iterator@V?$_List_val@U?$_List_simple_types@U?$pair@$$CBH$$CBUJmpLabel@Xbyak@@@std@@@std@@@std@@U_Iterator_base0@2@@2@00@Z 00413326 f i pack_stubs.obj
 0001:0001236f       ?_Unchecked_splice@?$list@U?$pair@$$CBV?$basic_string@DU?$char_traits@D@std@@V?$allocator@D@2@@std@@$$CBUJmpLabel@Xbyak@@@std@@V?$allocator@U?$pair@$$CBV?$basic_string@DU?$char_traits@D@std@@V?$allocator@D@2@@std@@$$CBUJmpLabel@Xbyak@@@std@@@2@@std@@QAEXV?$_List_unchecked_const_iterator@V?$_List_val@U?$_List_simple_types@U?$pair@$$CBV?$basic_string@DU?$char_traits@D@std@@V?$allocator@D@2@@std@@$$CBUJmpLabel@Xbyak@@@std@@@std@@@std@@U_Iterator_base0@2@@2@00@Z 0041336f f i pack_stubs.obj
 0001:000123b8       ?_Unchecked_splice@?$list@U?$pair@$$CBV?$basic_string@DU?$char_traits@D@std@@V?$allocator@D@2@@std@@USlabelVal@LabelManager@Xbyak@@@std@@V?$allocator@U?$pair@$$CBV?$basic_string@DU?$char_traits@D@std@@V?$allocator@D@2@@std@@USlabelVal@LabelManager@Xbyak@@@std@@@2@@std@@QAEXV?$_List_unchecked_const_iterator@V?$_List_val@U?$_List_simple_types@U?$pair@$$CBV?$basic_string@DU?$char_traits@D@std@@V?$allocator@D@2@@std@@USlabelVal@LabelManager@Xbyak@@@std@@@std@@@std@@U_Iterator_base0@2@@2@00@Z 004133b8 f i pack_stubs.obj
 0001:00012401       ?_Xlen@?$basic_string@DU?$char_traits@D@std@@V?$allocator@D@2@@std@@SGXXZ 00413401 f i pack_stubs.obj
 0001:0001240c       ?_Xlength@?$vector@V?$_List_unchecked_iterator@V?$_List_val@U?$_List_simple_types@U?$pair@$$CBH$$CBUJmpLabel@Xbyak@@@std@@@std@@@std@@@std@@V?$allocator@V?$_List_unchecked_iterator@V?$_List_val@U?$_List_simple_types@U?$pair@$$CBH$$CBUJmpLabel@Xbyak@@@std@@@std@@@std@@@std@@@2@@std@@CGXXZ 0041340c f i pack_stubs.obj
 0001:00012417       ?_Xlength@?$vector@V?$_List_unchecked_iterator@V?$_List_val@U?$_List_simple_types@U?$pair@$$CBHUClabelVal@LabelManager@Xbyak@@@std@@@std@@@std@@@std@@V?$allocator@V?$_List_unchecked_iterator@V?$_List_val@U?$_List_simple_types@U?$pair@$$CBHUClabelVal@LabelManager@Xbyak@@@std@@@std@@@std@@@std@@@2@@std@@CGXXZ 00413417 f i pack_stubs.obj
 0001:00012422       ?_Xlength@?$vector@V?$_List_unchecked_iterator@V?$_List_val@U?$_List_simple_types@U?$pair@$$CBV?$basic_string@DU?$char_traits@D@std@@V?$allocator@D@2@@std@@$$CBUJmpLabel@Xbyak@@@std@@@std@@@std@@@std@@V?$allocator@V?$_List_unchecked_iterator@V?$_List_val@U?$_List_simple_types@U?$pair@$$CBV?$basic_string@DU?$char_traits@D@std@@V?$allocator@D@2@@std@@$$CBUJmpLabel@Xbyak@@@std@@@std@@@std@@@std@@@2@@std@@CGXXZ 00413422 f i pack_stubs.obj
 0001:0001242d       ?_Xlength@?$vector@V?$_List_unchecked_iterator@V?$_List_val@U?$_List_simple_types@U?$pair@$$CBV?$basic_string@DU?$char_traits@D@std@@V?$allocator@D@2@@std@@USlabelVal@LabelManager@Xbyak@@@std@@@std@@@std@@@std@@V?$allocator@V?$_List_unchecked_iterator@V?$_List_val@U?$_List_simple_types@U?$pair@$$CBV?$basic_string@DU?$char_traits@D@std@@V?$allocator@D@2@@std@@USlabelVal@LabelManager@Xbyak@@@std@@@std@@@std@@@std@@@2@@std@@CGXXZ 0041342d f i pack_stubs.obj
 0001:00012438       ?addUndefinedLabel@LabelManager@Xbyak@@QAEXABV?$basic_string@DU?$char_traits@D@std@@V?$allocator@D@2@@std@@ABUJmpLabel@2@@Z 00413438 f i pack_stubs.obj
 0001:00012486       ?addUndefinedLabel@LabelManager@Xbyak@@QAEXABVLabel@2@ABUJmpLabel@2@@Z 00413486 f i pack_stubs.obj
 0001:000124ba       ?alloc@Allocator@Xbyak@@UAEPAEI@Z 004134ba f i pack_stubs.obj
 0001:000124cd       ?allocate@?$allocator@V?$_List_unchecked_iterator@V?$_List_val@U?$_List_simple_types@U?$pair@$$CBH$$CBUJmpLabel@Xbyak@@@std@@@std@@@std@@@std@@@std@@QAEPAV?$_List_unchecked_iterator@V?$_List_val@U?$_List_simple_types@U?$pair@$$CBH$$CBUJmpLabel@Xbyak@@@std@@@std@@@std@@@2@I@Z 004134cd f i pack_stubs.obj
 0001:000124eb       ?allocate@?$allocator@V?$_List_unchecked_iterator@V?$_List_val@U?$_List_simple_types@U?$pair@$$CBHUClabelVal@LabelManager@Xbyak@@@std@@@std@@@std@@@std@@@std@@QAEPAV?$_List_unchecked_iterator@V?$_List_val@U?$_List_simple_types@U?$pair@$$CBHUClabelVal@LabelManager@Xbyak@@@std@@@std@@@std@@@2@I@Z 004134eb f i pack_stubs.obj
 0001:00012509       ?allocate@?$allocator@V?$_List_unchecked_iterator@V?$_List_val@U?$_List_simple_types@U?$pair@$$CBV?$basic_string@DU?$char_traits@D@std@@V?$allocator@D@2@@std@@$$CBUJmpLabel@Xbyak@@@std@@@std@@@std@@@std@@@std@@QAEPAV?$_List_unchecked_iterator@V?$_List_val@U?$_List_simple_types@U?$pair@$$CBV?$basic_string@DU?$char_traits@D@std@@V?$allocator@D@2@@std@@$$CBUJmpLabel@Xbyak@@@std@@@std@@@std@@@2@I@Z 00413509 f i pack_stubs.obj
 0001:00012527       ?allocate@?$allocator@V?$_List_unchecked_iterator@V?$_List_val@U?$_List_simple_types@U?$pair@$$CBV?$basic_string@DU?$char_traits@D@std@@V?$allocator@D@2@@std@@USlabelVal@LabelManager@Xbyak@@@std@@@std@@@std@@@std@@@std@@QAEPAV?$_List_unchecked_iterator@V?$_List_val@U?$_List_simple_types@U?$pair@$$CBV?$basic_string@DU?$char_traits@D@std@@V?$allocator@D@2@@std@@USlabelVal@LabelManager@Xbyak@@@std@@@std@@@std@@@2@I@Z 00413527 f i pack_stubs.obj
 0001:00012545       ?assign@?$basic_string@DU?$char_traits@D@std@@V?$allocator@D@2@@std@@QAEAAV12@QBDI@Z 00413545 f i pack_stubs.obj
 0001:0001258e       ?assign@?$vector@V?$_List_unchecked_iterator@V?$_List_val@U?$_List_simple_types@U?$pair@$$CBH$$CBUJmpLabel@Xbyak@@@std@@@std@@@std@@@std@@V?$allocator@V?$_List_unchecked_iterator@V?$_List_val@U?$_List_simple_types@U?$pair@$$CBH$$CBUJmpLabel@Xbyak@@@std@@@std@@@std@@@std@@@2@@std@@QAEXIABV?$_List_unchecked_iterator@V?$_List_val@U?$_List_simple_types@U?$pair@$$CBH$$CBUJmpLabel@Xbyak@@@std@@@std@@@std@@@2@@Z 0041358e f i pack_stubs.obj
 0001:00012647       ?assign@?$vector@V?$_List_unchecked_iterator@V?$_List_val@U?$_List_simple_types@U?$pair@$$CBHUClabelVal@LabelManager@Xbyak@@@std@@@std@@@std@@@std@@V?$allocator@V?$_List_unchecked_iterator@V?$_List_val@U?$_List_simple_types@U?$pair@$$CBHUClabelVal@LabelManager@Xbyak@@@std@@@std@@@std@@@std@@@2@@std@@QAEXIABV?$_List_unchecked_iterator@V?$_List_val@U?$_List_simple_types@U?$pair@$$CBHUClabelVal@LabelManager@Xbyak@@@std@@@std@@@std@@@2@@Z 00413647 f i pack_stubs.obj
 0001:00012700       ?assign@?$vector@V?$_List_unchecked_iterator@V?$_List_val@U?$_List_simple_types@U?$pair@$$CBV?$basic_string@DU?$char_traits@D@std@@V?$allocator@D@2@@std@@$$CBUJmpLabel@Xbyak@@@std@@@std@@@std@@@std@@V?$allocator@V?$_List_unchecked_iterator@V?$_List_val@U?$_List_simple_types@U?$pair@$$CBV?$basic_string@DU?$char_traits@D@std@@V?$allocator@D@2@@std@@$$CBUJmpLabel@Xbyak@@@std@@@std@@@std@@@std@@@2@@std@@QAEXIABV?$_List_unchecked_iterator@V?$_List_val@U?$_List_simple_types@U?$pair@$$CBV?$basic_string@DU?$char_traits@D@std@@V?$allocator@D@2@@std@@$$CBUJmpLabel@Xbyak@@@std@@@std@@@std@@@2@@Z 00413700 f i pack_stubs.obj
 0001:000127b9       ?assign@?$vector@V?$_List_unchecked_iterator@V?$_List_val@U?$_List_simple_types@U?$pair@$$CBV?$basic_string@DU?$char_traits@D@std@@V?$allocator@D@2@@std@@USlabelVal@LabelManager@Xbyak@@@std@@@std@@@std@@@std@@V?$allocator@V?$_List_unchecked_iterator@V?$_List_val@U?$_List_simple_types@U?$pair@$$CBV?$basic_string@DU?$char_traits@D@std@@V?$allocator@D@2@@std@@USlabelVal@LabelManager@Xbyak@@@std@@@std@@@std@@@std@@@2@@std@@QAEXIABV?$_List_unchecked_iterator@V?$_List_val@U?$_List_simple_types@U?$pair@$$CBV?$basic_string@DU?$char_traits@D@std@@V?$allocator@D@2@@std@@USlabelVal@LabelManager@Xbyak@@@std@@@std@@@std@@@2@@Z 004137b9 f i pack_stubs.obj
 0001:00012872       ?call@CodeGenerator@Xbyak@@QAEXABVOperand@2@@Z 00413872 f i pack_stubs.obj
 0001:00012892       ?clear@?$list@U?$pair@$$CBH$$CBUJmpLabel@Xbyak@@@std@@V?$allocator@U?$pair@$$CBH$$CBUJmpLabel@Xbyak@@@std@@@2@@std@@QAEXXZ 00413892 f i pack_stubs.obj
 0001:000128bc       ?clear@?$list@U?$pair@$$CBHUClabelVal@LabelManager@Xbyak@@@std@@V?$allocator@U?$pair@$$CBHUClabelVal@LabelManager@Xbyak@@@std@@@2@@std@@QAEXXZ 004138bc f i pack_stubs.obj
 0001:000128e6       ?clear@?$list@U?$pair@$$CBV?$basic_string@DU?$char_traits@D@std@@V?$allocator@D@2@@std@@$$CBUJmpLabel@Xbyak@@@std@@V?$allocator@U?$pair@$$CBV?$basic_string@DU?$char_traits@D@std@@V?$allocator@D@2@@std@@$$CBUJmpLabel@Xbyak@@@std@@@2@@std@@QAEXXZ 004138e6 f i pack_stubs.obj
 0001:00012910       ?clear@?$list@U?$pair@$$CBV?$basic_string@DU?$char_traits@D@std@@V?$allocator@D@2@@std@@USlabelVal@LabelManager@Xbyak@@@std@@V?$allocator@U?$pair@$$CBV?$basic_string@DU?$char_traits@D@std@@V?$allocator@D@2@@std@@USlabelVal@LabelManager@Xbyak@@@std@@@2@@std@@QAEXXZ 00413910 f i pack_stubs.obj
 0001:0001293a       ?clear@?$list@UAddrInfo@CodeArray@Xbyak@@V?$allocator@UAddrInfo@CodeArray@Xbyak@@@std@@@std@@QAEXXZ 0041393a f i pack_stubs.obj
 0001:00012964       ?clear@?$list@USlabelState@LabelManager@Xbyak@@V?$allocator@USlabelState@LabelManager@Xbyak@@@std@@@std@@QAEXXZ 00413964 f i pack_stubs.obj
 0001:0001298e       ?construct@@YGXPAUpointers@@PAUPE@@QAKH@Z 0041398e f   pack_stubs.obj
 0001:00012f90       ?db@Address@Xbyak@@QAEXH@Z 00413f90 f i pack_stubs.obj
 0001:00012fc9       ?db@CodeArray@Xbyak@@QAEXH@Z 00413fc9 f i pack_stubs.obj
 0001:00013012       ?db@CodeArray@Xbyak@@QAEXPBEH@Z 00414012 f i pack_stubs.obj
 0001:0001303c       ?db@CodeArray@Xbyak@@QAEX_KH@Z 0041403c f i pack_stubs.obj
 0001:00013093       ?dd@Address@Xbyak@@QAEXI@Z 00414093 f i pack_stubs.obj
 0001:000130b6       ?deallocate@?$allocator@U?$_List_node@U?$pair@$$CBH$$CBUJmpLabel@Xbyak@@@std@@PAX@std@@@std@@QAEXQAU?$_List_node@U?$pair@$$CBH$$CBUJmpLabel@Xbyak@@@std@@PAX@2@I@Z 004140b6 f i pack_stubs.obj
 0001:000130c8       ?deallocate@?$allocator@U?$_List_node@U?$pair@$$CBHUClabelVal@LabelManager@Xbyak@@@std@@PAX@std@@@std@@QAEXQAU?$_List_node@U?$pair@$$CBHUClabelVal@LabelManager@Xbyak@@@std@@PAX@2@I@Z 004140c8 f i pack_stubs.obj
 0001:000130da       ?deallocate@?$allocator@U?$_List_node@U?$pair@$$CBV?$basic_string@DU?$char_traits@D@std@@V?$allocator@D@2@@std@@$$CBUJmpLabel@Xbyak@@@std@@PAX@std@@@std@@QAEXQAU?$_List_node@U?$pair@$$CBV?$basic_string@DU?$char_traits@D@std@@V?$allocator@D@2@@std@@$$CBUJmpLabel@Xbyak@@@std@@PAX@2@I@Z 004140da f i pack_stubs.obj
 0001:000130ec       ?deallocate@?$allocator@U?$_List_node@U?$pair@$$CBV?$basic_string@DU?$char_traits@D@std@@V?$allocator@D@2@@std@@USlabelVal@LabelManager@Xbyak@@@std@@PAX@std@@@std@@QAEXQAU?$_List_node@U?$pair@$$CBV?$basic_string@DU?$char_traits@D@std@@V?$allocator@D@2@@std@@USlabelVal@LabelManager@Xbyak@@@std@@PAX@2@I@Z 004140ec f i pack_stubs.obj
 0001:000130fe       ?deallocate@?$allocator@U?$_List_node@UAddrInfo@CodeArray@Xbyak@@PAX@std@@@std@@QAEXQAU?$_List_node@UAddrInfo@CodeArray@Xbyak@@PAX@2@I@Z 004140fe f i pack_stubs.obj
 0001:00013110       ?deallocate@?$allocator@U?$_List_node@USlabelState@LabelManager@Xbyak@@PAX@std@@@std@@QAEXQAU?$_List_node@USlabelState@LabelManager@Xbyak@@PAX@2@I@Z 00414110 f i pack_stubs.obj
 0001:00013122       ?deallocate@?$allocator@V?$_List_unchecked_iterator@V?$_List_val@U?$_List_simple_types@U?$pair@$$CBH$$CBUJmpLabel@Xbyak@@@std@@@std@@@std@@@std@@@std@@QAEXQAV?$_List_unchecked_iterator@V?$_List_val@U?$_List_simple_types@U?$pair@$$CBH$$CBUJmpLabel@Xbyak@@@std@@@std@@@std@@@2@I@Z 00414122 f i pack_stubs.obj
 0001:00013136       ?deallocate@?$allocator@V?$_List_unchecked_iterator@V?$_List_val@U?$_List_simple_types@U?$pair@$$CBHUClabelVal@LabelManager@Xbyak@@@std@@@std@@@std@@@std@@@std@@QAEXQAV?$_List_unchecked_iterator@V?$_List_val@U?$_List_simple_types@U?$pair@$$CBHUClabelVal@LabelManager@Xbyak@@@std@@@std@@@std@@@2@I@Z 00414136 f i pack_stubs.obj
 0001:0001314a       ?deallocate@?$allocator@V?$_List_unchecked_iterator@V?$_List_val@U?$_List_simple_types@U?$pair@$$CBV?$basic_string@DU?$char_traits@D@std@@V?$allocator@D@2@@std@@$$CBUJmpLabel@Xbyak@@@std@@@std@@@std@@@std@@@std@@QAEXQAV?$_List_unchecked_iterator@V?$_List_val@U?$_List_simple_types@U?$pair@$$CBV?$basic_string@DU?$char_traits@D@std@@V?$allocator@D@2@@std@@$$CBUJmpLabel@Xbyak@@@std@@@std@@@std@@@2@I@Z 0041414a f i pack_stubs.obj
 0001:0001315e       ?deallocate@?$allocator@V?$_List_unchecked_iterator@V?$_List_val@U?$_List_simple_types@U?$pair@$$CBV?$basic_string@DU?$char_traits@D@std@@V?$allocator@D@2@@std@@USlabelVal@LabelManager@Xbyak@@@std@@@std@@@std@@@std@@@std@@QAEXQAV?$_List_unchecked_iterator@V?$_List_val@U?$_List_simple_types@U?$pair@$$CBV?$basic_string@DU?$char_traits@D@std@@V?$allocator@D@2@@std@@USlabelVal@LabelManager@Xbyak@@@std@@@std@@@std@@@2@I@Z 0041415e f i pack_stubs.obj
 0001:00013172       ?defineSlabel@LabelManager@Xbyak@@QAEXV?$basic_string@DU?$char_traits@D@std@@V?$allocator@D@2@@std@@@Z 00414172 f i pack_stubs.obj
 0001:000132d7       ?erase@?$_Hash@V?$_Umap_traits@H$$CBUJmpLabel@Xbyak@@V?$_Uhash_compare@HU?$hash@H@std@@U?$equal_to@H@2@@std@@V?$allocator@U?$pair@$$CBH$$CBUJmpLabel@Xbyak@@@std@@@4@$00@std@@@std@@QAE?AV?$_List_iterator@V?$_List_val@U?$_List_simple_types@U?$pair@$$CBH$$CBUJmpLabel@Xbyak@@@std@@@std@@@std@@@2@V?$_List_const_iterator@V?$_List_val@U?$_List_simple_types@U?$pair@$$CBH$$CBUJmpLabel@Xbyak@@@std@@@std@@@std@@@2@@Z 004142d7 f i pack_stubs.obj
 0001:00013316       ?erase@?$_Hash@V?$_Umap_traits@V?$basic_string@DU?$char_traits@D@std@@V?$allocator@D@2@@std@@$$CBUJmpLabel@Xbyak@@V?$_Uhash_compare@V?$basic_string@DU?$char_traits@D@std@@V?$allocator@D@2@@std@@U?$hash@V?$basic_string@DU?$char_traits@D@std@@V?$allocator@D@2@@std@@@2@U?$equal_to@V?$basic_string@DU?$char_traits@D@std@@V?$allocator@D@2@@std@@@2@@2@V?$allocator@U?$pair@$$CBV?$basic_string@DU?$char_traits@D@std@@V?$allocator@D@2@@std@@$$CBUJmpLabel@Xbyak@@@std@@@2@$00@std@@@std@@QAE?AV?$_List_iterator@V?$_List_val@U?$_List_simple_types@U?$pair@$$CBV?$basic_string@DU?$char_traits@D@std@@V?$allocator@D@2@@std@@$$CBUJmpLabel@Xbyak@@@std@@@std@@@std@@@2@V?$_List_const_iterator@V?$_List_val@U?$_List_simple_types@U?$pair@$$CBV?$basic_string@DU?$char_traits@D@std@@V?$allocator@D@2@@std@@$$CBUJmpLabel@Xbyak@@@std@@@std@@@std@@@2@@Z 00414316 f i pack_stubs.obj
 0001:0001334e       ?erase@?$_Hash@V?$_Umap_traits@V?$basic_string@DU?$char_traits@D@std@@V?$allocator@D@2@@std@@USlabelVal@LabelManager@Xbyak@@V?$_Uhash_compare@V?$basic_string@DU?$char_traits@D@std@@V?$allocator@D@2@@std@@U?$hash@V?$basic_string@DU?$char_traits@D@std@@V?$allocator@D@2@@std@@@2@U?$equal_to@V?$basic_string@DU?$char_traits@D@std@@V?$allocator@D@2@@std@@@2@@2@V?$allocator@U?$pair@$$CBV?$basic_string@DU?$char_traits@D@std@@V?$allocator@D@2@@std@@USlabelVal@LabelManager@Xbyak@@@std@@@2@$0A@@std@@@std@@QAE?AV?$_List_iterator@V?$_List_val@U?$_List_simple_types@U?$pair@$$CBV?$basic_string@DU?$char_traits@D@std@@V?$allocator@D@2@@std@@USlabelVal@LabelManager@Xbyak@@@std@@@std@@@std@@@2@V?$_List_const_iterator@V?$_List_val@U?$_List_simple_types@U?$pair@$$CBV?$basic_string@DU?$char_traits@D@std@@V?$allocator@D@2@@std@@USlabelVal@LabelManager@Xbyak@@@std@@@std@@@std@@@2@@Z 0041434e f i pack_stubs.obj
 0001:00013386       ?erase@?$list@U?$pair@$$CBH$$CBUJmpLabel@Xbyak@@@std@@V?$allocator@U?$pair@$$CBH$$CBUJmpLabel@Xbyak@@@std@@@2@@std@@QAE?AV?$_List_iterator@V?$_List_val@U?$_List_simple_types@U?$pair@$$CBH$$CBUJmpLabel@Xbyak@@@std@@@std@@@std@@@2@V?$_List_const_iterator@V?$_List_val@U?$_List_simple_types@U?$pair@$$CBH$$CBUJmpLabel@Xbyak@@@std@@@std@@@std@@@2@@Z 00414386 f i pack_stubs.obj
 0001:000133bd       ?erase@?$list@U?$pair@$$CBV?$basic_string@DU?$char_traits@D@std@@V?$allocator@D@2@@std@@$$CBUJmpLabel@Xbyak@@@std@@V?$allocator@U?$pair@$$CBV?$basic_string@DU?$char_traits@D@std@@V?$allocator@D@2@@std@@$$CBUJmpLabel@Xbyak@@@std@@@2@@std@@QAE?AV?$_List_iterator@V?$_List_val@U?$_List_simple_types@U?$pair@$$CBV?$basic_string@DU?$char_traits@D@std@@V?$allocator@D@2@@std@@$$CBUJmpLabel@Xbyak@@@std@@@std@@@std@@@2@V?$_List_const_iterator@V?$_List_val@U?$_List_simple_types@U?$pair@$$CBV?$basic_string@DU?$char_traits@D@std@@V?$allocator@D@2@@std@@$$CBUJmpLabel@Xbyak@@@std@@@std@@@std@@@2@@Z 004143bd f i pack_stubs.obj
 0001:000133f4       ?erase@?$list@U?$pair@$$CBV?$basic_string@DU?$char_traits@D@std@@V?$allocator@D@2@@std@@USlabelVal@LabelManager@Xbyak@@@std@@V?$allocator@U?$pair@$$CBV?$basic_string@DU?$char_traits@D@std@@V?$allocator@D@2@@std@@USlabelVal@LabelManager@Xbyak@@@std@@@2@@std@@QAE?AV?$_List_iterator@V?$_List_val@U?$_List_simple_types@U?$pair@$$CBV?$basic_string@DU?$char_traits@D@std@@V?$allocator@D@2@@std@@USlabelVal@LabelManager@Xbyak@@@std@@@std@@@std@@@2@V?$_List_const_iterator@V?$_List_val@U?$_List_simple_types@U?$pair@$$CBV?$basic_string@DU?$char_traits@D@std@@V?$allocator@D@2@@std@@USlabelVal@LabelManager@Xbyak@@@std@@@std@@@std@@@2@@Z 004143f4 f i pack_stubs.obj
 0001:0001342b       ?free@Allocator@Xbyak@@UAEXPAE@Z 0041442b f i pack_stubs.obj
 0001:00013438       ?functions_fr@@YGXPAUPE@@@Z 00414438 f   pack_stubs.obj
 0001:000136a3       ?functions_lzma@@YGXPAUPE@@@Z 004146a3 f   pack_stubs.obj
 0001:0001393c       ?getId@LabelManager@Xbyak@@ABEHABVLabel@2@@Z 0041493c f i pack_stubs.obj
 0001:00013956       ?getOffset@LabelManager@Xbyak@@QBE_NPAIAAV?$basic_string@DU?$char_traits@D@std@@V?$allocator@D@2@@std@@@Z 00414956 f i pack_stubs.obj
 0001:00013ac6       ?getOffset@LabelManager@Xbyak@@QBE_NPAIABVLabel@2@@Z 00414ac6 f i pack_stubs.obj
 0001:00013aee       ?getRex@Reg@Xbyak@@QBEEABV12@@Z 00414aee f i pack_stubs.obj
 0001:00013b54       ?growMemory@CodeArray@Xbyak@@IAEXXZ 00414b54 f i pack_stubs.obj
 0001:00013bc1       ?hasRex@Reg@Xbyak@@ABE_NXZ 00414bc1 f i pack_stubs.obj
 0001:00013be5       ?is@Operand@Xbyak@@QBE_NHI@Z 00414be5 f i pack_stubs.obj
 0001:00013c07       ?jmp@CodeGenerator@Xbyak@@QAEXABVOperand@2@@Z 00414c07 f i pack_stubs.obj
 0001:00013c27       ?jmp@CodeGenerator@Xbyak@@QAEXV?$basic_string@DU?$char_traits@D@std@@V?$allocator@D@2@@std@@W4LabelType@12@@Z 00414c27 f i pack_stubs.obj
 0001:00013c4d       ?lea@CodeGenerator@Xbyak@@QAEXABUReg32e@2@ABVAddress@2@@Z 00414c4d f i pack_stubs.obj
 0001:00013c6b       ?load_factor@?$_Hash@V?$_Umap_traits@H$$CBUJmpLabel@Xbyak@@V?$_Uhash_compare@HU?$hash@H@std@@U?$equal_to@H@2@@std@@V?$allocator@U?$pair@$$CBH$$CBUJmpLabel@Xbyak@@@std@@@4@$00@std@@@std@@QBEMXZ 00414c6b f i pack_stubs.obj
 0001:00013cb3       ?load_factor@?$_Hash@V?$_Umap_traits@V?$basic_string@DU?$char_traits@D@std@@V?$allocator@D@2@@std@@$$CBUJmpLabel@Xbyak@@V?$_Uhash_compare@V?$basic_string@DU?$char_traits@D@std@@V?$allocator@D@2@@std@@U?$hash@V?$basic_string@DU?$char_traits@D@std@@V?$allocator@D@2@@std@@@2@U?$equal_to@V?$basic_string@DU?$char_traits@D@std@@V?$allocator@D@2@@std@@@2@@2@V?$allocator@U?$pair@$$CBV?$basic_string@DU?$char_traits@D@std@@V?$allocator@D@2@@std@@$$CBUJmpLabel@Xbyak@@@std@@@2@$00@std@@@std@@QBEMXZ 00414cb3 f i pack_stubs.obj
 0001:00013cfb       ?load_factor@?$_Hash@V?$_Umap_traits@V?$basic_string@DU?$char_traits@D@std@@V?$allocator@D@2@@std@@USlabelVal@LabelManager@Xbyak@@V?$_Uhash_compare@V?$basic_string@DU?$char_traits@D@std@@V?$allocator@D@2@@std@@U?$hash@V?$basic_string@DU?$char_traits@D@std@@V?$allocator@D@2@@std@@@2@U?$equal_to@V?$basic_string@DU?$char_traits@D@std@@V?$allocator@D@2@@std@@@2@@2@V?$allocator@U?$pair@$$CBV?$basic_string@DU?$char_traits@D@std@@V?$allocator@D@2@@std@@USlabelVal@LabelManager@Xbyak@@@std@@@2@$0A@@std@@@std@@QBEMXZ 00414cfb f i pack_stubs.obj
 0001:00013d43       ?lower_bound@?$_Hash@V?$_Umap_traits@HUClabelVal@LabelManager@Xbyak@@V?$_Uhash_compare@HU?$hash@H@std@@U?$equal_to@H@2@@std@@V?$allocator@U?$pair@$$CBHUClabelVal@LabelManager@Xbyak@@@std@@@5@$0A@@std@@@std@@QBE?AV?$_List_const_iterator@V?$_List_val@U?$_List_simple_types@U?$pair@$$CBHUClabelVal@LabelManager@Xbyak@@@std@@@std@@@std@@@2@ABH@Z 00414d43 f i pack_stubs.obj
 0001:00013da9       ?lower_bound@?$_Hash@V?$_Umap_traits@V?$basic_string@DU?$char_traits@D@std@@V?$allocator@D@2@@std@@$$CBUJmpLabel@Xbyak@@V?$_Uhash_compare@V?$basic_string@DU?$char_traits@D@std@@V?$allocator@D@2@@std@@U?$hash@V?$basic_string@DU?$char_traits@D@std@@V?$allocator@D@2@@std@@@2@U?$equal_to@V?$basic_string@DU?$char_traits@D@std@@V?$allocator@D@2@@std@@@2@@2@V?$allocator@U?$pair@$$CBV?$basic_string@DU?$char_traits@D@std@@V?$allocator@D@2@@std@@$$CBUJmpLabel@Xbyak@@@std@@@2@$00@std@@@std@@QAE?AV?$_List_iterator@V?$_List_val@U?$_List_simple_types@U?$pair@$$CBV?$basic_string@DU?$char_traits@D@std@@V?$allocator@D@2@@std@@$$CBUJmpLabel@Xbyak@@@std@@@std@@@std@@@2@ABV?$basic_string@DU?$char_traits@D@std@@V?$allocator@D@2@@2@@Z 00414da9 f i pack_stubs.obj
 0001:00013e11       ?lower_bound@?$_Hash@V?$_Umap_traits@V?$basic_string@DU?$char_traits@D@std@@V?$allocator@D@2@@std@@USlabelVal@LabelManager@Xbyak@@V?$_Uhash_compare@V?$basic_string@DU?$char_traits@D@std@@V?$allocator@D@2@@std@@U?$hash@V?$basic_string@DU?$char_traits@D@std@@V?$allocator@D@2@@std@@@2@U?$equal_to@V?$basic_string@DU?$char_traits@D@std@@V?$allocator@D@2@@std@@@2@@2@V?$allocator@U?$pair@$$CBV?$basic_string@DU?$char_traits@D@std@@V?$allocator@D@2@@std@@USlabelVal@LabelManager@Xbyak@@@std@@@2@$0A@@std@@@std@@QAE?AV?$_List_iterator@V?$_List_val@U?$_List_simple_types@U?$pair@$$CBV?$basic_string@DU?$char_traits@D@std@@V?$allocator@D@2@@std@@USlabelVal@LabelManager@Xbyak@@@std@@@std@@@std@@@2@ABV?$basic_string@DU?$char_traits@D@std@@V?$allocator@D@2@@2@@Z 00414e11 f i pack_stubs.obj
 0001:00013e79       ?lower_bound@?$_Hash@V?$_Umap_traits@V?$basic_string@DU?$char_traits@D@std@@V?$allocator@D@2@@std@@USlabelVal@LabelManager@Xbyak@@V?$_Uhash_compare@V?$basic_string@DU?$char_traits@D@std@@V?$allocator@D@2@@std@@U?$hash@V?$basic_string@DU?$char_traits@D@std@@V?$allocator@D@2@@std@@@2@U?$equal_to@V?$basic_string@DU?$char_traits@D@std@@V?$allocator@D@2@@std@@@2@@2@V?$allocator@U?$pair@$$CBV?$basic_string@DU?$char_traits@D@std@@V?$allocator@D@2@@std@@USlabelVal@LabelManager@Xbyak@@@std@@@2@$0A@@std@@@std@@QBE?AV?$_List_const_iterator@V?$_List_val@U?$_List_simple_types@U?$pair@$$CBV?$basic_string@DU?$char_traits@D@std@@V?$allocator@D@2@@std@@USlabelVal@LabelManager@Xbyak@@@std@@@std@@@std@@@2@ABV?$basic_string@DU?$char_traits@D@std@@V?$allocator@D@2@@2@@Z 00414e79 f i pack_stubs.obj
 0001:00013ee1       ?makeAddress@AddressFrame@Xbyak@@ABE?AVAddress@2@ABVRegExp@2@@Z 00414ee1 f i pack_stubs.obj
 0001:000140a5       ?makeJmp@CodeGenerator@Xbyak@@AAEXIW4LabelType@12@EEE@Z 004150a5 f i pack_stubs.obj
 0001:0001413b       ?mov@CodeGenerator@Xbyak@@QAEXABVOperand@2@I@Z 0041513b f i pack_stubs.obj
 0001:0001425d       ?mov_imm@CodeGenerator@Xbyak@@AAEHABVReg@2@I@Z 0041525d f i pack_stubs.obj
 0001:000142d0       ?opAddr@CodeGenerator@Xbyak@@AAEXABVAddress@2@H@Z 004152d0 f i pack_stubs.obj
 0001:0001430c       ?opModM@CodeGenerator@Xbyak@@AAEXABVAddress@2@ABVReg@2@HHHH@Z 0041530c f i pack_stubs.obj
 0001:000143af       ?opModR@CodeGenerator@Xbyak@@AAEXABVReg@2@0HHH@Z 004153af f i pack_stubs.obj
 0001:00014423       ?opPushPop@CodeGenerator@Xbyak@@AAEXABVOperand@2@HHH@Z 00415423 f i pack_stubs.obj
 0001:000144d2       ?opR_ModM@CodeGenerator@Xbyak@@AAEXABVOperand@2@HHHHH_NH@Z 004154d2 f i pack_stubs.obj
 0001:0001459e       ?optimize@RegExp@Xbyak@@QBE?AV12@XZ 0041559e f i pack_stubs.obj
 0001:000145f6       ?reserve@?$vector@V?$_List_unchecked_iterator@V?$_List_val@U?$_List_simple_types@U?$pair@$$CBH$$CBUJmpLabel@Xbyak@@@std@@@std@@@std@@@std@@V?$allocator@V?$_List_unchecked_iterator@V?$_List_val@U?$_List_simple_types@U?$pair@$$CBH$$CBUJmpLabel@Xbyak@@@std@@@std@@@std@@@std@@@2@@std@@QAEXI@Z 004155f6 f i pack_stubs.obj
 0001:0001461c       ?reserve@?$vector@V?$_List_unchecked_iterator@V?$_List_val@U?$_List_simple_types@U?$pair@$$CBHUClabelVal@LabelManager@Xbyak@@@std@@@std@@@std@@@std@@V?$allocator@V?$_List_unchecked_iterator@V?$_List_val@U?$_List_simple_types@U?$pair@$$CBHUClabelVal@LabelManager@Xbyak@@@std@@@std@@@std@@@std@@@2@@std@@QAEXI@Z 0041561c f i pack_stubs.obj
 0001:00014642       ?reserve@?$vector@V?$_List_unchecked_iterator@V?$_List_val@U?$_List_simple_types@U?$pair@$$CBV?$basic_string@DU?$char_traits@D@std@@V?$allocator@D@2@@std@@$$CBUJmpLabel@Xbyak@@@std@@@std@@@std@@@std@@V?$allocator@V?$_List_unchecked_iterator@V?$_List_val@U?$_List_simple_types@U?$pair@$$CBV?$basic_string@DU?$char_traits@D@std@@V?$allocator@D@2@@std@@$$CBUJmpLabel@Xbyak@@@std@@@std@@@std@@@std@@@2@@std@@QAEXI@Z 00415642 f i pack_stubs.obj
 0001:00014668       ?reserve@?$vector@V?$_List_unchecked_iterator@V?$_List_val@U?$_List_simple_types@U?$pair@$$CBV?$basic_string@DU?$char_traits@D@std@@V?$allocator@D@2@@std@@USlabelVal@LabelManager@Xbyak@@@std@@@std@@@std@@@std@@V?$allocator@V?$_List_unchecked_iterator@V?$_List_val@U?$_List_simple_types@U?$pair@$$CBV?$basic_string@DU?$char_traits@D@std@@V?$allocator@D@2@@std@@USlabelVal@LabelManager@Xbyak@@@std@@@std@@@std@@@std@@@2@@std@@QAEXI@Z 00415668 f i pack_stubs.obj
 0001:0001468e       ?reset@LabelManager@Xbyak@@QAEXXZ 0041568e f i pack_stubs.obj
 0001:00014738       ?ret@CodeGenerator@Xbyak@@QAEXH@Z 00415738 f i pack_stubs.obj
 0001:0001476b       ?rewrite@CodeArray@Xbyak@@QAEXI_KI@Z 0041576b f i pack_stubs.obj
 0001:000147d8       ?rex@CodeGenerator@Xbyak@@AAEXABVOperand@2@0@Z 004157d8 f i pack_stubs.obj
 0001:000148c2       ?save@CodeArray@Xbyak@@QAEXIIHW4LabelMode@inner@2@@Z 004158c2 f i pack_stubs.obj
 0001:000148f2       ?set@SReg@RegExp@Xbyak@@QAEXABVReg@3@@Z 004158f2 f i pack_stubs.obj
 0001:00014925       ?useProtect@Allocator@Xbyak@@UBE_NXZ 00415925 f i pack_stubs.obj
 0001:00014928       ?verify@Address@Xbyak@@ABEXXZ 00415928 f i pack_stubs.obj
 0001:0001494f       ?verify@RegExp@Xbyak@@QBEXXZ 0041594f f i pack_stubs.obj
 0001:000149b6       ?verifyMemHasSize@CodeGenerator@Xbyak@@ABEXABVOperand@2@@Z 004159b6 f i pack_stubs.obj
 0001:000149f6       ?what@Error@Xbyak@@UBEPBDXZ 004159f6 f i pack_stubs.obj
 0001:00014a01       ?what@exception@std@@UBEPBDXZ 00415a01 f i pack_stubs.obj
 0001:00014f80       _get_frdepackersize@0      00415f80 f   fr_depacker_x86.obj
 0001:00014f86       _get_frdepackerptr@0       00415f86 f   fr_depacker_x86.obj
 0001:00015100       _get_lzmadepackersize@0    00416100 f   lzma_depacker_x86.obj
 0001:00015106       _get_lzmadepackerptr@0     00416106 f   lzma_depacker_x86.obj
 0001:000155ac       _DecodePointer@4           004165ac f   kernel32:KERNEL32.dll
 0001:000155b2       _GetProcAddress@8          004165b2 f   kernel32:KERNEL32.dll
 0001:000155b8       _RaiseException@16         004165b8 f   kernel32:KERNEL32.dll
 0001:000155be       _GetLastError@0            004165be f   kernel32:KERNEL32.dll
 0001:000155c4       _InitializeCriticalSectionAndSpinCount@8 004165c4 f   kernel32:KERNEL32.dll
 0001:000155ca       _DeleteCriticalSection@4   004165ca f   kernel32:KERNEL32.dll
 0001:000155d0       _GetFileSize@8             004165d0 f   kernel32:KERNEL32.dll
 0001:000155d6       _CloseHandle@4             004165d6 f   kernel32:KERNEL32.dll
 0001:000155dc       _MapViewOfFile@20          004165dc f   kernel32:KERNEL32.dll
 0001:000155e2       _UnmapViewOfFile@4         004165e2 f   kernel32:KERNEL32.dll
 0001:000155e8       _CreateFileMappingA@24     004165e8 f   kernel32:KERNEL32.dll
 0001:000155ee       _LoadLibraryA@4            004165ee f   kernel32:KERNEL32.dll
 0001:000155f4       _CreateFileA@28            004165f4 f   kernel32:KERNEL32.dll
 0001:000155fa       _InterlockedIncrement@4    004165fa f   kernel32:KERNEL32.dll
 0001:00015600       _InterlockedDecrement@4    00416600 f   kernel32:KERNEL32.dll
 0001:00015606       _FreeLibrary@4             00416606 f   kernel32:KERNEL32.dll
 0001:0001560c       _CreateThread@24           0041660c f   kernel32:KERNEL32.dll
 0001:00015612       _GetCurrentThreadId@0      00416612 f   kernel32:KERNEL32.dll
 0001:00015618       _GetThreadId@4             00416618 f   kernel32:KERNEL32.dll
 0001:0001561e       _SetLastError@4            0041661e f   kernel32:KERNEL32.dll
 0001:00015624       _EnterCriticalSection@4    00416624 f   kernel32:KERNEL32.dll
 0001:0001562a       _LeaveCriticalSection@4    0041662a f   kernel32:KERNEL32.dll
 0001:00015630       _WaitForSingleObject@8     00416630 f   kernel32:KERNEL32.dll
 0001:00015636       _LoadResource@8            00416636 f   kernel32:KERNEL32.dll
 0001:0001563c       _SizeofResource@8          0041663c f   kernel32:KERNEL32.dll
 0001:00015642       _GetStdHandle@4            00416642 f   kernel32:KERNEL32.dll
 0001:00015648       _lstrcmpiA@8               00416648 f   kernel32:KERNEL32.dll
 0001:0001564e       _lstrlenA@4                0041664e f   kernel32:KERNEL32.dll
 0001:00015654       _LoadLibraryExA@12         00416654 f   kernel32:KERNEL32.dll
 0001:0001565a       _GetModuleFileNameA@12     0041665a f   kernel32:KERNEL32.dll
 0001:00015660       _GetModuleHandleA@4        00416660 f   kernel32:KERNEL32.dll
 0001:00015666       _FindResourceA@12          00416666 f   kernel32:KERNEL32.dll
 0001:0001566c       _GetVersionExA@4           0041666c f   kernel32:KERNEL32.dll
 0001:00015672       _IsDBCSLeadByte@4          00416672 f   kernel32:KERNEL32.dll
 0001:00015678       _MultiByteToWideChar@24    00416678 f   kernel32:KERNEL32.dll
 0001:0001567e       _WideCharToMultiByte@32    0041667e f   kernel32:KERNEL32.dll
 0001:00015684       _CompareStringA@24         00416684 f   kernel32:KERNEL32.dll
 0001:0001568a       _GetConsoleScreenBufferInfo@8 0041668a f   kernel32:KERNEL32.dll
 0001:00015690       _SetConsoleScreenBufferSize@8 00416690 f   kernel32:KERNEL32.dll
 0001:00015696       _SetConsoleTextAttribute@8 00416696 f   kernel32:KERNEL32.dll
 0001:0001569c       _AllocConsole@0            0041669c f   kernel32:KERNEL32.dll
 0001:000156a2       _AttachConsole@4           004166a2 f   kernel32:KERNEL32.dll
 0001:000156a8       _GetConsoleWindow@0        004166a8 f   kernel32:KERNEL32.dll
 0001:000156ae       _VirtualProtect@16         004166ae f   kernel32:KERNEL32.dll
 0001:000156b4       _UnregisterClassA@8        004166b4 f   user32:USER32.dll
 0001:000156ba       _GetMessageA@16            004166ba f   user32:USER32.dll
 0001:000156c0       _TranslateMessage@4        004166c0 f   user32:USER32.dll
 0001:000156c6       _DispatchMessageA@4        004166c6 f   user32:USER32.dll
 0001:000156cc       _PeekMessageA@20           004166cc f   user32:USER32.dll
 0001:000156d2       _SendMessageA@16           004166d2 f   user32:USER32.dll
 0001:000156d8       _DefWindowProcA@16         004166d8 f   user32:USER32.dll
 0001:000156de       _PostQuitMessage@4         004166de f   user32:USER32.dll
 0001:000156e4       _CallWindowProcA@20        004166e4 f   user32:USER32.dll
 0001:000156ea       _RegisterClassExA@4        004166ea f   user32:USER32.dll
 0001:000156f0       _GetClassInfoExA@12        004166f0 f   user32:USER32.dll
 0001:000156f6       _CreateWindowExA@48        004166f6 f   user32:USER32.dll
 0001:000156fc       _IsWindow@4                004166fc f   user32:USER32.dll
 0001:00015702       _IsChild@8                 00416702 f   user32:USER32.dll
 0001:00015708       _DestroyWindow@4           00416708 f   user32:USER32.dll
 0001:0001570e       _ShowWindow@8              0041670e f   user32:USER32.dll
 0001:00015714       _SetWindowPos@28           00416714 f   user32:USER32.dll
 0001:0001571a       _CreateDialogParamA@20     0041671a f   user32:USER32.dll
 0001:00015720       _GetDlgItem@8              00416720 f   user32:USER32.dll
 0001:00015726       _GetNextDlgTabItem@12      00416726 f   user32:USER32.dll
 0001:0001572c       _GetDlgCtrlID@4            0041672c f   user32:USER32.dll
 0001:00015732       _CharNextA@4               00416732 f   user32:USER32.dll
 0001:00015738       _SetFocus@4                00416738 f   user32:USER32.dll
 0001:0001573e       _GetFocus@0                0041673e f   user32:USER32.dll
 0001:00015744       _SendInput@12              00416744 f   user32:USER32.dll
 0001:0001574a       _GetCapture@0              0041674a f   user32:USER32.dll
 0001:00015750       _SetCapture@4              00416750 f   user32:USER32.dll
 0001:00015756       _ReleaseCapture@0          00416756 f   user32:USER32.dll
 0001:0001575c       _SetTimer@16               0041675c f   user32:USER32.dll
 0001:00015762       _KillTimer@8               00416762 f   user32:USER32.dll
 0001:00015768       _IsWindowEnabled@4         00416768 f   user32:USER32.dll
 0001:0001576e       _DrawTextA@20              0041676e f   user32:USER32.dll
 0001:00015774       _UpdateWindow@4            00416774 f   user32:USER32.dll
 0001:0001577a       _GetForegroundWindow@0     0041677a f   user32:USER32.dll
 0001:00015780       _GetDC@4                   00416780 f   user32:USER32.dll
 0001:00015786       _ReleaseDC@8               00416786 f   user32:USER32.dll
 0001:0001578c       _BeginPaint@8              0041678c f   user32:USER32.dll
 0001:00015792       _EndPaint@8                00416792 f   user32:USER32.dll
 0001:00015798       _InvalidateRect@12         00416798 f   user32:USER32.dll
 0001:0001579e       _SetWindowTextA@8          0041679e f   user32:USER32.dll
 0001:000157a4       _GetWindowTextA@12         004167a4 f   user32:USER32.dll
 0001:000157aa       _GetWindowTextLengthA@4    004167aa f   user32:USER32.dll
 0001:000157b0       _GetClientRect@8           004167b0 f   user32:USER32.dll
 0001:000157b6       _GetWindowRect@8           004167b6 f   user32:USER32.dll
 0001:000157bc       _MessageBoxA@16            004167bc f   user32:USER32.dll
 0001:000157c2       _SetCursor@4               004167c2 f   user32:USER32.dll
 0001:000157c8       _GetCursorPos@4            004167c8 f   user32:USER32.dll
 0001:000157ce       _ScreenToClient@8          004167ce f   user32:USER32.dll
 0001:000157d4       _MapWindowPoints@16        004167d4 f   user32:USER32.dll
 0001:000157da       _GetSysColor@4             004167da f   user32:USER32.dll
 0001:000157e0       _GetSysColorBrush@4        004167e0 f   user32:USER32.dll
 0001:000157e6       _DrawFocusRect@8           004167e6 f   user32:USER32.dll
 0001:000157ec       _FillRect@12               004167ec f   user32:USER32.dll
 0001:000157f2       _SetRectEmpty@4            004167f2 f   user32:USER32.dll
 0001:000157f8       _OffsetRect@12             004167f8 f   user32:USER32.dll
 0001:000157fe       _PtInRect@12               004167fe f   user32:USER32.dll
 0001:00015804       _GetWindowLongA@8          00416804 f   user32:USER32.dll
 0001:0001580a       _SetWindowLongA@12         0041680a f   user32:USER32.dll
 0001:00015810       _GetParent@4               00416810 f   user32:USER32.dll
 0001:00015816       _SetParent@8               00416816 f   user32:USER32.dll
 0001:0001581c       _GetClassNameA@12          0041681c f   user32:USER32.dll
 0001:00015822       _GetWindow@8               00416822 f   user32:USER32.dll
 0001:00015828       _LoadCursorA@8             00416828 f   user32:USER32.dll
 0001:0001582e       _LoadIconA@8               0041682e f   user32:USER32.dll
 0001:00015834       _DestroyIcon@4             00416834 f   user32:USER32.dll
 0001:0001583a       _LoadStringA@16            0041683a f   user32:USER32.dll
 0001:00015840       _IsDialogMessageA@8        00416840 f   user32:USER32.dll
 0001:00015846       _SystemParametersInfoA@16  00416846 f   user32:USER32.dll
 0001:0001584c       _MonitorFromWindow@8       0041684c f   user32:USER32.dll
 0001:00015852       _GetMonitorInfoA@8         00416852 f   user32:USER32.dll
 0001:00015858       _wsprintfA                 00416858 f   user32:USER32.dll
 0001:0001585e       _CombineRgn@16             0041685e f   gdi32:GDI32.dll
 0001:00015864       _CreateFontIndirectA@4     00416864 f   gdi32:GDI32.dll
 0001:0001586a       _CreateRectRgnIndirect@4   0041686a f   gdi32:GDI32.dll
 0001:00015870       _DeleteDC@4                00416870 f   gdi32:GDI32.dll
 0001:00015876       _DeleteObject@4            00416876 f   gdi32:GDI32.dll
 0001:0001587c       _FillRgn@12                0041687c f   gdi32:GDI32.dll
 0001:00015882       _GetStockObject@4          00416882 f   gdi32:GDI32.dll
 0001:00015888       _SelectObject@8            00416888 f   gdi32:GDI32.dll
 0001:0001588e       _SetBkMode@8               0041688e f   gdi32:GDI32.dll
 0001:00015894       _SetTextColor@8            00416894 f   gdi32:GDI32.dll
 0001:0001589a       _GetObjectA@12             0041689a f   gdi32:GDI32.dll
 0001:000158a0       _RegCloseKey@4             004168a0 f   advapi32:ADVAPI32.dll
 0001:000158a6       _RegCreateKeyExA@36        004168a6 f   advapi32:ADVAPI32.dll
 0001:000158ac       _RegDeleteKeyA@8           004168ac f   advapi32:ADVAPI32.dll
 0001:000158b2       _RegDeleteValueA@8         004168b2 f   advapi32:ADVAPI32.dll
 0001:000158b8       _RegEnumKeyExA@32          004168b8 f   advapi32:ADVAPI32.dll
 0001:000158be       _RegOpenKeyExA@20          004168be f   advapi32:ADVAPI32.dll
 0001:000158c4       _RegQueryInfoKeyW@48       004168c4 f   advapi32:ADVAPI32.dll
 0001:000158ca       _RegQueryValueExA@24       004168ca f   advapi32:ADVAPI32.dll
 0001:000158d0       _RegSetValueExA@24         004168d0 f   advapi32:ADVAPI32.dll
 0001:000158d6       _DragQueryFileA@16         004168d6 f   shell32:SHELL32.dll
 0001:000158dc       _DragFinish@4              004168dc f   shell32:SHELL32.dll
 0001:000158e2       _DragAcceptFiles@8         004168e2 f   shell32:SHELL32.dll
 0001:000158e8       _ShellExecuteA@24          004168e8 f   shell32:SHELL32.dll
 0001:000158ee       _CoInitialize@4            004168ee f   ole32:ole32.dll
 0001:000158f4       _CoUninitialize@0          004168f4 f   ole32:ole32.dll
 0001:000158fa       _CoCreateInstance@20       004168fa f   ole32:ole32.dll
 0001:00015900       _CoTaskMemAlloc@4          00416900 f   ole32:ole32.dll
 0001:00015906       _CoTaskMemRealloc@8        00416906 f   ole32:ole32.dll
 0001:0001590c       _CoTaskMemFree@4           0041690c f   ole32:ole32.dll
 0001:00015912       _SysFreeString@4           00416912 f   oleaut32:OLEAUT32.dll
 0001:00015918       _VarUI4FromStr@16          00416918 f   oleaut32:OLEAUT32.dll
 0001:0001591e       ??2@YAPAXI@Z               0041691e f   LIBCMT:new_scalar.obj
 0001:0001594e       ??3@YAXPAXI@Z              0041694e f   LIBCMT:delete_scalar_size.obj
 0001:0001595c       ??_U@YAPAXI@Z              0041695c f   LIBCMT:new_array.obj
 0001:00015965       ??_V@YAXPAX@Z              00416965 f   LIBCMT:delete_array.obj
 0001:00015970       ___vdecl_log2              00416970 f   LIBCMT:svml_dlog2_dispatch.obj
 0001:00015980       __chkstk                   00416980 f   LIBCMT:chkstk.obj
 0001:00015980       __alloca_probe             00416980 f   LIBCMT:chkstk.obj
 0001:000159ad       ??1type_info@@UAE@XZ       004169ad f   LIBCMT:std_type_info_static.obj
 0001:000159b4       ??_Gtype_info@@UAEPAXI@Z   004169b4 f i LIBCMT:std_type_info_static.obj
 0001:000159b4       ??_Etype_info@@UAEPAXI@Z   004169b4 f i LIBCMT:std_type_info_static.obj
 0001:000159e0       __aullshr                  004169e0 f   LIBCMT:ullshr.obj
 0001:000159ff       ??_V@YAXPAXI@Z             004169ff f   LIBCMT:delete_array_size.obj
 0001:00015a0d       ??$__crt_fast_decode_pointer@PAP6AXXZ@@YAPAP6AXXZQAP6AXXZ@Z 00416a0d f i LIBCMT:utility.obj
 0001:00015a21       ??$__crt_fast_encode_pointer@PAP6AXXZ@@YAPAP6AXXZQAP6AXXZ@Z 00416a21 f i LIBCMT:utility.obj
 0001:00015a3e       ?__crt_rotate_pointer_value@@YAIIH@Z 00416a3e f i LIBCMT:utility.obj
 0001:00015a4b       ?configure_argv@__scrt_narrow_argv_policy@@SAHXZ 00416a4b f i LIBCMT:utility.obj
 0001:00015a9c       ?initialize_environment@__scrt_narrow_environment_policy@@SAHXZ 00416a9c f i LIBCMT:utility.obj
 0001:00015ad5       _NtCurrentTeb              00416ad5 f i LIBCMT:utility.obj
 0001:00015adc       ___scrt_acquire_startup_lock 00416adc f   LIBCMT:utility.obj
 0001:00015b0e       ___scrt_dllmain_after_initialize_c 00416b0e f   LIBCMT:utility.obj
 0001:00015b39       ___scrt_dllmain_before_initialize_c 00416b39 f   LIBCMT:utility.obj
 0001:00015b47       ___scrt_dllmain_crt_thread_attach 00416b47 f   LIBCMT:utility.obj
 0001:00015b66       ___scrt_dllmain_crt_thread_detach 00416b66 f   LIBCMT:utility.obj
 0001:00015b73       ___scrt_dllmain_exception_filter 00416b73 f   LIBCMT:utility.obj
 0001:00015ba7       ___scrt_dllmain_uninitialize_c 00416ba7 f   LIBCMT:utility.obj
 0001:00015bca       ___scrt_dllmain_uninitialize_critical 00416bca f   LIBCMT:utility.obj
 0001:00015bd7       ___scrt_initialize_crt     00416bd7 f   LIBCMT:utility.obj
 0001:00015c10       ___scrt_initialize_onexit_tables 00416c10 f   LIBCMT:utility.obj
 0001:00015cb5       ___scrt_is_nonwritable_in_current_image 00416cb5 f   LIBCMT:utility.obj
 0001:00015d49       ___scrt_release_startup_lock 00416d49 f   LIBCMT:utility.obj
 0001:00015d66       ___scrt_uninitialize_crt   00416d66 f   LIBCMT:utility.obj
 0001:00015d8e       __onexit                   00416d8e f   LIBCMT:utility.obj
 0001:00015dc9       _at_quick_exit             00416dc9 f   LIBCMT:utility.obj
 0001:00015dfa       _atexit                    00416dfa f   LIBCMT:utility.obj
 0001:00015e0f       ??3@YAXPAX@Z               00416e0f f   LIBCMT:delete_scalar.obj
 0001:00015e14       __EH_prolog                00416e14 f   LIBCMT:ehprolog.obj
 0001:00015e34       ??_U@YAPAXIABUnothrow_t@std@@@Z 00416e34 f   LIBCMT:new_array_nothrow.obj
 0001:00015e40       __SEH_prolog               00416e40 f   LIBCMT:sehprolg.obj
 0001:00015e7c       __SEH_epilog               00416e7c f   LIBCMT:sehprolg.obj
 0001:00015e90       __alloca_probe_16          00416e90 f   LIBCMT:alloca16.obj
 0001:00015ea6       __alloca_probe_8           00416ea6     LIBCMT:alloca16.obj
 0001:00015ec0       __allshr                   00416ec0 f   LIBCMT:llshr.obj
 0001:0001614b       ?set_app_type@__scrt_winmain_policy@@SAXXZ 0041714b f i LIBCMT:exe_winmain.obj
 0001:00016154       ?set_commode@__scrt_file_policy@@SAXXZ 00417154 f i LIBCMT:exe_winmain.obj
 0001:00016165       ?set_fmode@__scrt_file_policy@@SAXXZ 00417165 f i LIBCMT:exe_winmain.obj
 0001:00016172       _WinMainCRTStartup         00417172 f   LIBCMT:exe_winmain.obj
 0001:0001617c       ??0bad_alloc@std@@AAE@QBD@Z 0041717c f i LIBCMT:throw_bad_alloc.obj
 0001:00016199       ??0bad_alloc@std@@QAE@ABV01@@Z 00417199 f i LIBCMT:throw_bad_alloc.obj
 0001:000161b4       ??0bad_alloc@std@@QAE@XZ   004171b4 f i LIBCMT:throw_bad_alloc.obj
 0001:000161cc       ??0bad_array_new_length@std@@QAE@ABV01@@Z 004171cc f i LIBCMT:throw_bad_alloc.obj
 0001:000161e7       ??0bad_array_new_length@std@@QAE@XZ 004171e7 f i LIBCMT:throw_bad_alloc.obj
 0001:000161ff       ??0exception@std@@QAE@QBDH@Z 004171ff f i LIBCMT:throw_bad_alloc.obj
 0001:0001621c       ??1bad_alloc@std@@UAE@XZ   0041721c f i LIBCMT:throw_bad_alloc.obj
 0001:0001622d       ??1bad_array_new_length@std@@UAE@XZ 0041722d f i LIBCMT:throw_bad_alloc.obj
 0001:0001623e       ??_Ebad_alloc@std@@UAEPAXI@Z 0041723e f i LIBCMT:throw_bad_alloc.obj
 0001:0001623e       ??_Gbad_alloc@std@@UAEPAXI@Z 0041723e f i LIBCMT:throw_bad_alloc.obj
 0001:0001626b       ??_Ebad_array_new_length@std@@UAEPAXI@Z 0041726b f i LIBCMT:throw_bad_alloc.obj
 0001:0001626b       ??_Gbad_array_new_length@std@@UAEPAXI@Z 0041726b f i LIBCMT:throw_bad_alloc.obj
 0001:00016298       ?__scrt_throw_std_bad_alloc@@YAXXZ 00417298 f   LIBCMT:throw_bad_alloc.obj
 0001:000162b5       ?__scrt_throw_std_bad_array_new_length@@YAXXZ 004172b5 f   LIBCMT:throw_bad_alloc.obj
 0001:000162e0       ___sse2_log2               004172e0 f   LIBCMT:svml_dlog2_sse2.obj
 0001:000164b0       ___isa_available_init      004174b0 f   LIBCMT:cpu_disp.obj
 0001:00016647       __get_startup_argv_mode    00417647 f   LIBCMT:argv_mode.obj
 0001:0001664b       ___scrt_is_ucrt_dll_in_use 0041764b f   LIBCMT:ucrt_detection.obj
 0001:00016657       ___scrt_fastfail           00417657 f   LIBCMT:utility_desktop.obj
 0001:00016771       ___scrt_get_show_window_mode 00417771 f   LIBCMT:utility_desktop.obj
 0001:000167a2       ___scrt_initialize_mta     004177a2 f   LIBCMT:utility_desktop.obj
 0001:000167a7       ___scrt_initialize_winrt   004177a7 f   LIBCMT:utility_desktop.obj
 0001:000167aa       ___scrt_is_managed_app     004177aa f   LIBCMT:utility_desktop.obj
 0001:000167ed       ___scrt_set_unhandled_exception_filter 004177ed f   LIBCMT:utility_desktop.obj
 0001:000167f9       ___scrt_exe_initialize_mta 004177f9 f   LIBCMT:utility_desktop.obj
 0001:000167f9       ___scrt_stub_for_initialize_mta 004177f9 f   LIBCMT:utility_desktop.obj
 0001:000167fc       ___scrt_unhandled_exception_filter@4 004177fc f   LIBCMT:utility_desktop.obj
 0001:0001683d       __crt_debugger_hook        0041783d f   LIBCMT:utility_desktop.obj
 0001:00016850       __SEH_prolog4              00417850 f   LIBCMT:sehprolg4.obj
 0001:00016896       __SEH_epilog4              00417896 f   LIBCMT:sehprolg4.obj
 0001:000168ab       @_guard_check_icall_nop@4  004178ab f i LIBCMT:guard_support.obj
 0001:000168ac       _ReadNoFence               004178ac f i LIBCMT:guard_support.obj
 0001:000168b6       _ReadPointerNoFence        004178b6 f i LIBCMT:guard_support.obj
 0001:000168c0       __guard_icall_checks_enforced 004178c0 f i LIBCMT:guard_support.obj
 0001:000168d2       ??2@YAPAXIABUnothrow_t@std@@@Z 004178d2 f   LIBCMT:new_scalar_nothrow.obj
 0001:0001696f       ___security_init_cookie    0041796f f   LIBCMT:gs_support.obj
 0001:000169ba       __matherr                  004179ba f   LIBCMT:matherr.obj
 0001:000169bd       __get_startup_commit_mode  004179bd f   LIBCMT:commit_mode.obj
 0001:000169c0       __get_startup_file_mode    004179c0 f   LIBCMT:file_mode.obj
 0001:000169c6       __get_startup_new_mode     004179c6 f   LIBCMT:new_mode.obj
 0001:000169c9       __get_startup_thread_locale_mode 004179c9 f   LIBCMT:thread_locale.obj
 0001:000169cc       ?__scrt_initialize_type_info@@YAXXZ 004179cc f   LIBCMT:tncleanup.obj
 0001:000169d8       ?__scrt_uninitialize_type_info@@YAXXZ 004179d8 f   LIBCMT:tncleanup.obj
 0001:000169e4       __should_initialize_environment 004179e4 f   LIBCMT:env_mode.obj
 0001:000169e7       __initialize_default_precision 004179e7 f   LIBCMT:default_precision.obj
 0001:00016a08       __initialize_invalid_parameter_handler 00417a08 f   LIBCMT:invalid_parameter_handler.obj
 0001:00016a09       __initialize_denormal_control 00417a09 f   LIBCMT:denormal_control.obj
 0001:00016a0a       ___scrt_initialize_default_local_stdio_options 00417a0a f   LIBCMT:default_local_stdio_options.obj
 0001:00016a27       ___scrt_is_user_matherr_present 00417a27 f   LIBCMT:matherr_detection.obj
 0001:00016a33       ___scrt_get_dyn_tls_init_callback 00417a33 f   LIBCMT:dyn_tls_init.obj
 0001:00016a39       ___scrt_get_dyn_tls_dtor_callback 00417a39 f   LIBCMT:dyn_tls_dtor.obj
 0001:00016a3f       __RTC_Initialize           00417a3f f   LIBCMT:initsect.obj
 0001:00016a6b       __RTC_Terminate            00417a6b f   LIBCMT:initsect.obj
 0001:00016a97       @__security_check_cookie@4 00417a97 f   LIBCMT:secchk.obj
 0001:00016aa8       ___raise_securityfailure   00417aa8 f   LIBCMT:gs_report.obj
 0001:00016ad0       ___report_gsfailure        00417ad0 f   LIBCMT:gs_report.obj
 0001:00016bc9       ___report_rangecheckfailure 00417bc9 f   LIBCMT:gs_report.obj
 0001:00016bd5       ___report_securityfailure  00417bd5 f   LIBCMT:gs_report.obj
 0001:00016ca3       ___report_securityfailureEx 00417ca3 f   LIBCMT:gs_report.obj
 0001:00016db7       ??0bad_function_call@std@@QAE@ABV01@@Z 00417db7 f i libcpmt:xthrow.obj
 0001:00016dd2       ??0bad_function_call@std@@QAE@XZ 00417dd2 f i libcpmt:xthrow.obj
 0001:00016de3       ??0exception@std@@QAE@QBD@Z 00417de3 f i libcpmt:xthrow.obj
 0001:00016e18       ??0exception@std@@QAE@XZ   00417e18 f i libcpmt:xthrow.obj
 0001:00016e29       ??0invalid_argument@std@@QAE@ABV01@@Z 00417e29 f i libcpmt:xthrow.obj
 0001:00016e44       ??0invalid_argument@std@@QAE@PBD@Z 00417e44 f i libcpmt:xthrow.obj
 0001:00016e63       ??0length_error@std@@QAE@ABV01@@Z 00417e63 f i libcpmt:xthrow.obj
 0001:00016e7e       ??0length_error@std@@QAE@PBD@Z 00417e7e f i libcpmt:xthrow.obj
 0001:00016e9d       ??0logic_error@std@@QAE@ABV01@@Z 00417e9d f i libcpmt:xthrow.obj
 0001:00016eb8       ??0logic_error@std@@QAE@PBD@Z 00417eb8 f i libcpmt:xthrow.obj
 0001:00016ed7       ??0out_of_range@std@@QAE@ABV01@@Z 00417ed7 f i libcpmt:xthrow.obj
 0001:00016ef2       ??0out_of_range@std@@QAE@PBD@Z 00417ef2 f i libcpmt:xthrow.obj
 0001:00016f11       ??0overflow_error@std@@QAE@ABV01@@Z 00417f11 f i libcpmt:xthrow.obj
 0001:00016f2c       ??0overflow_error@std@@QAE@PBD@Z 00417f2c f i libcpmt:xthrow.obj
 0001:00016f4b       ??0regex_error@std@@QAE@ABV01@@Z 00417f4b f i libcpmt:xthrow.obj
 0001:00016f6f       ??0regex_error@std@@QAE@W4error_type@regex_constants@1@@Z 00417f6f f i libcpmt:xthrow.obj
 0001:00016f9d       ??0runtime_error@std@@QAE@ABV01@@Z 00417f9d f i libcpmt:xthrow.obj
 0001:00016fb8       ??0runtime_error@std@@QAE@PBD@Z 00417fb8 f i libcpmt:xthrow.obj
 0001:00016fd7       ??1bad_function_call@std@@UAE@XZ 00417fd7 f i libcpmt:xthrow.obj
 0001:00016fe8       ??1invalid_argument@std@@UAE@XZ 00417fe8 f i libcpmt:xthrow.obj
 0001:00016ffb       ??1length_error@std@@UAE@XZ 00417ffb f i libcpmt:xthrow.obj
 0001:0001700c       ??1logic_error@std@@UAE@XZ 0041800c f i libcpmt:xthrow.obj
 0001:0001701d       ??1out_of_range@std@@UAE@XZ 0041801d f i libcpmt:xthrow.obj
 0001:0001702e       ??1overflow_error@std@@UAE@XZ 0041802e f i libcpmt:xthrow.obj
 0001:0001703f       ??1regex_error@std@@UAE@XZ 0041803f f i libcpmt:xthrow.obj
 0001:00017050       ??1runtime_error@std@@UAE@XZ 00418050 f i libcpmt:xthrow.obj
 0001:00017061       ??_Ebad_function_call@std@@UAEPAXI@Z 00418061 f i libcpmt:xthrow.obj
 0001:00017061       ??_Gbad_function_call@std@@UAEPAXI@Z 00418061 f i libcpmt:xthrow.obj
 0001:0001708e       ??_Einvalid_argument@std@@UAEPAXI@Z 0041808e f i libcpmt:xthrow.obj
 0001:0001708e       ??_Ginvalid_argument@std@@UAEPAXI@Z 0041808e f i libcpmt:xthrow.obj
 0001:000170bb       ??_Glength_error@std@@UAEPAXI@Z 004180bb f i libcpmt:xthrow.obj
 0001:000170bb       ??_Elength_error@std@@UAEPAXI@Z 004180bb f i libcpmt:xthrow.obj
 0001:000170e8       ??_Elogic_error@std@@UAEPAXI@Z 004180e8 f i libcpmt:xthrow.obj
 0001:000170e8       ??_Glogic_error@std@@UAEPAXI@Z 004180e8 f i libcpmt:xthrow.obj
 0001:00017115       ??_Gout_of_range@std@@UAEPAXI@Z 00418115 f i libcpmt:xthrow.obj
 0001:00017115       ??_Eout_of_range@std@@UAEPAXI@Z 00418115 f i libcpmt:xthrow.obj
 0001:00017142       ??_Goverflow_error@std@@UAEPAXI@Z 00418142 f i libcpmt:xthrow.obj
 0001:00017142       ??_Eoverflow_error@std@@UAEPAXI@Z 00418142 f i libcpmt:xthrow.obj
 0001:0001716f       ??_Gregex_error@std@@UAEPAXI@Z 0041816f f i libcpmt:xthrow.obj
 0001:0001716f       ??_Eregex_error@std@@UAEPAXI@Z 0041816f f i libcpmt:xthrow.obj
 0001:0001719c       ??_Eruntime_error@std@@UAEPAXI@Z 0041819c f i libcpmt:xthrow.obj
 0001:0001719c       ??_Gruntime_error@std@@UAEPAXI@Z 0041819c f i libcpmt:xthrow.obj
 0001:000171c9       ?_Stringify@regex_error@std@@CAPBDW4error_type@regex_constants@2@@Z 004181c9 f i libcpmt:xthrow.obj
 0001:00017289       ?_Xbad_alloc@std@@YAXXZ    00418289 f   libcpmt:xthrow.obj
 0001:000172a6       ?_Xbad_function_call@std@@YAXXZ 004182a6 f   libcpmt:xthrow.obj
 0001:000172c3       ?_Xinvalid_argument@std@@YAXPBD@Z 004182c3 f   libcpmt:xthrow.obj
 0001:000172e3       ?_Xlength_error@std@@YAXPBD@Z 004182e3 f   libcpmt:xthrow.obj
 0001:00017303       ?_Xout_of_range@std@@YAXPBD@Z 00418303 f   libcpmt:xthrow.obj
 0001:00017323       ?_Xoverflow_error@std@@YAXPBD@Z 00418323 f   libcpmt:xthrow.obj
 0001:00017343       ?_Xregex_error@std@@YAXW4error_type@regex_constants@1@@Z 00418343 f   libcpmt:xthrow.obj
 0001:00017363       ?_Xruntime_error@std@@YAXPBD@Z 00418363 f   libcpmt:xthrow.obj
 0001:00017383       ?what@bad_function_call@std@@UBEPBDXZ 00418383 f i libcpmt:xthrow.obj
 0001:00017389       ??$?2PAUHINSTANCE__@@@Wrapper@?$CSimpleArray@PAUHINSTANCE__@@V?$CSimpleArrayEqualHelper@PAUHINSTANCE__@@@ATL@@@ATL@@SAPAXIPAPAUHINSTANCE__@@@Z 00418389 f i atls:atlbase.obj
 0001:00017391       ??0?$CComCritSecLock@VCComCriticalSection@ATL@@@ATL@@QAE@AAVCComCriticalSection@1@_N@Z 00418391 f i atls:atlbase.obj
 0001:000173b8       ??0?$CSimpleArray@PAUHINSTANCE__@@V?$CSimpleArrayEqualHelper@PAUHINSTANCE__@@@ATL@@@ATL@@QAE@XZ 004183b8 f i atls:atlbase.obj
 0001:000173c5       ??0CAtlBaseModule@ATL@@QAE@XZ 004183c5 f   atls:atlbase.obj
 0001:00017418       ??0CComCriticalSection@ATL@@QAE@XZ 00418418 f i atls:atlbase.obj
 0001:0001742c       ??0Wrapper@?$CSimpleArray@PAUHINSTANCE__@@V?$CSimpleArrayEqualHelper@PAUHINSTANCE__@@@ATL@@@ATL@@QAE@ABQAUHINSTANCE__@@@Z 0041842c f i atls:atlbase.obj
 0001:0001743c       ??0_ATL_BASE_MODULE70@ATL@@QAE@XZ 0041843c f i atls:atlbase.obj
 0001:0001745f       ??1?$CSimpleArray@PAUHINSTANCE__@@V?$CSimpleArrayEqualHelper@PAUHINSTANCE__@@@ATL@@@ATL@@QAE@XZ 0041845f f i atls:atlbase.obj
 0001:00017464       ??1CAtlBaseModule@ATL@@QAE@XZ 00418464 f   atls:atlbase.obj
 0001:0001747a       ??1CComCriticalSection@ATL@@QAE@XZ 0041847a f i atls:atlbase.obj
 0001:0001747b       ??1_ATL_BASE_MODULE70@ATL@@QAE@XZ 0041847b f i atls:atlbase.obj
 0001:00017483       ??A?$CSimpleArray@PAUHINSTANCE__@@V?$CSimpleArrayEqualHelper@PAUHINSTANCE__@@@ATL@@@ATL@@QAEAAPAUHINSTANCE__@@H@Z 00418483 f i atls:atlbase.obj
 0001:000174a8       ?Add@?$CSimpleArray@PAUHINSTANCE__@@V?$CSimpleArrayEqualHelper@PAUHINSTANCE__@@@ATL@@@ATL@@QAEHABQAUHINSTANCE__@@@Z 004184a8 f i atls:atlbase.obj
 0001:0001752a       ?AddResourceInstance@CAtlBaseModule@ATL@@QAE_NPAUHINSTANCE__@@@Z 0041852a f   atls:atlbase.obj
 0001:0001755d       ?AtlCrtErrorCheck@ATL@@YAHH@Z 0041855d f i atls:atlbase.obj
 0001:00017598       ?GetHInstanceAt@CAtlBaseModule@ATL@@QAEPAUHINSTANCE__@@H@Z 00418598 f   atls:atlbase.obj
 0001:000175dd       ?GetSize@?$CSimpleArray@PAUHINSTANCE__@@V?$CSimpleArrayEqualHelper@PAUHINSTANCE__@@@ATL@@@ATL@@QBEHXZ 004185dd f i atls:atlbase.obj
 0001:000175e1       ?InternalSetAtIndex@?$CSimpleArray@PAUHINSTANCE__@@V?$CSimpleArrayEqualHelper@PAUHINSTANCE__@@@ATL@@@ATL@@QAEXHABQAUHINSTANCE__@@@Z 004185e1 f i atls:atlbase.obj
 0001:000175fb       ?Lock@?$CComCritSecLock@VCComCriticalSection@ATL@@@ATL@@QAEJXZ 004185fb f i atls:atlbase.obj
 0001:0001760e       ?Lock@CComCriticalSection@ATL@@QAEJXZ 0041860e f i atls:atlbase.obj
 0001:00017618       ?RemoveAll@?$CSimpleArray@PAUHINSTANCE__@@V?$CSimpleArrayEqualHelper@PAUHINSTANCE__@@@ATL@@@ATL@@QAEXXZ 00418618 f i atls:atlbase.obj
 0001:00017635       ?RemoveAt@?$CSimpleArray@PAUHINSTANCE__@@V?$CSimpleArrayEqualHelper@PAUHINSTANCE__@@@ATL@@@ATL@@QAEHH@Z 00418635 f i atls:atlbase.obj
 0001:00017683       ?RemoveResourceInstance@CAtlBaseModule@ATL@@QAE_NPAUHINSTANCE__@@@Z 00418683 f   atls:atlbase.obj
 0001:000176e0       ?Term@CComCriticalSection@ATL@@QAEJXZ 004186e0 f i atls:atlbase.obj
 0001:000176ea       ?Unlock@?$CComCritSecLock@VCComCriticalSection@ATL@@@ATL@@QAEXXZ 004186ea f i atls:atlbase.obj
 0001:000176fb       ?Unlock@CComCriticalSection@ATL@@QAEJXZ 004186fb f i atls:atlbase.obj
 0001:00017705       ?_AtlRaiseException@ATL@@YAXKK@Z 00418705 f i atls:atlbase.obj
 0001:0001771a       _HRESULT_FROM_WIN32        0041871a f i atls:atlbase.obj
 0001:00017a3a       ?GetCodeAddress@_stdcallthunk@ATL@@QAEPAXXZ 00418a3a f i atls:atlthunk.obj
 0001:00017a64       ?Init@_stdcallthunk@ATL@@QAEHKPAX@Z 00418a64 f i atls:atlthunk.obj
 0001:00017a99       ?__AllocStdCallThunk@@YGPAXXZ 00418a99 f   atls:atlthunk.obj
 0001:00017a9e       ?__AllocStdCallThunk@ATL@@YGPAXXZ 00418a9e f   atls:atlthunk.obj
 0001:00017aa3       ?__AllocStdCallThunk_cmn@@YAPAXXZ 00418aa3 f   atls:atlthunk.obj
 0001:00017b69       ?__FreeStdCallThunk@@YGXPAX@Z 00418b69 f   atls:atlthunk.obj
 0001:00017b79       ?__FreeStdCallThunk@ATL@@YGXPAX@Z 00418b79 f   atls:atlthunk.obj
 0001:00017b89       ?__FreeStdCallThunk_cmn@@YAXPAX@Z 00418b89 f   atls:atlthunk.obj
 0001:00017c24       _AtlThunk_AllocateData@0   00418c24 f   atls:atlthunk.obj
 0001:00017c89       _AtlThunk_DataToCode@4     00418c89 f   atls:atlthunk.obj
 0001:00017cd0       _AtlThunk_FreeData@4       00418cd0 f   atls:atlthunk.obj
 0001:00017d26       _AtlThunk_InitData@12      00418d26 f   atls:atlthunk.obj
 0001:00017d75       _MemoryBarrier             00418d75 f i atls:atlthunk.obj
 0001:00017d83       __InlineInterlockedCompareExchangePointer 00418d83 f i atls:atlthunk.obj
 0001:00017d95       ??0?$CTraceCategoryEx@$00$0A@@ATL@@QAE@PB_W@Z 00418d95 f i atls:stdafx.obj
 0001:00017d9a       ??0?$CTraceCategoryEx@$01$0A@@ATL@@QAE@PB_W@Z 00418d9a f i atls:stdafx.obj
 0001:00017d9f       ??0?$CTraceCategoryEx@$03$0A@@ATL@@QAE@PB_W@Z 00418d9f f i atls:stdafx.obj
 0001:00017da4       ??0?$CTraceCategoryEx@$07$0A@@ATL@@QAE@PB_W@Z 00418da4 f i atls:stdafx.obj
 0001:00017da9       ??0?$CTraceCategoryEx@$0BA@$0A@@ATL@@QAE@PB_W@Z 00418da9 f i atls:stdafx.obj
 0001:00017dae       ??0?$CTraceCategoryEx@$0BAA@$0A@@ATL@@QAE@PB_W@Z 00418dae f i atls:stdafx.obj
 0001:00017db3       ??0?$CTraceCategoryEx@$0BAAA@$0A@@ATL@@QAE@PB_W@Z 00418db3 f i atls:stdafx.obj
 0001:00017db8       ??0?$CTraceCategoryEx@$0BAAAA@$0A@@ATL@@QAE@PB_W@Z 00418db8 f i atls:stdafx.obj
 0001:00017dbd       ??0?$CTraceCategoryEx@$0BAAAAA@$0A@@ATL@@QAE@PB_W@Z 00418dbd f i atls:stdafx.obj
 0001:00017dc2       ??0?$CTraceCategoryEx@$0CA@$0A@@ATL@@QAE@PB_W@Z 00418dc2 f i atls:stdafx.obj
 0001:00017dc7       ??0?$CTraceCategoryEx@$0CAA@$0A@@ATL@@QAE@PB_W@Z 00418dc7 f i atls:stdafx.obj
 0001:00017dcc       ??0?$CTraceCategoryEx@$0CAAA@$0A@@ATL@@QAE@PB_W@Z 00418dcc f i atls:stdafx.obj
 0001:00017dd1       ??0?$CTraceCategoryEx@$0CAAAA@$0A@@ATL@@QAE@PB_W@Z 00418dd1 f i atls:stdafx.obj
 0001:00017dd6       ??0?$CTraceCategoryEx@$0CAAAAA@$0A@@ATL@@QAE@PB_W@Z 00418dd6 f i atls:stdafx.obj
 0001:00017ddb       ??0?$CTraceCategoryEx@$0EA@$0A@@ATL@@QAE@PB_W@Z 00418ddb f i atls:stdafx.obj
 0001:00017de0       ??0?$CTraceCategoryEx@$0EAA@$0A@@ATL@@QAE@PB_W@Z 00418de0 f i atls:stdafx.obj
 0001:00017de5       ??0?$CTraceCategoryEx@$0EAAA@$0A@@ATL@@QAE@PB_W@Z 00418de5 f i atls:stdafx.obj
 0001:00017dea       ??0?$CTraceCategoryEx@$0EAAAA@$0A@@ATL@@QAE@PB_W@Z 00418dea f i atls:stdafx.obj
 0001:00017def       ??0?$CTraceCategoryEx@$0EAAAAA@$0A@@ATL@@QAE@PB_W@Z 00418def f i atls:stdafx.obj
 0001:00017df4       ??0?$CTraceCategoryEx@$0IA@$0A@@ATL@@QAE@PB_W@Z 00418df4 f i atls:stdafx.obj
 0001:00017df9       ??0?$CTraceCategoryEx@$0IAA@$0A@@ATL@@QAE@PB_W@Z 00418df9 f i atls:stdafx.obj
 0001:00017dfe       ??0?$CTraceCategoryEx@$0IAAA@$0A@@ATL@@QAE@PB_W@Z 00418dfe f i atls:stdafx.obj
 0001:00017e03       ??0?$CTraceCategoryEx@$0IAAAA@$0A@@ATL@@QAE@PB_W@Z 00418e03 f i atls:stdafx.obj
 0001:00017e08       _InitCommonControlsEx@4    00418e08 f   comctl32:COMCTL32.dll
 0001:00017e0e       _ImageList_Create@20       00418e0e f   comctl32:COMCTL32.dll
 0001:00017e14       _ImageList_Destroy@4       00418e14 f   comctl32:COMCTL32.dll
 0001:00017e1a       _ImageList_ReplaceIcon@12  00418e1a f   comctl32:COMCTL32.dll
 0001:00017e20       __TrackMouseEvent@4        00418e20 f   comctl32:COMCTL32.dll
 0001:00017e26       ??$__crt_fast_decode_pointer@P6AXXZ@@YAP6AXXZQ6AXXZ@Z 00418e26 f i libvcruntime:purevirt.obj
 0001:00017e3a       ??$__crt_fast_encode_pointer@P6AXXZ@@YAP6AXXZQ6AXXZ@Z 00418e3a f i libvcruntime:purevirt.obj
 0001:00017e57       ??$__crt_interlocked_exchange_pointer@$$A6AXXZP6AXXZ@@YAP6AXXZPDS6AXXZQ6AXXZ@Z 00418e57 f i libvcruntime:purevirt.obj
 0001:00017e64       ??$__crt_interlocked_read_pointer@$$A6AXXZ@@YAP6AXXZPDS6AXXZ@Z 00418e64 f i libvcruntime:purevirt.obj
 0001:00017e6e       ?__crt_interlocked_read_32@@YAHPDH@Z 00418e6e f i libvcruntime:purevirt.obj
 0001:00017e78       __get_purecall_handler     00418e78 f   libvcruntime:purevirt.obj
 0001:00017e8d       __purecall                 00418e8d f   libvcruntime:purevirt.obj
 0001:00017ea9       __set_purecall_handler     00418ea9 f   libvcruntime:purevirt.obj
 0001:00017ed0       _memset                    00418ed0 f   libvcruntime:memset.obj
 0001:00018030       _memmove                   00419030 f   libvcruntime:memmove.obj
 0001:000185b0       _memcpy                    004195b0 f   libvcruntime:memcpy.obj
 0001:00018b30       _strchr                    00419b30 f   libvcruntime:strchr.obj
 0001:00018b9e       ___from_strstr_to_strchr   00419b9e     libvcruntime:strchr.obj
 0001:00018c5b       ??$?0AAViterator@TryBlockMap@__FrameHandler3@@AAV012@$0A@@?$pair@Viterator@TryBlockMap@__FrameHandler3@@V123@@std@@QAE@AAViterator@TryBlockMap@__FrameHandler3@@0@Z 00419c5b f i libvcruntime:trnsctrl.obj
 0001:00018c7f       ??$forward@AAViterator@TryBlockMap@__FrameHandler3@@@std@@YAAAViterator@TryBlockMap@__FrameHandler3@@AAV123@@Z 00419c7f f i libvcruntime:trnsctrl.obj
 0001:00018c87       ??0iterator@TryBlockMap@__FrameHandler3@@QAE@AAV12@I@Z 00419c87 f i libvcruntime:trnsctrl.obj
 0001:00018c9b       ?GetRangeOfTrysToCheck@__FrameHandler3@@SA?AU?$pair@Viterator@TryBlockMap@__FrameHandler3@@V123@@std@@AAVTryBlockMap@1@HH@Z 00419c9b f   libvcruntime:trnsctrl.obj
 0001:00018d1d       ?_CallCatchBlock2@@YAPAXPAUEHRegistrationNode@@PBU_s_FuncInfo@@PAXHK@Z 00419d1d f   libvcruntime:trnsctrl.obj
 0001:00018d7b       ?_CallSETranslator@@YAHPAUEHExceptionRecord@@PAUEHRegistrationNode@@PAX2PBU_s_FuncInfo@@H1@Z 00419d7b f   libvcruntime:trnsctrl.obj
 0001:00018e56       ?_JumpToContinuation@@YGXPAXPAUEHRegistrationNode@@@Z 00419e56 f   libvcruntime:trnsctrl.obj
 0001:00018e86       ?_UnwindNestedFrames@@YGXPAUEHRegistrationNode@@PAUEHExceptionRecord@@@Z 00419e86 f   libvcruntime:trnsctrl.obj
 0001:00018ed9       ?getFuncInfo@TryBlockMap@__FrameHandler3@@QAEPBU_s_FuncInfo@@XZ 00419ed9 f i libvcruntime:trnsctrl.obj
 0001:00018edc       __CatchGuardHandler        00419edc f   libvcruntime:trnsctrl.obj
 0001:00018f0d       __CreateFrameInfo          00419f0d f   libvcruntime:trnsctrl.obj
 0001:00018f31       __FindAndUnlinkFrame       00419f31 f   libvcruntime:trnsctrl.obj
 0001:00018f76       __TranslatorGuardHandler   00419f76 f   libvcruntime:trnsctrl.obj
 0001:00019013       ___CxxFrameHandler         0041a013 f   libvcruntime:trnsctrl.obj
 0001:00019049       ___CxxFrameHandler2        0041a049 f   libvcruntime:trnsctrl.obj
 0001:0001907f       ___CxxFrameHandler3        0041a07f f   libvcruntime:trnsctrl.obj
 0001:000190b5       ___CxxLongjmpUnwind@4      0041a0b5 f   libvcruntime:trnsctrl.obj
 0001:000190da       __CxxThrowException@8      0041a0da f   libvcruntime:throw.obj
 0001:00019150       _strstr                    0041a150 f   libvcruntime:strstr.obj
 0001:000193c8       __except_handler3          0041a3c8 f   libvcruntime:exsup3.obj
 0001:000194d4       __seh_longjmp_unwind@4     0041a4d4 f   libvcruntime:exsup3.obj
 0001:000194fb       ??$?RD@__crt_public_free_policy@@QBEXQBD@Z 0041a4fb f i libvcruntime:std_exception.obj
 0001:0001950b       ??0?$__crt_unique_heap_ptr@DU__crt_public_free_policy@@@@QAE@QAD@Z 0041a50b f i libvcruntime:std_exception.obj
 0001:00019519       ??1?$__crt_unique_heap_ptr@DU__crt_public_free_policy@@@@QAE@XZ 0041a519 f i libvcruntime:std_exception.obj
 0001:00019529       ??B?$__crt_unique_heap_ptr@DU__crt_public_free_policy@@@@QBE_NXZ 0041a529 f i libvcruntime:std_exception.obj
 0001:00019530       ?detach@?$__crt_unique_heap_ptr@DU__crt_public_free_policy@@@@QAEPADXZ 0041a530 f i libvcruntime:std_exception.obj
 0001:00019536       ?get@?$__crt_unique_heap_ptr@DU__crt_public_free_policy@@@@QBEPADXZ 0041a536 f i libvcruntime:std_exception.obj
 0001:00019539       ?is_valid@?$__crt_unique_heap_ptr@DU__crt_public_free_policy@@@@QBE_NXZ 0041a539 f i libvcruntime:std_exception.obj
 0001:00019540       ?release@?$__crt_unique_heap_ptr@DU__crt_public_free_policy@@@@QAEXXZ 0041a540 f i libvcruntime:std_exception.obj
 0001:00019550       ___std_exception_copy      0041a550 f   libvcruntime:std_exception.obj
 0001:000195b3       ___std_exception_destroy   0041a5b3 f   libvcruntime:std_exception.obj
 0001:000196c7       _memcmp                    0041a6c7 f   libvcruntime:memcmp.obj
 0001:0001b44b       ___vcrt_initialize         0041c44b f   libvcruntime:initialization.obj
 0001:0001b474       ___vcrt_thread_attach      0041c474 f   libvcruntime:initialization.obj
 0001:0001b47f       ___vcrt_thread_detach      0041c47f f   libvcruntime:initialization.obj
 0001:0001b48a       ___vcrt_uninitialize       0041c48a f   libvcruntime:initialization.obj
 0001:0001b4a9       ___vcrt_uninitialize_critical 0041c4a9 f   libvcruntime:initialization.obj
 0001:0001b500       __except_handler4          0041c500 f   libvcruntime:chandler4.obj
 0001:0001b665       ??$?RD@__crt_internal_free_policy@@QBEXQBD@Z 0041c665 f i libvcruntime:std_type_info.obj
 0001:0001b675       ??$?RX@__crt_internal_free_policy@@QBEXQBX@Z 0041c675 f i libvcruntime:std_type_info.obj
 0001:0001b685       ??$__crt_interlocked_compare_exchange_pointer@$$CBDPAD$$T@@YAPBDPDSBDQAD$$T@Z 0041c685 f i libvcruntime:std_type_info.obj
 0001:0001b697       ??$__crt_interlocked_read_pointer@$$CBD@@YAPBDPDSBD@Z 0041c697 f i libvcruntime:std_type_info.obj
 0001:0001b6a1       ??0?$__crt_unique_heap_ptr@DU__crt_internal_free_policy@@@@QAE@QAD@Z 0041c6a1 f i libvcruntime:std_type_info.obj
 0001:0001b6af       ??0?$__crt_unique_heap_ptr@XU__crt_internal_free_policy@@@@QAE@QAX@Z 0041c6af f i libvcruntime:std_type_info.obj
 0001:0001b6bd       ??1?$__crt_unique_heap_ptr@DU__crt_internal_free_policy@@@@QAE@XZ 0041c6bd f i libvcruntime:std_type_info.obj
 0001:0001b6cd       ??1?$__crt_unique_heap_ptr@XU__crt_internal_free_policy@@@@QAE@XZ 0041c6cd f i libvcruntime:std_type_info.obj
 0001:0001b6e9       ??B?$__crt_unique_heap_ptr@DU__crt_internal_free_policy@@@@QBE_NXZ 0041c6e9 f i libvcruntime:std_type_info.obj
 0001:0001b6f0       ??B?$__crt_unique_heap_ptr@XU__crt_internal_free_policy@@@@QBE_NXZ 0041c6f0 f i libvcruntime:std_type_info.obj
 0001:0001b717       ?detach@?$__crt_unique_heap_ptr@XU__crt_internal_free_policy@@@@QAEPAXXZ 0041c717 f i libvcruntime:std_type_info.obj
 0001:0001b71d       ?get@?$__crt_unique_heap_ptr@DU__crt_internal_free_policy@@@@QBEPADXZ 0041c71d f i libvcruntime:std_type_info.obj
 0001:0001b720       ?get@?$__crt_unique_heap_ptr@XU__crt_internal_free_policy@@@@QBEPAXXZ 0041c720 f i libvcruntime:std_type_info.obj
 0001:0001b723       ?is_valid@?$__crt_unique_heap_ptr@DU__crt_internal_free_policy@@@@QBE_NXZ 0041c723 f i libvcruntime:std_type_info.obj
 0001:0001b72a       ?is_valid@?$__crt_unique_heap_ptr@XU__crt_internal_free_policy@@@@QBE_NXZ 0041c72a f i libvcruntime:std_type_info.obj
 0001:0001b731       ?release@?$__crt_unique_heap_ptr@DU__crt_internal_free_policy@@@@QAEXXZ 0041c731 f i libvcruntime:std_type_info.obj
 0001:0001b741       ?release@?$__crt_unique_heap_ptr@XU__crt_internal_free_policy@@@@QAEXXZ 0041c741 f i libvcruntime:std_type_info.obj
 0001:0001b751       ___std_type_info_compare   0041c751 f   libvcruntime:std_type_info.obj
 0001:0001b78d       ___std_type_info_destroy_list 0041c78d f   libvcruntime:std_type_info.obj
 0001:0001b7b0       ___std_type_info_hash      0041c7b0 f   libvcruntime:std_type_info.obj
 0001:0001b7d6       ___std_type_info_name      0041c7d6 f   libvcruntime:std_type_info.obj
 0001:0001b899       ??$?B$$A6AXXZ@__crt_fast_encoded_nullptr_t@@QBEP6AXXZXZ 0041c899 f i libvcruntime:purevirt_data.obj
 0001:0001b89f       ?__crt_fast_encode_pointer@@YA?AU__crt_fast_encoded_nullptr_t@@$$T@Z 0041c89f f i libvcruntime:purevirt_data.obj
 0001:0001b8a8       ___vcrt_initialize_pure_virtual_call_handler 0041c8a8 f   libvcruntime:purevirt_data.obj
 0001:0001b8b3       ??$?RU__vcrt_ptd@@@__crt_internal_free_policy@@QBEXQBU__vcrt_ptd@@@Z 0041c8b3 f i libvcruntime:per_thread_data.obj
 0001:0001b8c3       ??0?$__crt_unique_heap_ptr@U__vcrt_ptd@@U__crt_internal_free_policy@@@@QAE@QAU__vcrt_ptd@@@Z 0041c8c3 f i libvcruntime:per_thread_data.obj
 0001:0001b8e0       ??1?$__crt_unique_heap_ptr@U__vcrt_ptd@@U__crt_internal_free_policy@@@@QAE@XZ 0041c8e0 f i libvcruntime:per_thread_data.obj
 0001:0001b8f9       ??B?$__crt_unique_heap_ptr@U__vcrt_ptd@@U__crt_internal_free_policy@@@@QBE_NXZ 0041c8f9 f i libvcruntime:per_thread_data.obj
 0001:0001b900       ?detach@?$__crt_unique_heap_ptr@U__vcrt_ptd@@U__crt_internal_free_policy@@@@QAEPAU__vcrt_ptd@@XZ 0041c900 f i libvcruntime:per_thread_data.obj
 0001:0001b906       ?get@?$__crt_unique_heap_ptr@U__vcrt_ptd@@U__crt_internal_free_policy@@@@QBEPAU__vcrt_ptd@@XZ 0041c906 f i libvcruntime:per_thread_data.obj
 0001:0001b909       ?is_valid@?$__crt_unique_heap_ptr@U__vcrt_ptd@@U__crt_internal_free_policy@@@@QBE_NXZ 0041c909 f i libvcruntime:per_thread_data.obj
 0001:0001b910       ?release@?$__crt_unique_heap_ptr@U__vcrt_ptd@@U__crt_internal_free_policy@@@@QAEXXZ 0041c910 f i libvcruntime:per_thread_data.obj
 0001:0001b93a       ___vcrt_freefls@4          0041c93a f   libvcruntime:per_thread_data.obj
 0001:0001b956       ___vcrt_freeptd            0041c956 f   libvcruntime:per_thread_data.obj
 0001:0001b98c       ___vcrt_getptd             0041c98c f   libvcruntime:per_thread_data.obj
 0001:0001b99a       ___vcrt_getptd_noexit      0041c99a f   libvcruntime:per_thread_data.obj
 0001:0001ba2c       ___vcrt_getptd_noinit      0041ca2c f   libvcruntime:per_thread_data.obj
 0001:0001ba63       ___vcrt_initialize_ptd     0041ca63 f   libvcruntime:per_thread_data.obj
 0001:0001ba96       ___vcrt_uninitialize_ptd   0041ca96 f   libvcruntime:per_thread_data.obj
 0001:0001c1a8       ??$TypeMatchHelper@V__FrameHandler3@@@@YAHPBU_s_HandlerType@@PBU_s_CatchableType@@PBU_s_ThrowInfo@@@Z 0041d1a8 f i libvcruntime:frame.obj
 0001:0001c236       ??$__InternalCxxFrameHandler@V__FrameHandler3@@@@YA?AW4_EXCEPTION_DISPOSITION@@PAUEHExceptionRecord@@PAUEHRegistrationNode@@PAU_CONTEXT@@PAXPBU_s_FuncInfo@@H1E@Z 0041d236 f i libvcruntime:frame.obj
 0001:0001c338       ??0HandlerMap@__FrameHandler3@@QAE@PBU_s_TryBlockMapEntry@@PAX@Z 0041d338 f i libvcruntime:frame.obj
 0001:0001c34f       ??0TryBlockMap@__FrameHandler3@@QAE@PBU_s_FuncInfo@@PAX@Z 0041d34f f i libvcruntime:frame.obj
 0001:0001c363       ??0bad_exception@std@@QAE@ABV01@@Z 0041d363 f i libvcruntime:frame.obj
 0001:0001c37e       ??0bad_exception@std@@QAE@XZ 0041d37e f i libvcruntime:frame.obj
 0001:0001c396       ??0iterator@HandlerMap@__FrameHandler3@@QAE@AAV12@I@Z 0041d396 f i libvcruntime:frame.obj
 0001:0001c3aa       ??1bad_exception@std@@UAE@XZ 0041d3aa f i libvcruntime:frame.obj
 0001:0001c3bb       ??8iterator@HandlerMap@__FrameHandler3@@QBE_NABV012@@Z 0041d3bb f i libvcruntime:frame.obj
 0001:0001c3ce       ??8type_info@@QBE_NABV0@@Z 0041d3ce f i libvcruntime:frame.obj
 0001:0001c3ed       ??9iterator@HandlerMap@__FrameHandler3@@QBE_NABV012@@Z 0041d3ed f i libvcruntime:frame.obj
 0001:0001c400       ??Diterator@HandlerMap@__FrameHandler3@@QAEPBU_s_HandlerType@@XZ 0041d400 f i libvcruntime:frame.obj
 0001:0001c40c       ??Diterator@TryBlockMap@__FrameHandler3@@QAEPBU_s_TryBlockMapEntry@@XZ 0041d40c f i libvcruntime:frame.obj
 0001:0001c418       ??Eiterator@HandlerMap@__FrameHandler3@@QAEAAV012@XZ 0041d418 f i libvcruntime:frame.obj
 0001:0001c41e       ??Eiterator@TryBlockMap@__FrameHandler3@@QAEAAV012@XZ 0041d41e f i libvcruntime:frame.obj
 0001:0001c424       ??Miterator@TryBlockMap@__FrameHandler3@@QBE_NABV012@@Z 0041d424 f i libvcruntime:frame.obj
 0001:0001c437       ??_Ebad_exception@std@@UAEPAXI@Z 0041d437 f i libvcruntime:frame.obj
 0001:0001c437       ??_Gbad_exception@std@@UAEPAXI@Z 0041d437 f i libvcruntime:frame.obj
 0001:0001c464       ?BuildCatchObject@__FrameHandler3@@SAXPAUEHExceptionRecord@@PAXPBU_s_HandlerType@@PBU_s_CatchableType@@@Z 0041d464 f   libvcruntime:frame.obj
 0001:0001c469       ?BuildCatchObjectHelper@__FrameHandler3@@SAHPAUEHExceptionRecord@@PAXPBU_s_HandlerType@@PBU_s_CatchableType@@@Z 0041d469 f   libvcruntime:frame.obj
 0001:0001c6ba       ?FrameUnwindToEmptyState@__FrameHandler3@@SAXPAUEHRegistrationNode@@PAXPBU_s_FuncInfo@@@Z 0041d6ba f   libvcruntime:frame.obj
 0001:0001c6d2       ?FrameUnwindToState@__FrameHandler3@@SAXPAUEHRegistrationNode@@PAXPBU_s_FuncInfo@@H@Z 0041d6d2 f   libvcruntime:frame.obj
 0001:0001c7ba       ?GetMaxState@__FrameHandler3@@SAHPAXPBU_s_FuncInfo@@@Z 0041d7ba f i libvcruntime:frame.obj
 0001:0001c898       ?TypeMatch@__FrameHandler3@@SAHPBU_s_HandlerType@@PBU_s_CatchableType@@PBU_s_ThrowInfo@@@Z 0041d898 f   libvcruntime:frame.obj
 0001:0001c8a1       ?_CallMemberFunction1@@YGXQAX00@Z 0041d8a1 f i libvcruntime:frame.obj
 0001:0001c8b1       ?_CallMemberFunction2@@YGXQAX00H@Z 0041d8b1 f i libvcruntime:frame.obj
 0001:0001c8c4       ?_ValidateExecute@@YA_NP6GHXZ@Z 0041d8c4 f i libvcruntime:frame.obj
 0001:0001c8d0       ?_ValidateRead@@YA_NPBXI@Z 0041d8d0 f i libvcruntime:frame.obj
 0001:0001c8dc       ?_ValidateWrite@@YA_NPAXI@Z 0041d8dc f i libvcruntime:frame.obj
 0001:0001c8e8       ?begin@HandlerMap@__FrameHandler3@@QAE?AViterator@12@XZ 0041d8e8 f i libvcruntime:frame.obj
 0001:0001c8f8       ?end@HandlerMap@__FrameHandler3@@QAE?AViterator@12@XZ 0041d8f8 f i libvcruntime:frame.obj
 0001:0001c909       ?getESTypes@__FrameHandler3@@SAPBU_s_ESTypeList@@PBU_s_FuncInfo@@@Z 0041d909 f i libvcruntime:frame.obj
 0001:0001c914       ?getLastEntry@HandlerMap@__FrameHandler3@@QAEPBU_s_HandlerType@@XZ 0041d914 f i libvcruntime:frame.obj
 0001:0001c922       ?getMagicNum@__FrameHandler3@@SAIPBU_s_FuncInfo@@@Z 0041d922 f i libvcruntime:frame.obj
 0001:0001c931       ?getNumTryBlocks@TryBlockMap@__FrameHandler3@@QAEIXZ 0041d931 f i libvcruntime:frame.obj
 0001:0001c937       ?isEHs@__FrameHandler3@@SA_NPBU_s_FuncInfo@@@Z 0041d937 f i libvcruntime:frame.obj
 0001:0001c944       ?isNoExcept@__FrameHandler3@@SA_NPBU_s_FuncInfo@@@Z 0041d944 f i libvcruntime:frame.obj
 0001:0001c954       ___BuildCatchObject        0041d954 f   libvcruntime:frame.obj
 0001:0001c959       ___BuildCatchObjectHelper  0041d959 f   libvcruntime:frame.obj
 0001:0001c962       ___TypeMatch               0041d962 f   libvcruntime:frame.obj
 0001:0001c96b       ___vcrt_EncodePointer      0041d96b f i libvcruntime:frame.obj
 0001:0001c980       __CallSettingFrame@12      0041d980 f   libvcruntime:lowhelpr.obj
 0001:0001c9a7       __NLG_Return               0041d9a7     libvcruntime:lowhelpr.obj
 0001:0001c9d7       ___except_validate_context_record 0041d9d7 f   libvcruntime:jbcxrval.obj
 0001:0001ca07       ___except_validate_jump_buffer 0041da07 f   libvcruntime:jbcxrval.obj
 0001:0001ca34       ___except_validate_jump_buffer_common 0041da34 f i libvcruntime:jbcxrval.obj
 0001:0001ca6d       _CallDestructExceptionObject 0041da6d f   libvcruntime:calldtor.obj
 0001:0001cab0       __global_unwind2           0041dab0 f   libvcruntime:exsup.obj
 0001:0001cb16       __local_unwind2            0041db16 f   libvcruntime:exsup.obj
 0001:0001cb9a       __abnormal_termination     0041db9a f   libvcruntime:exsup.obj
 0001:0001cbc0       __NLG_Notify1              0041dbc0 f   libvcruntime:exsup.obj
 0001:0001cbcc       __NLG_Notify               0041dbcc f   libvcruntime:exsup.obj
 0001:0001cbe3       __NLG_Dispatch2            0041dbe3     libvcruntime:exsup.obj
 0001:0001cbe3       __NLG_Dispatch             0041dbe3     libvcruntime:exsup.obj
 0001:0001cbeb       __NLG_Call                 0041dbeb f   libvcruntime:exsup.obj
 0001:0001cbed       __NLG_Return2              0041dbed     libvcruntime:exsup.obj
 0001:0001ccb0       __ValidateEH3RN            0041dcb0 f   libvcruntime:eh3valid.obj
 0001:0001d014       ___vcrt_initialize_locks   0041e014 f   libvcruntime:locks.obj
 0001:0001d050       ___vcrt_lock               0041e050 f   libvcruntime:locks.obj
 0001:0001d065       ___vcrt_uninitialize_locks 0041e065 f   libvcruntime:locks.obj
 0001:0001d094       ___vcrt_unlock             0041e094 f   libvcruntime:locks.obj
 0001:0001d0a9       ??$?BX@__crt_fast_encoded_nullptr_t@@QBEPAXXZ 0041e0a9 f i libvcruntime:winapi_downlevel.obj
 0001:0001d0af       ??$__crt_fast_decode_pointer@PAX@@YAPAXQAX@Z 0041e0af f i libvcruntime:winapi_downlevel.obj
 0001:0001d0c3       ??$__crt_fast_encode_pointer@PAX@@YAPAXQAX@Z 0041e0c3 f i libvcruntime:winapi_downlevel.obj
 0001:0001d0e0       ??$__crt_interlocked_exchange_pointer@UHINSTANCE__@@PAU1@@@YAPAUHINSTANCE__@@PDSAU0@QAU0@@Z 0041e0e0 f i libvcruntime:winapi_downlevel.obj
 0001:0001d0ed       ??$__crt_interlocked_exchange_pointer@UHINSTANCE__@@PAX@@YAPAUHINSTANCE__@@PDSAU0@QAX@Z 0041e0ed f i libvcruntime:winapi_downlevel.obj
 0001:0001d0fa       ??$__crt_interlocked_exchange_pointer@XPAX@@YAPAXPDSAXQAX@Z 0041e0fa f i libvcruntime:winapi_downlevel.obj
 0001:0001d107       ??$__crt_interlocked_read_pointer@UHINSTANCE__@@@@YAPAUHINSTANCE__@@PDSAU0@@Z 0041e107 f i libvcruntime:winapi_downlevel.obj
 0001:0001d111       ??$__crt_interlocked_read_pointer@X@@YAPAXPDSAX@Z 0041e111 f i libvcruntime:winapi_downlevel.obj
 0001:0001d3a6       ___vcrt_FlsAlloc           0041e3a6 f   libvcruntime:winapi_downlevel.obj
 0001:0001d3e1       ___vcrt_FlsFree            0041e3e1 f   libvcruntime:winapi_downlevel.obj
 0001:0001d41c       ___vcrt_FlsGetValue        0041e41c f   libvcruntime:winapi_downlevel.obj
 0001:0001d457       ___vcrt_FlsSetValue        0041e457 f   libvcruntime:winapi_downlevel.obj
 0001:0001d495       ___vcrt_InitializeCriticalSectionEx 0041e495 f   libvcruntime:winapi_downlevel.obj
 0001:0001d4dc       ___vcrt_initialize_winapi_thunks 0041e4dc f   libvcruntime:winapi_downlevel.obj
 0001:0001d505       ___vcrt_uninitialize_winapi_thunks 0041e505 f   libvcruntime:winapi_downlevel.obj
 0001:0001d540       __local_unwind4            0041e540 f   libvcruntime:exsup4.obj
 0001:0001d618       __seh_longjmp_unwind4@4    0041e618 f   libvcruntime:exsup4.obj
 0001:0001d640       @_EH4_CallFilterFunc@8     0041e640 f   libvcruntime:exsup4.obj
 0001:0001d658       @_EH4_TransferToHandler@8  0041e658 f   libvcruntime:exsup4.obj
 0001:0001d674       @_EH4_GlobalUnwind2@8      0041e674 f   libvcruntime:exsup4.obj
 0001:0001d690       @_EH4_LocalUnwind@16       0041e690 f   libvcruntime:exsup4.obj
 0001:0001d6a7       ??0Block@_HeapManager@@QAE@XZ 0041e6a7 f i libvcruntime:undname.obj
 0001:0001d6ad       ??0DName@@QAE@AAPBDD@Z     0041e6ad f   libvcruntime:undname.obj
 0001:0001d75f       ??0DName@@QAE@ABV0@@Z      0041e75f f i libvcruntime:undname.obj
 0001:0001d775       ??0DName@@QAE@D@Z          0041e775 f   libvcruntime:undname.obj
 0001:0001d79a       ??0DName@@QAE@PAV0@@Z      0041e79a f   libvcruntime:undname.obj
 0001:0001d7e2       ??0DName@@QAE@PBD@Z        0041e7e2 f   libvcruntime:undname.obj
 0001:0001d815       ??0DName@@QAE@W4DNameStatus@@@Z 0041e815 f   libvcruntime:undname.obj
 0001:0001d855       ??0DName@@QAE@XZ           0041e855 f i libvcruntime:undname.obj
 0001:0001d85f       ??0DName@@QAE@_J@Z         0041e85f f   libvcruntime:undname.obj
 0001:0001d8eb       ??0DName@@QAE@_K@Z         0041e8eb f   libvcruntime:undname.obj
 0001:0001d951       ??0DNameNode@@IAE@XZ       0041e951 f i libvcruntime:undname.obj
 0001:0001d95a       ??0Replicator@@QAE@XZ      0041e95a f i libvcruntime:undname.obj
 0001:0001d969       ??0UnDecorator@@QAE@PBDP6APADJ@ZK@Z 0041e969 f i libvcruntime:undname.obj
 0001:0001d9b5       ??0charNode@@QAE@D@Z       0041e9b5 f i libvcruntime:undname.obj
 0001:0001d9ca       ??0pDNameNode@@QAE@PAVDName@@@Z 0041e9ca f   libvcruntime:undname.obj
 0001:0001d9f2       ??0pairNode@@QAE@PBVDNameNode@@0@Z 0041e9f2 f i libvcruntime:undname.obj
 0001:0001da11       ??0pcharNode@@QAE@PBDH@Z   0041ea11 f   libvcruntime:undname.obj
 0001:0001da71       ??2@YAPAXIAAV_HeapManager@@H@Z 0041ea71 f i libvcruntime:undname.obj
 0001:0001da86       ??4DName@@QAEAAV0@ABV0@@Z  0041ea86 f   libvcruntime:undname.obj
 0001:0001da9c       ??4DName@@QAEAAV0@D@Z      0041ea9c f i libvcruntime:undname.obj
 0001:0001dac1       ??4DName@@QAEAAV0@PAV0@@Z  0041eac1 f   libvcruntime:undname.obj
 0001:0001db03       ??4DName@@QAEAAV0@PBD@Z    0041eb03 f   libvcruntime:undname.obj
 0001:0001db2e       ??4DName@@QAEAAV0@W4DNameStatus@@@Z 0041eb2e f   libvcruntime:undname.obj
 0001:0001db60       ??AReplicator@@QBE?AVDName@@H@Z 0041eb60 f   libvcruntime:undname.obj
 0001:0001dba6       ??H@YA?AVDName@@DABV0@@Z   0041eba6 f i libvcruntime:undname.obj
 0001:0001dbc8       ??H@YA?AVDName@@PBDABV0@@Z 0041ebc8 f i libvcruntime:undname.obj
 0001:0001dbea       ??H@YA?AVDName@@W4DNameStatus@@ABV0@@Z 0041ebea f i libvcruntime:undname.obj
 0001:0001dc0c       ??HDName@@QBE?AV0@ABV0@@Z  0041ec0c f   libvcruntime:undname.obj
 0001:0001dc2e       ??HDName@@QBE?AV0@D@Z      0041ec2e f   libvcruntime:undname.obj
 0001:0001dc50       ??HDName@@QBE?AV0@PAV0@@Z  0041ec50 f   libvcruntime:undname.obj
 0001:0001dc72       ??HDName@@QBE?AV0@PBD@Z    0041ec72 f   libvcruntime:undname.obj
 0001:0001dc94       ??HDName@@QBE?AV0@W4DNameStatus@@@Z 0041ec94 f   libvcruntime:undname.obj
 0001:0001dcb6       ??YDName@@QAEAAV0@ABV0@@Z  0041ecb6 f   libvcruntime:undname.obj
 0001:0001dcf7       ??YDName@@QAEAAV0@D@Z      0041ecf7 f   libvcruntime:undname.obj
 0001:0001dd47       ??YDName@@QAEAAV0@PAV0@@Z  0041ed47 f   libvcruntime:undname.obj
 0001:0001ddac       ??YDName@@QAEAAV0@PBD@Z    0041edac f   libvcruntime:undname.obj
 0001:0001de0d       ??YDName@@QAEAAV0@W4DNameStatus@@@Z 0041ee0d f   libvcruntime:undname.obj
 0001:0001de4d       ??YReplicator@@QAEAAV0@ABVDName@@@Z 0041ee4d f   libvcruntime:undname.obj
 0001:0001de97       ??_5DName@@QAEAAV0@ABV0@@Z 0041ee97 f   libvcruntime:undname.obj
 0001:0001deb3       ?Constructor@_HeapManager@@QAEXP6APAXI@ZP6AXPAX@Z@Z 0041eeb3 f i libvcruntime:undname.obj
 0001:0001ded0       ?Destructor@_HeapManager@@QAEXXZ 0041eed0 f i libvcruntime:undname.obj
 0001:0001df08       ?UScore@UnDecorator@@SAPBDW4Tokens@@@Z 0041ef08 f   libvcruntime:undname.obj
 0001:0001df27       ?append@DName@@AAEXPBVDNameNode@@@Z 0041ef27 f   libvcruntime:undname.obj
 0001:0001df6d       ?composeDeclaration@UnDecorator@@CA?AVDName@@ABV2@@Z 0041ef6d f i libvcruntime:undname.obj
 0001:0001ec4a       ?doAccessSpecifiers@UnDecorator@@SAHXZ 0041fc4a f i libvcruntime:undname.obj
 0001:0001ec58       ?doAllocationLanguage@UnDecorator@@SAHXZ 0041fc58 f i libvcruntime:undname.obj
 0001:0001ec66       ?doAllocationModel@UnDecorator@@SAHXZ 0041fc66 f i libvcruntime:undname.obj
 0001:0001ec74       ?doEcsu@UnDecorator@@SAHXZ 0041fc74 f i libvcruntime:undname.obj
 0001:0001ec82       ?doEllipsis@UnDecorator@@SAHXZ 0041fc82 f i libvcruntime:undname.obj
 0001:0001ec90       ?doFunctionReturns@UnDecorator@@SAHXZ 0041fc90 f i libvcruntime:undname.obj
 0001:0001ec9e       ?doMSKeywords@UnDecorator@@SAHXZ 0041fc9e f i libvcruntime:undname.obj
 0001:0001ecab       ?doMemberTypes@UnDecorator@@SAHXZ 0041fcab f i libvcruntime:undname.obj
 0001:0001ecb9       ?doNameOnly@UnDecorator@@SAHXZ 0041fcb9 f i libvcruntime:undname.obj
 0001:0001ecc4       ?doNoIdentCharCheck@UnDecorator@@SAHXZ 0041fcc4 f i libvcruntime:undname.obj
 0001:0001eccf       ?doPchar@DName@@AAEXPBDH@Z 0041fccf f   libvcruntime:undname.obj
 0001:0001ed55       ?doPtr64@UnDecorator@@SAHXZ 0041fd55 f i libvcruntime:undname.obj
 0001:0001ed63       ?doRestrictionSpec@UnDecorator@@SAHXZ 0041fd63 f i libvcruntime:undname.obj
 0001:0001ed71       ?doThisTypes@UnDecorator@@SAHXZ 0041fd71 f i libvcruntime:undname.obj
 0001:0001ed83       ?doThrowTypes@UnDecorator@@SAHXZ 0041fd83 f i libvcruntime:undname.obj
 0001:0001ed91       ?doTypeOnly@UnDecorator@@SAHXZ 0041fd91 f i libvcruntime:undname.obj
 0001:0001ed9c       ?doUnderScore@UnDecorator@@SAHXZ 0041fd9c f i libvcruntime:undname.obj
 0001:0001eda7       ?getArgumentList@UnDecorator@@CA?AVDName@@XZ 0041fda7 f   libvcruntime:undname.obj
 0001:0001ee9d       ?getArgumentTypes@UnDecorator@@CA?AVDName@@XZ 0041fe9d f   libvcruntime:undname.obj
 0001:0001ef67       ?getArrayType@UnDecorator@@CA?AVDName@@ABV2@@Z 0041ff67 f i libvcruntime:undname.obj
 0001:0001f118       ?getBasedType@UnDecorator@@CA?AVDName@@XZ 00420118 f   libvcruntime:undname.obj
 0001:0001f1b0       ?getBasicDataType@UnDecorator@@CA?AVDName@@ABV2@@Z 004201b0 f   libvcruntime:undname.obj
 0001:0001f58f       ?getCHPEName@UnDecorator@@QAEPADPADH@Z 0042058f f i libvcruntime:undname.obj
 0001:0001f66e       ?getCallIndex@UnDecorator@@CA?AVDName@@XZ 0042066e f i libvcruntime:undname.obj
 0001:0001f682       ?getCallingConvention@UnDecorator@@CA?AVDName@@XZ 00420682 f   libvcruntime:undname.obj
 0001:0001f755       ?getDataIndirectType@UnDecorator@@CA?AVDName@@ABV2@PBD0H@Z 00420755 f   libvcruntime:undname.obj
 0001:0001fd3f       ?getDataIndirectType@UnDecorator@@CA?AVDName@@XZ 00420d3f f i libvcruntime:undname.obj
 0001:0001fd71       ?getDataType@UnDecorator@@CA?AVDName@@PAV2@@Z 00420d71 f   libvcruntime:undname.obj
 0001:0001fe36       ?getDecoratedName@UnDecorator@@CA?AVDName@@XZ 00420e36 f   libvcruntime:undname.obj
 0001:00020078       ?getDimension@UnDecorator@@CA?AVDName@@_N@Z 00421078 f   libvcruntime:undname.obj
 0001:00020197       ?getDispatchTarget@UnDecorator@@CA?AVDName@@XZ 00421197 f   libvcruntime:undname.obj
 0001:000201eb       ?getDisplacement@UnDecorator@@CA?AVDName@@XZ 004211eb f i libvcruntime:undname.obj
 0001:000201ff       ?getECSUDataType@UnDecorator@@CA?AVDName@@XZ 004211ff f   libvcruntime:undname.obj
 0001:00020317       ?getECSUName@UnDecorator@@CA?AVDName@@XZ 00421317 f i libvcruntime:undname.obj
 0001:00020328       ?getEnumType@UnDecorator@@CA?AVDName@@XZ 00421328 f i libvcruntime:undname.obj
 0001:00020418       ?getExtendedDataIndirectType@UnDecorator@@CA?AVDName@@AAPBDAA_NH@Z 00421418 f   libvcruntime:undname.obj
 0001:000205cf       ?getExternalDataType@UnDecorator@@CA?AVDName@@ABV2@@Z 004215cf f i libvcruntime:undname.obj
 0001:00020636       ?getFunctionIndirectType@UnDecorator@@CA?AVDName@@ABV2@@Z 00421636 f   libvcruntime:undname.obj
 0001:00020a0e       ?getGuardNumber@UnDecorator@@CA?AVDName@@XZ 00421a0e f i libvcruntime:undname.obj
 0001:00020a22       ?getLastChar@DName@@QBEDXZ 00421a22 f i libvcruntime:undname.obj
 0001:00020a42       ?getLastChar@DNameStatusNode@@UBEDXZ 00421a42 f i libvcruntime:undname.obj
 0001:00020a4e       ?getLastChar@charNode@@UBEDXZ 00421a4e f i libvcruntime:undname.obj
 0001:00020a52       ?getLastChar@pDNameNode@@UBEDXZ 00421a52 f i libvcruntime:undname.obj
 0001:00020a60       ?getLastChar@pairNode@@UBEDXZ 00421a60 f i libvcruntime:undname.obj
 0001:00020a95       ?getLastChar@pcharNode@@UBEDXZ 00421a95 f i libvcruntime:undname.obj
 0001:00020aa7       ?getLexicalFrame@UnDecorator@@CA?AVDName@@XZ 00421aa7 f i libvcruntime:undname.obj
 0001:00020ae6       ?getMemory@_HeapManager@@QAEPAXIH@Z 00421ae6 f   libvcruntime:undname.obj
 0001:00020b6d       ?getNoexcept@UnDecorator@@CA?AVDName@@XZ 00421b6d f   libvcruntime:undname.obj
 0001:00020bb2       ?getNumberOfDimensions@UnDecorator@@CAHXZ 00421bb2 f   libvcruntime:undname.obj
 0001:00020c13       ?getOperatorName@UnDecorator@@CA?AVDName@@_NPA_N@Z 00421c13 f i libvcruntime:undname.obj
 0001:0002126b       ?getPointerType@UnDecorator@@CA?AVDName@@ABV2@0@Z 0042226b f i libvcruntime:undname.obj
 0001:00021289       ?getPointerTypeArray@UnDecorator@@CA?AVDName@@ABV2@0@Z 00422289 f i libvcruntime:undname.obj
 0001:000212a7       ?getPrimaryDataType@UnDecorator@@CA?AVDName@@ABV2@@Z 004222a7 f   libvcruntime:undname.obj
 0001:0002148b       ?getPtrRefDataType@UnDecorator@@CA?AVDName@@ABV2@H@Z 0042248b f   libvcruntime:undname.obj
 0001:000215b4       ?getPtrRefType@UnDecorator@@CA?AVDName@@ABV2@0PBD@Z 004225b4 f   libvcruntime:undname.obj
 0001:000216ae       ?getReferenceType@UnDecorator@@CA?AVDName@@ABV2@0PBD@Z 004226ae f i libvcruntime:undname.obj
 0001:000216ca       ?getRestrictionSpec@UnDecorator@@CA?AVDName@@XZ 004226ca f   libvcruntime:undname.obj
 0001:000217c3       ?getReturnType@UnDecorator@@CA?AVDName@@PAV2@@Z 004227c3 f   libvcruntime:undname.obj
 0001:000217f2       ?getScope@UnDecorator@@CA?AVDName@@XZ 004227f2 f   libvcruntime:undname.obj
 0001:00021b86       ?getScopedName@UnDecorator@@CA?AVDName@@XZ 00422b86 f   libvcruntime:undname.obj
 0001:00021c5a       ?getSignedDimension@UnDecorator@@CA?AVDName@@XZ 00422c5a f   libvcruntime:undname.obj
 0001:00021cab       ?getStorageConvention@UnDecorator@@CA?AVDName@@XZ 00422cab f i libvcruntime:undname.obj
 0001:00021cbc       ?getString@DName@@QBEPADPAD0@Z 00422cbc f i libvcruntime:undname.obj
 0001:00021ce9       ?getString@DName@@QBEPADPADH@Z 00422ce9 f i libvcruntime:undname.obj
 0001:00021d3f       ?getString@DNameStatusNode@@UBEPADPAD0@Z 00422d3f f i libvcruntime:undname.obj
 0001:00021d66       ?getString@charNode@@UBEPADPAD0@Z 00422d66 f i libvcruntime:undname.obj
 0001:00021d7b       ?getString@pDNameNode@@UBEPADPAD0@Z 00422d7b f i libvcruntime:undname.obj
 0001:00021d92       ?getString@pairNode@@UBEPADPAD0@Z 00422d92 f i libvcruntime:undname.obj
 0001:00021dd8       ?getString@pcharNode@@UBEPADPAD0@Z 00422dd8 f i libvcruntime:undname.obj
 0001:00021df3       ?getStringEncoding@UnDecorator@@CA?AVDName@@PBDH@Z 00422df3 f   libvcruntime:undname.obj
 0001:00021ea3       ?getStringHelper@@YAPADPADPBD1H@Z 00422ea3 f i libvcruntime:undname.obj
 0001:00021eda       ?getSymbolName@UnDecorator@@CA?AVDName@@XZ 00422eda f i libvcruntime:undname.obj
 0001:00021f24       ?getTemplateArgumentList@UnDecorator@@CA?AVDName@@XZ 00422f24 f   libvcruntime:undname.obj
 0001:000221c1       ?getTemplateConstant@UnDecorator@@CA?AVDName@@XZ 004231c1 f   libvcruntime:undname.obj
 0001:000224f3       ?getTemplateName@UnDecorator@@CA?AVDName@@_N@Z 004234f3 f   libvcruntime:undname.obj
 0001:00022655       ?getThisType@UnDecorator@@CA?AVDName@@XZ 00423655 f i libvcruntime:undname.obj
 0001:00022688       ?getThrowTypes@UnDecorator@@CA?AVDName@@XZ 00423688 f   libvcruntime:undname.obj
 0001:000226ab       ?getTypeEncoding@UnDecorator@@CAHXZ 004236ab f i libvcruntime:undname.obj
 0001:000229d3       ?getUndecoratedName@UnDecorator@@QAEPADPADH@Z 004239d3 f i libvcruntime:undname.obj
 0001:00022a97       ?getVCallThunkType@UnDecorator@@CA?AVDName@@XZ 00423a97 f i libvcruntime:undname.obj
 0001:00022ade       ?getVbTableType@UnDecorator@@CA?AVDName@@ABV2@@Z 00423ade f i libvcruntime:undname.obj
 0001:00022af3       ?getVdispMapType@UnDecorator@@CA?AVDName@@ABV2@@Z 00423af3 f i libvcruntime:undname.obj
 0001:00022b47       ?getVfTableType@UnDecorator@@CA?AVDName@@ABV2@@Z 00423b47 f i libvcruntime:undname.obj
 0001:00022caa       ?getZName@UnDecorator@@CA?AVDName@@_N0@Z 00423caa f   libvcruntime:undname.obj
 0001:00022ea9       ?haveTemplateParameters@UnDecorator@@SAHXZ 00423ea9 f i libvcruntime:undname.obj
 0001:00022eb4       ?isArray@DName@@QBEHXZ     00423eb4 f i libvcruntime:undname.obj
 0001:00022ebe       ?isComArray@DName@@QBEHXZ  00423ebe f i libvcruntime:undname.obj
 0001:00022ec8       ?isEmpty@DName@@QBEHXZ     00423ec8 f i libvcruntime:undname.obj
 0001:00022ed0       ?isFull@Replicator@@QBEHXZ 00423ed0 f i libvcruntime:undname.obj
 0001:00022ed9       ?isNoTE@DName@@QBEHXZ      00423ed9 f i libvcruntime:undname.obj
 0001:00022ee3       ?isPinPtr@DName@@QBEHXZ    00423ee3 f i libvcruntime:undname.obj
 0001:00022eed       ?isPtrRef@DName@@QBEHXZ    00423eed f i libvcruntime:undname.obj
 0001:00022ef7       ?isUDC@DName@@QBEHXZ       00423ef7 f i libvcruntime:undname.obj
 0001:00022f08       ?isUDTThunk@DName@@QBEHXZ  00423f08 f i libvcruntime:undname.obj
 0001:00022f19       ?isVCallThunk@DName@@QBEHXZ 00423f19 f i libvcruntime:undname.obj
 0001:00022f23       ?isValid@DName@@QBEHXZ     00423f23 f i libvcruntime:undname.obj
 0001:00022f2d       ?length@DName@@QBEHXZ      00423f2d f i libvcruntime:undname.obj
 0001:00022f4c       ?length@DNameStatusNode@@UBEHXZ 00423f4c f i libvcruntime:undname.obj
 0001:00022f50       ?length@charNode@@UBEHXZ   00423f50 f i libvcruntime:undname.obj
 0001:00022f54       ?length@pDNameNode@@UBEHXZ 00423f54 f i libvcruntime:undname.obj
 0001:00022f62       ?length@pairNode@@UBEHXZ   00423f62 f i libvcruntime:undname.obj
 0001:00022fa8       ?length@pcharNode@@UBEHXZ  00423fa8 f i libvcruntime:undname.obj
 0001:00022fac       ?make@DNameStatusNode@@SAPBV1@W4DNameStatus@@@Z 00423fac f i libvcruntime:undname.obj
 0001:00022fc8       ?parseDecoratedName@UnDecorator@@CA?AVDName@@XZ 00423fc8 f   libvcruntime:undname.obj
 0001:000230b6       ?setIsArray@DName@@QAEXXZ  004240b6 f i libvcruntime:undname.obj
 0001:000230be       ?setIsComArray@DName@@QAEXXZ 004240be f i libvcruntime:undname.obj
 0001:000230c6       ?setIsNoTE@DName@@QAEXXZ   004240c6 f i libvcruntime:undname.obj
 0001:000230ce       ?setIsPinPtr@DName@@QAEXXZ 004240ce f i libvcruntime:undname.obj
 0001:000230d6       ?setIsUDC@DName@@QAEXXZ    004240d6 f i libvcruntime:undname.obj
 0001:000230e3       ?setIsVCallThunk@DName@@QAEXXZ 004240e3 f i libvcruntime:undname.obj
 0001:000230eb       ?setPtrRef@DName@@QAEAAV1@XZ 004240eb f i libvcruntime:undname.obj
 0001:000230f5       ?status@DName@@QBE?AW4DNameStatus@@XZ 004240f5 f i libvcruntime:undname.obj
 0001:00023161       ___unDName                 00424161 f   libvcruntime:undname.obj
 0001:00023184       ___unDNameEx               00424184 f   libvcruntime:undname.obj
 0001:00023223       _unDNameGenerateCHPE       00424223 f   libvcruntime:undname.obj
 0001:00023293       __get_unexpected           00424293 f   libvcruntime:unexpected.obj
 0001:000232a5       _set_unexpected            004242a5 f   libvcruntime:unexpected.obj
 0001:000232c3       _unexpected                004242c3 f   libvcruntime:unexpected.obj
 0001:000232e0       ?GetCurrentState@__FrameHandler3@@SAHPAUEHRegistrationNode@@PAXPBU_s_FuncInfo@@@Z 004242e0 f   libvcruntime:ehstate.obj
 0001:000232fd       ?SetState@__FrameHandler3@@SAXPAUEHRegistrationNode@@PBU_s_FuncInfo@@H@Z 004242fd f   libvcruntime:ehstate.obj
 0001:0002330b       ___DestructExceptionObject 0042430b f   libvcruntime:ehhelpers.obj
 0001:000233ab       ?_CallMemberFunction0@@YGXQAX0@Z 004243ab f i libvcruntime:ehhelpers.obj
 0001:000233b8       ?raw_name@type_info@@QBEPBDXZ 004243b8 f i libvcruntime:ehhelpers.obj
 0001:000233bc       __IsExceptionObjectToBeDestroyed 004243bc f   libvcruntime:ehhelpers.obj
 0001:000233e2       __SetWinRTOutOfMemoryExceptionCallback 004243e2 f   libvcruntime:ehhelpers.obj
 0001:000233ef       ___AdjustPointer           004243ef f   libvcruntime:ehhelpers.obj
 0001:00023414       ___FrameUnwindFilter       00424414 f   libvcruntime:ehhelpers.obj
 0001:00023459       ___GetPlatformExceptionInfo 00424459 f   libvcruntime:ehhelpers.obj
 0001:000234a5       ___current_exception       004244a5 f   libvcruntime:ehhelpers.obj
 0001:000234ae       ___current_exception_context 004244ae f   libvcruntime:ehhelpers.obj
 0001:000234b7       ___processing_throw        004244b7 f   libvcruntime:ehhelpers.obj
 0001:000234c0       ___std_terminate           004244c0 f   libvcruntime:ehhelpers.obj
 0001:000234c5       __is_exception_typeof      004244c5 f   libvcruntime:ehhelpers.obj
 0001:00023569       _free                      00424569 f   libucrt:free.obj
 0001:0002356e       _malloc                    0042456e f   libucrt:malloc.obj
 0001:00023580       __libm_sse2_log_precise    00424580 f   libucrt:log_sse2_precise.obj
 0001:00023810       ??$__crt_interlocked_read@J@@YAJPDJ@Z 00424810 f i libucrt:fclose.obj
 0001:0002381c       ??0__crt_stdio_stream@@QAE@QAU_iobuf@@@Z 0042481c f i libucrt:fclose.obj
 0001:0002382c       ??C__crt_stdio_stream@@QBEPAU__crt_stdio_stream_data@@XZ 0042482c f i libucrt:fclose.obj
 0001:0002382f       ?get_flags@__crt_stdio_stream@@QBEJXZ 0042482f f i libucrt:fclose.obj
 0001:00023835       ?is_in_use@__crt_stdio_stream@@QBE_NXZ 00424835 f i libucrt:fclose.obj
 0001:00023841       ?is_string_backed@__crt_stdio_stream@@QBE_NXZ 00424841 f i libucrt:fclose.obj
 0001:0002384d       ?public_stream@__crt_stdio_stream@@QBEPAU_iobuf@@XZ 0042484d f i libucrt:fclose.obj
 0001:00023850       ?valid@__crt_stdio_stream@@QBE_NXZ 00424850 f i libucrt:fclose.obj
 0001:00023858       __fclose_nolock            00424858 f   libucrt:fclose.obj
 0001:000238ce       _fclose                    004248ce f   libucrt:fclose.obj
 0001:00023b5e       ??$open_file@ABQBDABQBDABHPAU_iobuf@@@?$__crt_char_traits@D@@SAPAU_iobuf@@ABQBD0ABH$$QAPAU1@@Z 00424b5e f i libucrt:fopen.obj
 0001:00023b81       ??$open_file@ABQB_WABQB_WABHPAU_iobuf@@@?$__crt_char_traits@_W@@SAPAU_iobuf@@ABQB_W0ABH$$QAPAU1@@Z 00424b81 f i libucrt:fopen.obj
 0001:00023ba4       ?unlock@__crt_stdio_stream@@QBEXXZ 00424ba4 f i libucrt:fopen.obj
 0001:00023bad       __fsopen                   00424bad f   libucrt:fopen.obj
 0001:00023bb8       __wfopen                   00424bb8 f   libucrt:fopen.obj
 0001:00023bcf       __wfopen_s                 00424bcf f   libucrt:fopen.obj
 0001:00023c16       __wfsopen                  00424c16 f   libucrt:fopen.obj
 0001:00023c21       _fopen                     00424c21 f   libucrt:fopen.obj
 0001:00023c38       _fopen_s                   00424c38 f   libucrt:fopen.obj
 0001:00023c7f       ?has_any_buffer@__crt_stdio_stream@@QBE_NXZ 00424c7f f i libucrt:fread.obj
 0001:00023c90       ?has_any_of@__crt_stdio_stream@@QBE_NJ@Z 00424c90 f i libucrt:fread.obj
 0001:00023ca7       ?set_flags@__crt_stdio_stream@@QBE_NJ@Z 00424ca7 f i libucrt:fread.obj
 0001:00023cce       __fread_nolock             00424cce f   libucrt:fread.obj
 0001:00023ceb       __fread_nolock_s           00424ceb f   libucrt:fread.obj
 0001:00023eb7       _fread                     00424eb7 f   libucrt:fread.obj
 0001:00023ed4       _fread_s                   00424ed4 f   libucrt:fread.obj
 0001:00023fe8       ?LongLongSub@@YAJ_J0PA_J@Z 00424fe8 f i libucrt:fseek.obj
 0001:00024069       ?__acrt_stdio_reset_buffer@@YAXV__crt_stdio_stream@@@Z 00425069 f i libucrt:fseek.obj
 0001:000242b8       ?has_all_of@__crt_stdio_stream@@QBE_NJ@Z 004252b8 f i libucrt:fseek.obj
 0001:000242d1       ?lowio_handle@__crt_stdio_stream@@QBEHXZ 004252d1 f i libucrt:fseek.obj
 0001:000242d7       ?unset_flags@__crt_stdio_stream@@QBE_NJ@Z 004252d7 f i libucrt:fseek.obj
 0001:00024301       __fseek_nolock             00425301 f   libucrt:fseek.obj
 0001:0002431c       __fseeki64                 0042531c f   libucrt:fseek.obj
 0001:00024337       __fseeki64_nolock          00425337 f   libucrt:fseek.obj
 0001:00024352       _fseek                     00425352 f   libucrt:fseek.obj
 0001:00024935       ?ctrl_z@__crt_stdio_stream@@QBE_NXZ 00425935 f i libucrt:ftell.obj
 0001:00024941       ?has_big_buffer@__crt_stdio_stream@@QBE_NXZ 00425941 f i libucrt:ftell.obj
 0001:0002494f       ?has_crt_buffer@__crt_stdio_stream@@QBE_NXZ 0042594f f i libucrt:ftell.obj
 0001:0002495b       ?has_setvbuf_buffer@__crt_stdio_stream@@QBE_NXZ 0042595b f i libucrt:ftell.obj
 0001:00024967       __ftell_nolock             00425967 f   libucrt:ftell.obj
 0001:00024972       __ftelli64                 00425972 f   libucrt:ftell.obj
 0001:0002497d       __ftelli64_nolock          0042597d f   libucrt:ftell.obj
 0001:00024988       _ftell                     00425988 f   libucrt:ftell.obj
 0001:00024993       _realloc                   00425993 f   libucrt:realloc.obj
 0001:0002499e       ??$?RV<lambda_11b4f7b0d3157825a5656a18eba1ae27>@@AAV<lambda_b51c0495177f500e782686251704ae76>@@V<lambda_cf89b47920b5017557bfe891e78aca36>@@@?$__crt_seh_guarded_call@I@@QAEI$$QAV<lambda_11b4f7b0d3157825a5656a18eba1ae27>@@AAV<lambda_b51c0495177f500e782686251704ae76>@@$$QAV<lambda_cf89b47920b5017557bfe891e78aca36>@@@Z 0042599e f i libucrt:fwrite.obj
 0001:000249ef       ??$__acrt_lock_stream_and_call@V<lambda_b51c0495177f500e782686251704ae76>@@@@YAIQAU_iobuf@@$$QAV<lambda_b51c0495177f500e782686251704ae76>@@@Z 004259ef f i libucrt:fwrite.obj
 0001:00024a5d       ??0__acrt_stdio_temporary_buffering_guard@@QAE@QAU_iobuf@@@Z 00425a5d f i libucrt:fwrite.obj
 0001:00024a7b       ??1__acrt_stdio_temporary_buffering_guard@@QAE@XZ 00425a7b f i libucrt:fwrite.obj
 0001:00024ae2       __fwrite_nolock            00425ae2 f   libucrt:fwrite.obj
 0001:00024c5b       _fwrite                    00425c5b f   libucrt:fwrite.obj
 0001:00024cb3       _rewind                    00425cb3 f   libucrt:rewind.obj
 0001:00024d81       ??$?0ABV?$stream_output_adapter@D@__crt_stdio_output@@AB_KABQBDABQAU__crt_locale_pointers@@ABQAD@?$format_validation_base@DV?$stream_output_adapter@D@__crt_stdio_output@@@__crt_stdio_output@@IAE@ABV?$stream_output_adapter@D@1@AB_KABQBDABQAU__crt_locale_pointers@@ABQAD@Z 00425d81 f i libucrt:output.obj
 0001:00024da4       ??$?0ABV?$stream_output_adapter@D@__crt_stdio_output@@AB_KABQBDABQAU__crt_locale_pointers@@ABQAD@?$positional_parameter_base@DV?$stream_output_adapter@D@__crt_stdio_output@@@__crt_stdio_output@@IAE@ABV?$stream_output_adapter@D@1@AB_KABQBDABQAU__crt_locale_pointers@@ABQAD@Z 00425da4 f i libucrt:output.obj
 0001:00024dec       ??$?0ABV?$stream_output_adapter@D@__crt_stdio_output@@AB_KABQBDABQAU__crt_locale_pointers@@ABQAD@?$standard_base@DV?$stream_output_adapter@D@__crt_stdio_output@@@__crt_stdio_output@@IAE@ABV?$stream_output_adapter@D@1@AB_KABQBDABQAU__crt_locale_pointers@@ABQAD@Z 00425dec f i libucrt:output.obj
 0001:00024e21       ??$?0ABV?$stream_output_adapter@_W@__crt_stdio_output@@AB_KABQB_WABQAU__crt_locale_pointers@@ABQAD@?$format_validation_base@_WV?$stream_output_adapter@_W@__crt_stdio_output@@@__crt_stdio_output@@IAE@ABV?$stream_output_adapter@_W@1@AB_KABQB_WABQAU__crt_locale_pointers@@ABQAD@Z 00425e21 f i libucrt:output.obj
 0001:00024e44       ??$?0ABV?$stream_output_adapter@_W@__crt_stdio_output@@AB_KABQB_WABQAU__crt_locale_pointers@@ABQAD@?$positional_parameter_base@_WV?$stream_output_adapter@_W@__crt_stdio_output@@@__crt_stdio_output@@IAE@ABV?$stream_output_adapter@_W@1@AB_KABQB_WABQAU__crt_locale_pointers@@ABQAD@Z 00425e44 f i libucrt:output.obj
 0001:00024e8c       ??$?0ABV?$stream_output_adapter@_W@__crt_stdio_output@@AB_KABQB_WABQAU__crt_locale_pointers@@ABQAD@?$standard_base@_WV?$stream_output_adapter@_W@__crt_stdio_output@@@__crt_stdio_output@@IAE@ABV?$stream_output_adapter@_W@1@AB_KABQB_WABQAU__crt_locale_pointers@@ABQAD@Z 00425e8c f i libucrt:output.obj
 0001:00024ec1       ??$?0ABV?$string_output_adapter@D@__crt_stdio_output@@AB_KABQBDABQAU__crt_locale_pointers@@ABQAD@?$format_validation_base@DV?$string_output_adapter@D@__crt_stdio_output@@@__crt_stdio_output@@IAE@ABV?$string_output_adapter@D@1@AB_KABQBDABQAU__crt_locale_pointers@@ABQAD@Z 00425ec1 f i libucrt:output.obj
 0001:00024ee4       ??$?0ABV?$string_output_adapter@D@__crt_stdio_output@@AB_KABQBDABQAU__crt_locale_pointers@@ABQAD@?$positional_parameter_base@DV?$string_output_adapter@D@__crt_stdio_output@@@__crt_stdio_output@@IAE@ABV?$string_output_adapter@D@1@AB_KABQBDABQAU__crt_locale_pointers@@ABQAD@Z 00425ee4 f i libucrt:output.obj
 0001:00024f2c       ??$?0ABV?$string_output_adapter@D@__crt_stdio_output@@AB_KABQBDABQAU__crt_locale_pointers@@ABQAD@?$standard_base@DV?$string_output_adapter@D@__crt_stdio_output@@@__crt_stdio_output@@IAE@ABV?$string_output_adapter@D@1@AB_KABQBDABQAU__crt_locale_pointers@@ABQAD@Z 00425f2c f i libucrt:output.obj
 0001:00024f61       ??$?0ABV?$string_output_adapter@_W@__crt_stdio_output@@AB_KABQB_WABQAU__crt_locale_pointers@@ABQAD@?$format_validation_base@_WV?$string_output_adapter@_W@__crt_stdio_output@@@__crt_stdio_output@@IAE@ABV?$string_output_adapter@_W@1@AB_KABQB_WABQAU__crt_locale_pointers@@ABQAD@Z 00425f61 f i libucrt:output.obj
 0001:00024f84       ??$?0ABV?$string_output_adapter@_W@__crt_stdio_output@@AB_KABQB_WABQAU__crt_locale_pointers@@ABQAD@?$positional_parameter_base@_WV?$string_output_adapter@_W@__crt_stdio_output@@@__crt_stdio_output@@IAE@ABV?$string_output_adapter@_W@1@AB_KABQB_WABQAU__crt_locale_pointers@@ABQAD@Z 00425f84 f i libucrt:output.obj
 0001:00024fcc       ??$?0ABV?$string_output_adapter@_W@__crt_stdio_output@@AB_KABQB_WABQAU__crt_locale_pointers@@ABQAD@?$standard_base@_WV?$string_output_adapter@_W@__crt_stdio_output@@@__crt_stdio_output@@IAE@ABV?$string_output_adapter@_W@1@AB_KABQB_WABQAU__crt_locale_pointers@@ABQAD@Z 00425fcc f i libucrt:output.obj
 0001:00025001       ??$?RV<lambda_2293f24e3ce1ad6fe22ccfb9dec07671>@@AAV<lambda_2565fc715a641e539f44ad02d6823606>@@V<lambda_d3217f279b832965d9ca670dc2993570>@@@?$__crt_seh_guarded_call@H@@QAEH$$QAV<lambda_2293f24e3ce1ad6fe22ccfb9dec07671>@@AAV<lambda_2565fc715a641e539f44ad02d6823606>@@$$QAV<lambda_d3217f279b832965d9ca670dc2993570>@@@Z 00426001 f i libucrt:output.obj
 0001:00025052       ??$?RV<lambda_4d4ac866be0fa3c441830420fabdd2cb>@@AAV<lambda_63a10c2dc8dbb9e4dd1890be52af7c93>@@V<lambda_002af9fa0f8fe472b648c51882d4fc32>@@@?$__crt_seh_guarded_call@H@@QAEH$$QAV<lambda_4d4ac866be0fa3c441830420fabdd2cb>@@AAV<lambda_63a10c2dc8dbb9e4dd1890be52af7c93>@@$$QAV<lambda_002af9fa0f8fe472b648c51882d4fc32>@@@Z 00426052 f i libucrt:output.obj
 0001:000250a3       ??$?RV<lambda_5be909dfbae0a631386585770cd7b676>@@AAV<lambda_e516058a9c289d98c8ca9fea99247804>@@V<lambda_afe2e0cdc5e0ecf6f0d6f5e2f8985e38>@@@?$__crt_seh_guarded_call@H@@QAEH$$QAV<lambda_5be909dfbae0a631386585770cd7b676>@@AAV<lambda_e516058a9c289d98c8ca9fea99247804>@@$$QAV<lambda_afe2e0cdc5e0ecf6f0d6f5e2f8985e38>@@@Z 004260a3 f i libucrt:output.obj
 0001:000250f4       ??$?RV<lambda_823d65812123d985753d53e2a8c25d20>@@AAV<lambda_0a97c9e57da7be065955385c79108ff2>@@V<lambda_4d2973f3ad2d226f00468307185dca1b>@@@?$__crt_seh_guarded_call@H@@QAEH$$QAV<lambda_823d65812123d985753d53e2a8c25d20>@@AAV<lambda_0a97c9e57da7be065955385c79108ff2>@@$$QAV<lambda_4d2973f3ad2d226f00468307185dca1b>@@@Z 004260f4 f i libucrt:output.obj
 0001:00025145       ??$?RV<lambda_ab9923ffb5d694ec0d78876dd103e44f>@@AAV<lambda_481dd5778c961fbcd3b60b650e9b9dc4>@@V<lambda_7923d86c9e3f319b415918ec4b39749c>@@@?$__crt_seh_guarded_call@H@@QAEH$$QAV<lambda_ab9923ffb5d694ec0d78876dd103e44f>@@AAV<lambda_481dd5778c961fbcd3b60b650e9b9dc4>@@$$QAV<lambda_7923d86c9e3f319b415918ec4b39749c>@@@Z 00426145 f i libucrt:output.obj
 0001:00025196       ??$?RV<lambda_db08b09ef7aa9d4f8620ce68402612bc>@@AAV<lambda_4f2c1eaeead2a5fc776db5b62ea0fb9b>@@V<lambda_3ae262bc35d4ba6a3825c4f6bcaaf95c>@@@?$__crt_seh_guarded_call@H@@QAEH$$QAV<lambda_db08b09ef7aa9d4f8620ce68402612bc>@@AAV<lambda_4f2c1eaeead2a5fc776db5b62ea0fb9b>@@$$QAV<lambda_3ae262bc35d4ba6a3825c4f6bcaaf95c>@@@Z 00426196 f i libucrt:output.obj
 0001:000251e7       ??$__acrt_lock_stream_and_call@V<lambda_0a97c9e57da7be065955385c79108ff2>@@@@YAHQAU_iobuf@@$$QAV<lambda_0a97c9e57da7be065955385c79108ff2>@@@Z 004261e7 f i libucrt:output.obj
 0001:0002520f       ??$__acrt_lock_stream_and_call@V<lambda_2565fc715a641e539f44ad02d6823606>@@@@YAHQAU_iobuf@@$$QAV<lambda_2565fc715a641e539f44ad02d6823606>@@@Z 0042620f f i libucrt:output.obj
 0001:00025237       ??$__acrt_lock_stream_and_call@V<lambda_481dd5778c961fbcd3b60b650e9b9dc4>@@@@YAHQAU_iobuf@@$$QAV<lambda_481dd5778c961fbcd3b60b650e9b9dc4>@@@Z 00426237 f i libucrt:output.obj
 0001:0002525f       ??$__acrt_lock_stream_and_call@V<lambda_4f2c1eaeead2a5fc776db5b62ea0fb9b>@@@@YAHQAU_iobuf@@$$QAV<lambda_4f2c1eaeead2a5fc776db5b62ea0fb9b>@@@Z 0042625f f i libucrt:output.obj
 0001:00025287       ??$__acrt_lock_stream_and_call@V<lambda_63a10c2dc8dbb9e4dd1890be52af7c93>@@@@YAHQAU_iobuf@@$$QAV<lambda_63a10c2dc8dbb9e4dd1890be52af7c93>@@@Z 00426287 f i libucrt:output.obj
 0001:000252af       ??$__acrt_lock_stream_and_call@V<lambda_e516058a9c289d98c8ca9fea99247804>@@@@YAHQAU_iobuf@@$$QAV<lambda_e516058a9c289d98c8ca9fea99247804>@@@Z 004262af f i libucrt:output.obj
 0001:00026170       ??$count@D@formatting_buffer@__crt_stdio_output@@QBEIXZ 00427170 f i libucrt:output.obj
 0001:00026188       ??$data@D@formatting_buffer@__crt_stdio_output@@QAEPADXZ 00427188 f i libucrt:output.obj
 0001:00026195       ??$data@_W@formatting_buffer@__crt_stdio_output@@QAEPA_WXZ 00427195 f i libucrt:output.obj
 0001:000261a2       ??$ensure_buffer_is_big_enough@D@formatting_buffer@__crt_stdio_output@@QAE_NI@Z 004271a2 f i libucrt:output.obj
 0001:00026228       ??$extract_argument_from_va_list@C_J@?$positional_parameter_base@DV?$stream_output_adapter@D@__crt_stdio_output@@@__crt_stdio_output@@IAE_NAA_J@Z 00427228 f i libucrt:output.obj
 0001:000262a7       ??$extract_argument_from_va_list@C_J@?$positional_parameter_base@DV?$string_output_adapter@D@__crt_stdio_output@@@__crt_stdio_output@@IAE_NAA_J@Z 004272a7 f i libucrt:output.obj
 0001:00026326       ??$extract_argument_from_va_list@C_J@?$positional_parameter_base@_WV?$stream_output_adapter@_W@__crt_stdio_output@@@__crt_stdio_output@@IAE_NAA_J@Z 00427326 f i libucrt:output.obj
 0001:000263a5       ??$extract_argument_from_va_list@C_J@?$positional_parameter_base@_WV?$string_output_adapter@_W@__crt_stdio_output@@@__crt_stdio_output@@IAE_NAA_J@Z 004273a5 f i libucrt:output.obj
 0001:00026424       ??$extract_argument_from_va_list@C_J@?$standard_base@DV?$stream_output_adapter@D@__crt_stdio_output@@@__crt_stdio_output@@IAE_NAA_J@Z 00427424 f i libucrt:output.obj
 0001:00026443       ??$extract_argument_from_va_list@C_J@?$standard_base@DV?$string_output_adapter@D@__crt_stdio_output@@@__crt_stdio_output@@IAE_NAA_J@Z 00427443 f i libucrt:output.obj
 0001:00026462       ??$extract_argument_from_va_list@C_J@?$standard_base@_WV?$stream_output_adapter@_W@__crt_stdio_output@@@__crt_stdio_output@@IAE_NAA_J@Z 00427462 f i libucrt:output.obj
 0001:00026481       ??$extract_argument_from_va_list@C_J@?$standard_base@_WV?$string_output_adapter@_W@__crt_stdio_output@@@__crt_stdio_output@@IAE_NAA_J@Z 00427481 f i libucrt:output.obj
 0001:000264a0       ??$extract_argument_from_va_list@E_J@?$positional_parameter_base@DV?$stream_output_adapter@D@__crt_stdio_output@@@__crt_stdio_output@@IAE_NAA_J@Z 004274a0 f i libucrt:output.obj
 0001:0002651f       ??$extract_argument_from_va_list@E_J@?$positional_parameter_base@DV?$string_output_adapter@D@__crt_stdio_output@@@__crt_stdio_output@@IAE_NAA_J@Z 0042751f f i libucrt:output.obj
 0001:0002659e       ??$extract_argument_from_va_list@E_J@?$positional_parameter_base@_WV?$stream_output_adapter@_W@__crt_stdio_output@@@__crt_stdio_output@@IAE_NAA_J@Z 0042759e f i libucrt:output.obj
 0001:0002661d       ??$extract_argument_from_va_list@E_J@?$positional_parameter_base@_WV?$string_output_adapter@_W@__crt_stdio_output@@@__crt_stdio_output@@IAE_NAA_J@Z 0042761d f i libucrt:output.obj
 0001:0002669c       ??$extract_argument_from_va_list@E_J@?$standard_base@DV?$stream_output_adapter@D@__crt_stdio_output@@@__crt_stdio_output@@IAE_NAA_J@Z 0042769c f i libucrt:output.obj
 0001:000266bb       ??$extract_argument_from_va_list@E_J@?$standard_base@DV?$string_output_adapter@D@__crt_stdio_output@@@__crt_stdio_output@@IAE_NAA_J@Z 004276bb f i libucrt:output.obj
 0001:000266da       ??$extract_argument_from_va_list@E_J@?$standard_base@_WV?$stream_output_adapter@_W@__crt_stdio_output@@@__crt_stdio_output@@IAE_NAA_J@Z 004276da f i libucrt:output.obj
 0001:000266f9       ??$extract_argument_from_va_list@E_J@?$standard_base@_WV?$string_output_adapter@_W@__crt_stdio_output@@@__crt_stdio_output@@IAE_NAA_J@Z 004276f9 f i libucrt:output.obj
 0001:00026718       ??$extract_argument_from_va_list@F_J@?$positional_parameter_base@DV?$stream_output_adapter@D@__crt_stdio_output@@@__crt_stdio_output@@IAE_NAA_J@Z 00427718 f i libucrt:output.obj
 0001:00026797       ??$extract_argument_from_va_list@F_J@?$positional_parameter_base@DV?$string_output_adapter@D@__crt_stdio_output@@@__crt_stdio_output@@IAE_NAA_J@Z 00427797 f i libucrt:output.obj
 0001:00026816       ??$extract_argument_from_va_list@F_J@?$positional_parameter_base@_WV?$stream_output_adapter@_W@__crt_stdio_output@@@__crt_stdio_output@@IAE_NAA_J@Z 00427816 f i libucrt:output.obj
 0001:00026895       ??$extract_argument_from_va_list@F_J@?$positional_parameter_base@_WV?$string_output_adapter@_W@__crt_stdio_output@@@__crt_stdio_output@@IAE_NAA_J@Z 00427895 f i libucrt:output.obj
 0001:00026914       ??$extract_argument_from_va_list@F_J@?$standard_base@DV?$stream_output_adapter@D@__crt_stdio_output@@@__crt_stdio_output@@IAE_NAA_J@Z 00427914 f i libucrt:output.obj
 0001:00026933       ??$extract_argument_from_va_list@F_J@?$standard_base@DV?$string_output_adapter@D@__crt_stdio_output@@@__crt_stdio_output@@IAE_NAA_J@Z 00427933 f i libucrt:output.obj
 0001:00026952       ??$extract_argument_from_va_list@F_J@?$standard_base@_WV?$stream_output_adapter@_W@__crt_stdio_output@@@__crt_stdio_output@@IAE_NAA_J@Z 00427952 f i libucrt:output.obj
 0001:00026971       ??$extract_argument_from_va_list@F_J@?$standard_base@_WV?$string_output_adapter@_W@__crt_stdio_output@@@__crt_stdio_output@@IAE_NAA_J@Z 00427971 f i libucrt:output.obj
 0001:00026990       ??$extract_argument_from_va_list@GD@?$positional_parameter_base@DV?$stream_output_adapter@D@__crt_stdio_output@@@__crt_stdio_output@@IAE_NAAD@Z 00427990 f i libucrt:output.obj
 0001:00026a0e       ??$extract_argument_from_va_list@GD@?$positional_parameter_base@DV?$string_output_adapter@D@__crt_stdio_output@@@__crt_stdio_output@@IAE_NAAD@Z 00427a0e f i libucrt:output.obj
 0001:00026a8c       ??$extract_argument_from_va_list@GD@?$standard_base@DV?$stream_output_adapter@D@__crt_stdio_output@@@__crt_stdio_output@@IAE_NAAD@Z 00427a8c f i libucrt:output.obj
 0001:00026aa6       ??$extract_argument_from_va_list@GD@?$standard_base@DV?$string_output_adapter@D@__crt_stdio_output@@@__crt_stdio_output@@IAE_NAAD@Z 00427aa6 f i libucrt:output.obj
 0001:00026ac0       ??$extract_argument_from_va_list@G_J@?$positional_parameter_base@DV?$stream_output_adapter@D@__crt_stdio_output@@@__crt_stdio_output@@IAE_NAA_J@Z 00427ac0 f i libucrt:output.obj
 0001:00026b3f       ??$extract_argument_from_va_list@G_J@?$positional_parameter_base@DV?$string_output_adapter@D@__crt_stdio_output@@@__crt_stdio_output@@IAE_NAA_J@Z 00427b3f f i libucrt:output.obj
 0001:00026bbe       ??$extract_argument_from_va_list@G_J@?$positional_parameter_base@_WV?$stream_output_adapter@_W@__crt_stdio_output@@@__crt_stdio_output@@IAE_NAA_J@Z 00427bbe f i libucrt:output.obj
 0001:00026c3d       ??$extract_argument_from_va_list@G_J@?$positional_parameter_base@_WV?$string_output_adapter@_W@__crt_stdio_output@@@__crt_stdio_output@@IAE_NAA_J@Z 00427c3d f i libucrt:output.obj
 0001:00026cbc       ??$extract_argument_from_va_list@G_J@?$standard_base@DV?$stream_output_adapter@D@__crt_stdio_output@@@__crt_stdio_output@@IAE_NAA_J@Z 00427cbc f i libucrt:output.obj
 0001:00026cdb       ??$extract_argument_from_va_list@G_J@?$standard_base@DV?$string_output_adapter@D@__crt_stdio_output@@@__crt_stdio_output@@IAE_NAA_J@Z 00427cdb f i libucrt:output.obj
 0001:00026cfa       ??$extract_argument_from_va_list@G_J@?$standard_base@_WV?$stream_output_adapter@_W@__crt_stdio_output@@@__crt_stdio_output@@IAE_NAA_J@Z 00427cfa f i libucrt:output.obj
 0001:00026d19       ??$extract_argument_from_va_list@G_J@?$standard_base@_WV?$string_output_adapter@_W@__crt_stdio_output@@@__crt_stdio_output@@IAE_NAA_J@Z 00427d19 f i libucrt:output.obj
 0001:00026d38       ??$extract_argument_from_va_list@H_J@?$positional_parameter_base@DV?$stream_output_adapter@D@__crt_stdio_output@@@__crt_stdio_output@@IAE_NAA_J@Z 00427d38 f i libucrt:output.obj
 0001:00026db5       ??$extract_argument_from_va_list@H_J@?$positional_parameter_base@DV?$string_output_adapter@D@__crt_stdio_output@@@__crt_stdio_output@@IAE_NAA_J@Z 00427db5 f i libucrt:output.obj
 0001:00026e32       ??$extract_argument_from_va_list@H_J@?$positional_parameter_base@_WV?$stream_output_adapter@_W@__crt_stdio_output@@@__crt_stdio_output@@IAE_NAA_J@Z 00427e32 f i libucrt:output.obj
 0001:00026eaf       ??$extract_argument_from_va_list@H_J@?$positional_parameter_base@_WV?$string_output_adapter@_W@__crt_stdio_output@@@__crt_stdio_output@@IAE_NAA_J@Z 00427eaf f i libucrt:output.obj
 0001:00026f2c       ??$extract_argument_from_va_list@H_J@?$standard_base@DV?$stream_output_adapter@D@__crt_stdio_output@@@__crt_stdio_output@@IAE_NAA_J@Z 00427f2c f i libucrt:output.obj
 0001:00026f4a       ??$extract_argument_from_va_list@H_J@?$standard_base@DV?$string_output_adapter@D@__crt_stdio_output@@@__crt_stdio_output@@IAE_NAA_J@Z 00427f4a f i libucrt:output.obj
 0001:00026f68       ??$extract_argument_from_va_list@H_J@?$standard_base@_WV?$stream_output_adapter@_W@__crt_stdio_output@@@__crt_stdio_output@@IAE_NAA_J@Z 00427f68 f i libucrt:output.obj
 0001:00026f86       ??$extract_argument_from_va_list@H_J@?$standard_base@_WV?$string_output_adapter@_W@__crt_stdio_output@@@__crt_stdio_output@@IAE_NAA_J@Z 00427f86 f i libucrt:output.obj
 0001:00026fa4       ??$extract_argument_from_va_list@I_J@?$positional_parameter_base@DV?$stream_output_adapter@D@__crt_stdio_output@@@__crt_stdio_output@@IAE_NAA_J@Z 00427fa4 f i libucrt:output.obj
 0001:0002702a       ??$extract_argument_from_va_list@I_J@?$positional_parameter_base@DV?$string_output_adapter@D@__crt_stdio_output@@@__crt_stdio_output@@IAE_NAA_J@Z 0042802a f i libucrt:output.obj
 0001:000270b0       ??$extract_argument_from_va_list@I_J@?$positional_parameter_base@_WV?$stream_output_adapter@_W@__crt_stdio_output@@@__crt_stdio_output@@IAE_NAA_J@Z 004280b0 f i libucrt:output.obj
 0001:00027136       ??$extract_argument_from_va_list@I_J@?$positional_parameter_base@_WV?$string_output_adapter@_W@__crt_stdio_output@@@__crt_stdio_output@@IAE_NAA_J@Z 00428136 f i libucrt:output.obj
 0001:000271bc       ??$extract_argument_from_va_list@I_J@?$standard_base@DV?$stream_output_adapter@D@__crt_stdio_output@@@__crt_stdio_output@@IAE_NAA_J@Z 004281bc f i libucrt:output.obj
 0001:000271da       ??$extract_argument_from_va_list@I_J@?$standard_base@DV?$string_output_adapter@D@__crt_stdio_output@@@__crt_stdio_output@@IAE_NAA_J@Z 004281da f i libucrt:output.obj
 0001:000271f8       ??$extract_argument_from_va_list@I_J@?$standard_base@_WV?$stream_output_adapter@_W@__crt_stdio_output@@@__crt_stdio_output@@IAE_NAA_J@Z 004281f8 f i libucrt:output.obj
 0001:00027216       ??$extract_argument_from_va_list@I_J@?$standard_base@_WV?$string_output_adapter@_W@__crt_stdio_output@@@__crt_stdio_output@@IAE_NAA_J@Z 00428216 f i libucrt:output.obj
 0001:00027234       ??$extract_argument_from_va_list@PADPAD@?$positional_parameter_base@DV?$stream_output_adapter@D@__crt_stdio_output@@@__crt_stdio_output@@IAE_NAAPAD@Z 00428234 f i libucrt:output.obj
 0001:000272b2       ??$extract_argument_from_va_list@PADPAD@?$positional_parameter_base@DV?$string_output_adapter@D@__crt_stdio_output@@@__crt_stdio_output@@IAE_NAAPAD@Z 004282b2 f i libucrt:output.obj
 0001:00027330       ??$extract_argument_from_va_list@PADPAD@?$positional_parameter_base@_WV?$stream_output_adapter@_W@__crt_stdio_output@@@__crt_stdio_output@@IAE_NAAPAD@Z 00428330 f i libucrt:output.obj
 0001:000273ae       ??$extract_argument_from_va_list@PADPAD@?$positional_parameter_base@_WV?$string_output_adapter@_W@__crt_stdio_output@@@__crt_stdio_output@@IAE_NAAPAD@Z 004283ae f i libucrt:output.obj
 0001:0002742c       ??$extract_argument_from_va_list@PADPAD@?$standard_base@DV?$stream_output_adapter@D@__crt_stdio_output@@@__crt_stdio_output@@IAE_NAAPAD@Z 0042842c f i libucrt:output.obj
 0001:00027446       ??$extract_argument_from_va_list@PADPAD@?$standard_base@DV?$string_output_adapter@D@__crt_stdio_output@@@__crt_stdio_output@@IAE_NAAPAD@Z 00428446 f i libucrt:output.obj
 0001:00027460       ??$extract_argument_from_va_list@PADPAD@?$standard_base@_WV?$stream_output_adapter@_W@__crt_stdio_output@@@__crt_stdio_output@@IAE_NAAPAD@Z 00428460 f i libucrt:output.obj
 0001:0002747a       ??$extract_argument_from_va_list@PADPAD@?$standard_base@_WV?$string_output_adapter@_W@__crt_stdio_output@@@__crt_stdio_output@@IAE_NAAPAD@Z 0042847a f i libucrt:output.obj
 0001:00027494       ??$extract_argument_from_va_list@PAUansi_string@?1??type_case_Z@?$output_processor@DV?$stream_output_adapter@D@__crt_stdio_output@@V?$format_validation_base@DV?$stream_output_adapter@D@__crt_stdio_output@@@2@@__crt_stdio_output@@AAE_NXZ@PAU1?1??234@AAE_NXZ@@?$standard_base@DV?$stream_output_adapter@D@__crt_stdio_output@@@__crt_stdio_output@@IAE_NAAPAUansi_string@?1??type_case_Z@?$output_processor@DV?$stream_output_adapter@D@__crt_stdio_output@@V?$format_validation_base@DV?$stream_output_adapter@D@__crt_stdio_output@@@2@@1@AAE_NXZ@@Z 00428494 f i libucrt:output.obj
 0001:000274ae       ??$extract_argument_from_va_list@PAUansi_string@?1??type_case_Z@?$output_processor@DV?$stream_output_adapter@D@__crt_stdio_output@@V?$positional_parameter_base@DV?$stream_output_adapter@D@__crt_stdio_output@@@2@@__crt_stdio_output@@AAE_NXZ@PAU1?1??234@AAE_NXZ@@?$positional_parameter_base@DV?$stream_output_adapter@D@__crt_stdio_output@@@__crt_stdio_output@@IAE_NAAPAUansi_string@?1??type_case_Z@?$output_processor@DV?$stream_output_adapter@D@__crt_stdio_output@@V?$positional_parameter_base@DV?$stream_output_adapter@D@__crt_stdio_output@@@2@@1@AAE_NXZ@@Z 004284ae f i libucrt:output.obj
 0001:0002752c       ??$extract_argument_from_va_list@PAUansi_string@?1??type_case_Z@?$output_processor@DV?$stream_output_adapter@D@__crt_stdio_output@@V?$positional_parameter_base@DV?$stream_output_adapter@D@__crt_stdio_output@@@2@@__crt_stdio_output@@AAE_NXZ@PAU1?1??234@AAE_NXZ@@?$standard_base@DV?$stream_output_adapter@D@__crt_stdio_output@@@__crt_stdio_output@@IAE_NAAPAUansi_string@?1??type_case_Z@?$output_processor@DV?$stream_output_adapter@D@__crt_stdio_output@@V?$positional_parameter_base@DV?$stream_output_adapter@D@__crt_stdio_output@@@2@@1@AAE_NXZ@@Z 0042852c f i libucrt:output.obj
 0001:00027546       ??$extract_argument_from_va_list@PAUansi_string@?1??type_case_Z@?$output_processor@DV?$stream_output_adapter@D@__crt_stdio_output@@V?$standard_base@DV?$stream_output_adapter@D@__crt_stdio_output@@@2@@__crt_stdio_output@@AAE_NXZ@PAU1?1??234@AAE_NXZ@@?$standard_base@DV?$stream_output_adapter@D@__crt_stdio_output@@@__crt_stdio_output@@IAE_NAAPAUansi_string@?1??type_case_Z@?$output_processor@DV?$stream_output_adapter@D@__crt_stdio_output@@V?$standard_base@DV?$stream_output_adapter@D@__crt_stdio_output@@@2@@1@AAE_NXZ@@Z 00428546 f i libucrt:output.obj
 0001:00027560       ??$extract_argument_from_va_list@PAUansi_string@?1??type_case_Z@?$output_processor@DV?$string_output_adapter@D@__crt_stdio_output@@V?$format_validation_base@DV?$string_output_adapter@D@__crt_stdio_output@@@2@@__crt_stdio_output@@AAE_NXZ@PAU1?1??234@AAE_NXZ@@?$standard_base@DV?$string_output_adapter@D@__crt_stdio_output@@@__crt_stdio_output@@IAE_NAAPAUansi_string@?1??type_case_Z@?$output_processor@DV?$string_output_adapter@D@__crt_stdio_output@@V?$format_validation_base@DV?$string_output_adapter@D@__crt_stdio_output@@@2@@1@AAE_NXZ@@Z 00428560 f i libucrt:output.obj
 0001:0002757a       ??$extract_argument_from_va_list@PAUansi_string@?1??type_case_Z@?$output_processor@DV?$string_output_adapter@D@__crt_stdio_output@@V?$positional_parameter_base@DV?$string_output_adapter@D@__crt_stdio_output@@@2@@__crt_stdio_output@@AAE_NXZ@PAU1?1??234@AAE_NXZ@@?$positional_parameter_base@DV?$string_output_adapter@D@__crt_stdio_output@@@__crt_stdio_output@@IAE_NAAPAUansi_string@?1??type_case_Z@?$output_processor@DV?$string_output_adapter@D@__crt_stdio_output@@V?$positional_parameter_base@DV?$string_output_adapter@D@__crt_stdio_output@@@2@@1@AAE_NXZ@@Z 0042857a f i libucrt:output.obj
 0001:000275f8       ??$extract_argument_from_va_list@PAUansi_string@?1??type_case_Z@?$output_processor@DV?$string_output_adapter@D@__crt_stdio_output@@V?$positional_parameter_base@DV?$string_output_adapter@D@__crt_stdio_output@@@2@@__crt_stdio_output@@AAE_NXZ@PAU1?1??234@AAE_NXZ@@?$standard_base@DV?$string_output_adapter@D@__crt_stdio_output@@@__crt_stdio_output@@IAE_NAAPAUansi_string@?1??type_case_Z@?$output_processor@DV?$string_output_adapter@D@__crt_stdio_output@@V?$positional_parameter_base@DV?$string_output_adapter@D@__crt_stdio_output@@@2@@1@AAE_NXZ@@Z 004285f8 f i libucrt:output.obj
 0001:00027612       ??$extract_argument_from_va_list@PAUansi_string@?1??type_case_Z@?$output_processor@DV?$string_output_adapter@D@__crt_stdio_output@@V?$standard_base@DV?$string_output_adapter@D@__crt_stdio_output@@@2@@__crt_stdio_output@@AAE_NXZ@PAU1?1??234@AAE_NXZ@@?$standard_base@DV?$string_output_adapter@D@__crt_stdio_output@@@__crt_stdio_output@@IAE_NAAPAUansi_string@?1??type_case_Z@?$output_processor@DV?$string_output_adapter@D@__crt_stdio_output@@V?$standard_base@DV?$string_output_adapter@D@__crt_stdio_output@@@2@@1@AAE_NXZ@@Z 00428612 f i libucrt:output.obj
 0001:0002762c       ??$extract_argument_from_va_list@PAUansi_string@?1??type_case_Z@?$output_processor@_WV?$stream_output_adapter@_W@__crt_stdio_output@@V?$format_validation_base@_WV?$stream_output_adapter@_W@__crt_stdio_output@@@2@@__crt_stdio_output@@AAE_NXZ@PAU1?1??234@AAE_NXZ@@?$standard_base@_WV?$stream_output_adapter@_W@__crt_stdio_output@@@__crt_stdio_output@@IAE_NAAPAUansi_string@?1??type_case_Z@?$output_processor@_WV?$stream_output_adapter@_W@__crt_stdio_output@@V?$format_validation_base@_WV?$stream_output_adapter@_W@__crt_stdio_output@@@2@@1@AAE_NXZ@@Z 0042862c f i libucrt:output.obj
 0001:00027646       ??$extract_argument_from_va_list@PAUansi_string@?1??type_case_Z@?$output_processor@_WV?$stream_output_adapter@_W@__crt_stdio_output@@V?$positional_parameter_base@_WV?$stream_output_adapter@_W@__crt_stdio_output@@@2@@__crt_stdio_output@@AAE_NXZ@PAU1?1??234@AAE_NXZ@@?$positional_parameter_base@_WV?$stream_output_adapter@_W@__crt_stdio_output@@@__crt_stdio_output@@IAE_NAAPAUansi_string@?1??type_case_Z@?$output_processor@_WV?$stream_output_adapter@_W@__crt_stdio_output@@V?$positional_parameter_base@_WV?$stream_output_adapter@_W@__crt_stdio_output@@@2@@1@AAE_NXZ@@Z 00428646 f i libucrt:output.obj
 0001:000276c4       ??$extract_argument_from_va_list@PAUansi_string@?1??type_case_Z@?$output_processor@_WV?$stream_output_adapter@_W@__crt_stdio_output@@V?$positional_parameter_base@_WV?$stream_output_adapter@_W@__crt_stdio_output@@@2@@__crt_stdio_output@@AAE_NXZ@PAU1?1??234@AAE_NXZ@@?$standard_base@_WV?$stream_output_adapter@_W@__crt_stdio_output@@@__crt_stdio_output@@IAE_NAAPAUansi_string@?1??type_case_Z@?$output_processor@_WV?$stream_output_adapter@_W@__crt_stdio_output@@V?$positional_parameter_base@_WV?$stream_output_adapter@_W@__crt_stdio_output@@@2@@1@AAE_NXZ@@Z 004286c4 f i libucrt:output.obj
 0001:000276de       ??$extract_argument_from_va_list@PAUansi_string@?1??type_case_Z@?$output_processor@_WV?$stream_output_adapter@_W@__crt_stdio_output@@V?$standard_base@_WV?$stream_output_adapter@_W@__crt_stdio_output@@@2@@__crt_stdio_output@@AAE_NXZ@PAU1?1??234@AAE_NXZ@@?$standard_base@_WV?$stream_output_adapter@_W@__crt_stdio_output@@@__crt_stdio_output@@IAE_NAAPAUansi_string@?1??type_case_Z@?$output_processor@_WV?$stream_output_adapter@_W@__crt_stdio_output@@V?$standard_base@_WV?$stream_output_adapter@_W@__crt_stdio_output@@@2@@1@AAE_NXZ@@Z 004286de f i libucrt:output.obj
 0001:000276f8       ??$extract_argument_from_va_list@PAUansi_string@?1??type_case_Z@?$output_processor@_WV?$string_output_adapter@_W@__crt_stdio_output@@V?$format_validation_base@_WV?$string_output_adapter@_W@__crt_stdio_output@@@2@@__crt_stdio_output@@AAE_NXZ@PAU1?1??234@AAE_NXZ@@?$standard_base@_WV?$string_output_adapter@_W@__crt_stdio_output@@@__crt_stdio_output@@IAE_NAAPAUansi_string@?1??type_case_Z@?$output_processor@_WV?$string_output_adapter@_W@__crt_stdio_output@@V?$format_validation_base@_WV?$string_output_adapter@_W@__crt_stdio_output@@@2@@1@AAE_NXZ@@Z 004286f8 f i libucrt:output.obj
 0001:00027712       ??$extract_argument_from_va_list@PAUansi_string@?1??type_case_Z@?$output_processor@_WV?$string_output_adapter@_W@__crt_stdio_output@@V?$positional_parameter_base@_WV?$string_output_adapter@_W@__crt_stdio_output@@@2@@__crt_stdio_output@@AAE_NXZ@PAU1?1??234@AAE_NXZ@@?$positional_parameter_base@_WV?$string_output_adapter@_W@__crt_stdio_output@@@__crt_stdio_output@@IAE_NAAPAUansi_string@?1??type_case_Z@?$output_processor@_WV?$string_output_adapter@_W@__crt_stdio_output@@V?$positional_parameter_base@_WV?$string_output_adapter@_W@__crt_stdio_output@@@2@@1@AAE_NXZ@@Z 00428712 f i libucrt:output.obj
 0001:00027790       ??$extract_argument_from_va_list@PAUansi_string@?1??type_case_Z@?$output_processor@_WV?$string_output_adapter@_W@__crt_stdio_output@@V?$positional_parameter_base@_WV?$string_output_adapter@_W@__crt_stdio_output@@@2@@__crt_stdio_output@@AAE_NXZ@PAU1?1??234@AAE_NXZ@@?$standard_base@_WV?$string_output_adapter@_W@__crt_stdio_output@@@__crt_stdio_output@@IAE_NAAPAUansi_string@?1??type_case_Z@?$output_processor@_WV?$string_output_adapter@_W@__crt_stdio_output@@V?$positional_parameter_base@_WV?$string_output_adapter@_W@__crt_stdio_output@@@2@@1@AAE_NXZ@@Z 00428790 f i libucrt:output.obj
 0001:000277aa       ??$extract_argument_from_va_list@PAUansi_string@?1??type_case_Z@?$output_processor@_WV?$string_output_adapter@_W@__crt_stdio_output@@V?$standard_base@_WV?$string_output_adapter@_W@__crt_stdio_output@@@2@@__crt_stdio_output@@AAE_NXZ@PAU1?1??234@AAE_NXZ@@?$standard_base@_WV?$string_output_adapter@_W@__crt_stdio_output@@@__crt_stdio_output@@IAE_NAAPAUansi_string@?1??type_case_Z@?$output_processor@_WV?$string_output_adapter@_W@__crt_stdio_output@@V?$standard_base@_WV?$string_output_adapter@_W@__crt_stdio_output@@@2@@1@AAE_NXZ@@Z 004287aa f i libucrt:output.obj
 0001:000277c4       ??$extract_argument_from_va_list@PAXPAX@?$positional_parameter_base@DV?$stream_output_adapter@D@__crt_stdio_output@@@__crt_stdio_output@@IAE_NAAPAX@Z 004287c4 f i libucrt:output.obj
 0001:00027842       ??$extract_argument_from_va_list@PAXPAX@?$positional_parameter_base@DV?$string_output_adapter@D@__crt_stdio_output@@@__crt_stdio_output@@IAE_NAAPAX@Z 00428842 f i libucrt:output.obj
 0001:000278c0       ??$extract_argument_from_va_list@PAXPAX@?$positional_parameter_base@_WV?$stream_output_adapter@_W@__crt_stdio_output@@@__crt_stdio_output@@IAE_NAAPAX@Z 004288c0 f i libucrt:output.obj
 0001:0002793e       ??$extract_argument_from_va_list@PAXPAX@?$positional_parameter_base@_WV?$string_output_adapter@_W@__crt_stdio_output@@@__crt_stdio_output@@IAE_NAAPAX@Z 0042893e f i libucrt:output.obj
 0001:000279bc       ??$extract_argument_from_va_list@PAXPAX@?$standard_base@DV?$stream_output_adapter@D@__crt_stdio_output@@@__crt_stdio_output@@IAE_NAAPAX@Z 004289bc f i libucrt:output.obj
 0001:000279d6       ??$extract_argument_from_va_list@PAXPAX@?$standard_base@DV?$string_output_adapter@D@__crt_stdio_output@@@__crt_stdio_output@@IAE_NAAPAX@Z 004289d6 f i libucrt:output.obj
 0001:000279f0       ??$extract_argument_from_va_list@PAXPAX@?$standard_base@_WV?$stream_output_adapter@_W@__crt_stdio_output@@@__crt_stdio_output@@IAE_NAAPAX@Z 004289f0 f i libucrt:output.obj
 0001:00027a0a       ??$extract_argument_from_va_list@PAXPAX@?$standard_base@_WV?$string_output_adapter@_W@__crt_stdio_output@@@__crt_stdio_output@@IAE_NAAPAX@Z 00428a0a f i libucrt:output.obj
 0001:00027a24       ??$extract_argument_from_va_list@U_CRT_DOUBLE@@U1@@?$positional_parameter_base@DV?$stream_output_adapter@D@__crt_stdio_output@@@__crt_stdio_output@@IAE_NAAU_CRT_DOUBLE@@@Z 00428a24 f i libucrt:output.obj
 0001:00027ab2       ??$extract_argument_from_va_list@U_CRT_DOUBLE@@U1@@?$positional_parameter_base@DV?$string_output_adapter@D@__crt_stdio_output@@@__crt_stdio_output@@IAE_NAAU_CRT_DOUBLE@@@Z 00428ab2 f i libucrt:output.obj
 0001:00027b40       ??$extract_argument_from_va_list@U_CRT_DOUBLE@@U1@@?$positional_parameter_base@_WV?$stream_output_adapter@_W@__crt_stdio_output@@@__crt_stdio_output@@IAE_NAAU_CRT_DOUBLE@@@Z 00428b40 f i libucrt:output.obj
 0001:00027bce       ??$extract_argument_from_va_list@U_CRT_DOUBLE@@U1@@?$positional_parameter_base@_WV?$string_output_adapter@_W@__crt_stdio_output@@@__crt_stdio_output@@IAE_NAAU_CRT_DOUBLE@@@Z 00428bce f i libucrt:output.obj
 0001:00027c5c       ??$extract_argument_from_va_list@U_CRT_DOUBLE@@U1@@?$standard_base@DV?$stream_output_adapter@D@__crt_stdio_output@@@__crt_stdio_output@@IAE_NAAU_CRT_DOUBLE@@@Z 00428c5c f i libucrt:output.obj
 0001:00027c7c       ??$extract_argument_from_va_list@U_CRT_DOUBLE@@U1@@?$standard_base@DV?$string_output_adapter@D@__crt_stdio_output@@@__crt_stdio_output@@IAE_NAAU_CRT_DOUBLE@@@Z 00428c7c f i libucrt:output.obj
 0001:00027c9c       ??$extract_argument_from_va_list@U_CRT_DOUBLE@@U1@@?$standard_base@_WV?$stream_output_adapter@_W@__crt_stdio_output@@@__crt_stdio_output@@IAE_NAAU_CRT_DOUBLE@@@Z 00428c9c f i libucrt:output.obj
 0001:00027cbc       ??$extract_argument_from_va_list@U_CRT_DOUBLE@@U1@@?$standard_base@_WV?$string_output_adapter@_W@__crt_stdio_output@@@__crt_stdio_output@@IAE_NAAU_CRT_DOUBLE@@@Z 00428cbc f i libucrt:output.obj
 0001:00027cdc       ??$extract_argument_from_va_list@_J_J@?$positional_parameter_base@DV?$stream_output_adapter@D@__crt_stdio_output@@@__crt_stdio_output@@IAE_NAA_J@Z 00428cdc f i libucrt:output.obj
 0001:00027d6a       ??$extract_argument_from_va_list@_J_J@?$positional_parameter_base@DV?$string_output_adapter@D@__crt_stdio_output@@@__crt_stdio_output@@IAE_NAA_J@Z 00428d6a f i libucrt:output.obj
 0001:00027df8       ??$extract_argument_from_va_list@_J_J@?$positional_parameter_base@_WV?$stream_output_adapter@_W@__crt_stdio_output@@@__crt_stdio_output@@IAE_NAA_J@Z 00428df8 f i libucrt:output.obj
 0001:00027e86       ??$extract_argument_from_va_list@_J_J@?$positional_parameter_base@_WV?$string_output_adapter@_W@__crt_stdio_output@@@__crt_stdio_output@@IAE_NAA_J@Z 00428e86 f i libucrt:output.obj
 0001:00027f14       ??$extract_argument_from_va_list@_J_J@?$standard_base@DV?$stream_output_adapter@D@__crt_stdio_output@@@__crt_stdio_output@@IAE_NAA_J@Z 00428f14 f i libucrt:output.obj
 0001:00027f34       ??$extract_argument_from_va_list@_J_J@?$standard_base@DV?$string_output_adapter@D@__crt_stdio_output@@@__crt_stdio_output@@IAE_NAA_J@Z 00428f34 f i libucrt:output.obj
 0001:00027f54       ??$extract_argument_from_va_list@_J_J@?$standard_base@_WV?$stream_output_adapter@_W@__crt_stdio_output@@@__crt_stdio_output@@IAE_NAA_J@Z 00428f54 f i libucrt:output.obj
 0001:00027f74       ??$extract_argument_from_va_list@_J_J@?$standard_base@_WV?$string_output_adapter@_W@__crt_stdio_output@@@__crt_stdio_output@@IAE_NAA_J@Z 00428f74 f i libucrt:output.obj
 0001:00027f94       ??$extract_argument_from_va_list@_K_J@?$positional_parameter_base@DV?$stream_output_adapter@D@__crt_stdio_output@@@__crt_stdio_output@@IAE_NAA_J@Z 00428f94 f i libucrt:output.obj
 0001:00028022       ??$extract_argument_from_va_list@_K_J@?$positional_parameter_base@DV?$string_output_adapter@D@__crt_stdio_output@@@__crt_stdio_output@@IAE_NAA_J@Z 00429022 f i libucrt:output.obj
 0001:000280b0       ??$extract_argument_from_va_list@_K_J@?$positional_parameter_base@_WV?$stream_output_adapter@_W@__crt_stdio_output@@@__crt_stdio_output@@IAE_NAA_J@Z 004290b0 f i libucrt:output.obj
 0001:0002813e       ??$extract_argument_from_va_list@_K_J@?$positional_parameter_base@_WV?$string_output_adapter@_W@__crt_stdio_output@@@__crt_stdio_output@@IAE_NAA_J@Z 0042913e f i libucrt:output.obj
 0001:000281cc       ??$extract_argument_from_va_list@_K_J@?$standard_base@DV?$stream_output_adapter@D@__crt_stdio_output@@@__crt_stdio_output@@IAE_NAA_J@Z 004291cc f i libucrt:output.obj
 0001:000281ec       ??$extract_argument_from_va_list@_K_J@?$standard_base@DV?$string_output_adapter@D@__crt_stdio_output@@@__crt_stdio_output@@IAE_NAA_J@Z 004291ec f i libucrt:output.obj
 0001:0002820c       ??$extract_argument_from_va_list@_K_J@?$standard_base@_WV?$stream_output_adapter@_W@__crt_stdio_output@@@__crt_stdio_output@@IAE_NAA_J@Z 0042920c f i libucrt:output.obj
 0001:0002822c       ??$extract_argument_from_va_list@_K_J@?$standard_base@_WV?$string_output_adapter@_W@__crt_stdio_output@@@__crt_stdio_output@@IAE_NAA_J@Z 0042922c f i libucrt:output.obj
 0001:0002824c       ??$extract_argument_from_va_list@_W_W@?$positional_parameter_base@DV?$stream_output_adapter@D@__crt_stdio_output@@@__crt_stdio_output@@IAE_NAA_W@Z 0042924c f i libucrt:output.obj
 0001:000282ce       ??$extract_argument_from_va_list@_W_W@?$positional_parameter_base@DV?$string_output_adapter@D@__crt_stdio_output@@@__crt_stdio_output@@IAE_NAA_W@Z 004292ce f i libucrt:output.obj
 0001:00028350       ??$extract_argument_from_va_list@_W_W@?$positional_parameter_base@_WV?$stream_output_adapter@_W@__crt_stdio_output@@@__crt_stdio_output@@IAE_NAA_W@Z 00429350 f i libucrt:output.obj
 0001:000283d2       ??$extract_argument_from_va_list@_W_W@?$positional_parameter_base@_WV?$string_output_adapter@_W@__crt_stdio_output@@@__crt_stdio_output@@IAE_NAA_W@Z 004293d2 f i libucrt:output.obj
 0001:00028454       ??$extract_argument_from_va_list@_W_W@?$standard_base@DV?$stream_output_adapter@D@__crt_stdio_output@@@__crt_stdio_output@@IAE_NAA_W@Z 00429454 f i libucrt:output.obj
 0001:00028470       ??$extract_argument_from_va_list@_W_W@?$standard_base@DV?$string_output_adapter@D@__crt_stdio_output@@@__crt_stdio_output@@IAE_NAA_W@Z 00429470 f i libucrt:output.obj
 0001:0002848c       ??$extract_argument_from_va_list@_W_W@?$standard_base@_WV?$stream_output_adapter@_W@__crt_stdio_output@@@__crt_stdio_output@@IAE_NAA_W@Z 0042948c f i libucrt:output.obj
 0001:000284a8       ??$extract_argument_from_va_list@_W_W@?$standard_base@_WV?$string_output_adapter@_W@__crt_stdio_output@@@__crt_stdio_output@@IAE_NAA_W@Z 004294a8 f i libucrt:output.obj
 0001:000284c4       ??$get_parameter_type@D@?$positional_parameter_base@DV?$stream_output_adapter@D@__crt_stdio_output@@@__crt_stdio_output@@CA?AW4parameter_type@01@PAD@Z 004294c4 f i libucrt:output.obj
 0001:000284c8       ??$get_parameter_type@D@?$positional_parameter_base@DV?$string_output_adapter@D@__crt_stdio_output@@@__crt_stdio_output@@CA?AW4parameter_type@01@PAD@Z 004294c8 f i libucrt:output.obj
 0001:000284cc       ??$get_parameter_type@D@?$positional_parameter_base@_WV?$stream_output_adapter@_W@__crt_stdio_output@@@__crt_stdio_output@@CA?AW4parameter_type@01@PAD@Z 004294cc f i libucrt:output.obj
 0001:000284d0       ??$get_parameter_type@D@?$positional_parameter_base@_WV?$string_output_adapter@_W@__crt_stdio_output@@@__crt_stdio_output@@CA?AW4parameter_type@01@PAD@Z 004294d0 f i libucrt:output.obj
 0001:000284d4       ??$get_parameter_type@Uansi_string@?1??type_case_Z@?$output_processor@DV?$stream_output_adapter@D@__crt_stdio_output@@V?$positional_parameter_base@DV?$stream_output_adapter@D@__crt_stdio_output@@@2@@__crt_stdio_output@@AAE_NXZ@@?$positional_parameter_base@DV?$stream_output_adapter@D@__crt_stdio_output@@@__crt_stdio_output@@CA?AW4parameter_type@01@PAUansi_string@?1??type_case_Z@?$output_processor@DV?$stream_output_adapter@D@__crt_stdio_output@@V?$positional_parameter_base@DV?$stream_output_adapter@D@__crt_stdio_output@@@2@@1@AAE_NXZ@@Z 004294d4 f i libucrt:output.obj
 0001:000284d8       ??$get_parameter_type@Uansi_string@?1??type_case_Z@?$output_processor@DV?$string_output_adapter@D@__crt_stdio_output@@V?$positional_parameter_base@DV?$string_output_adapter@D@__crt_stdio_output@@@2@@__crt_stdio_output@@AAE_NXZ@@?$positional_parameter_base@DV?$string_output_adapter@D@__crt_stdio_output@@@__crt_stdio_output@@CA?AW4parameter_type@01@PAUansi_string@?1??type_case_Z@?$output_processor@DV?$string_output_adapter@D@__crt_stdio_output@@V?$positional_parameter_base@DV?$string_output_adapter@D@__crt_stdio_output@@@2@@1@AAE_NXZ@@Z 004294d8 f i libucrt:output.obj
 0001:000284dc       ??$get_parameter_type@Uansi_string@?1??type_case_Z@?$output_processor@_WV?$stream_output_adapter@_W@__crt_stdio_output@@V?$positional_parameter_base@_WV?$stream_output_adapter@_W@__crt_stdio_output@@@2@@__crt_stdio_output@@AAE_NXZ@@?$positional_parameter_base@_WV?$stream_output_adapter@_W@__crt_stdio_output@@@__crt_stdio_output@@CA?AW4parameter_type@01@PAUansi_string@?1??type_case_Z@?$output_processor@_WV?$stream_output_adapter@_W@__crt_stdio_output@@V?$positional_parameter_base@_WV?$stream_output_adapter@_W@__crt_stdio_output@@@2@@1@AAE_NXZ@@Z 004294dc f i libucrt:output.obj
 0001:000284e0       ??$get_parameter_type@Uansi_string@?1??type_case_Z@?$output_processor@_WV?$string_output_adapter@_W@__crt_stdio_output@@V?$positional_parameter_base@_WV?$string_output_adapter@_W@__crt_stdio_output@@@2@@__crt_stdio_output@@AAE_NXZ@@?$positional_parameter_base@_WV?$string_output_adapter@_W@__crt_stdio_output@@@__crt_stdio_output@@CA?AW4parameter_type@01@PAUansi_string@?1??type_case_Z@?$output_processor@_WV?$string_output_adapter@_W@__crt_stdio_output@@V?$positional_parameter_base@_WV?$string_output_adapter@_W@__crt_stdio_output@@@2@@1@AAE_NXZ@@Z 004294e0 f i libucrt:output.obj
 0001:000284e4       ??$get_parameter_type@X@?$positional_parameter_base@DV?$stream_output_adapter@D@__crt_stdio_output@@@__crt_stdio_output@@CA?AW4parameter_type@01@PAX@Z 004294e4 f i libucrt:output.obj
 0001:000284e8       ??$get_parameter_type@X@?$positional_parameter_base@DV?$string_output_adapter@D@__crt_stdio_output@@@__crt_stdio_output@@CA?AW4parameter_type@01@PAX@Z 004294e8 f i libucrt:output.obj
 0001:000284ec       ??$get_parameter_type@X@?$positional_parameter_base@_WV?$stream_output_adapter@_W@__crt_stdio_output@@@__crt_stdio_output@@CA?AW4parameter_type@01@PAX@Z 004294ec f i libucrt:output.obj
 0001:000284f0       ??$get_parameter_type@X@?$positional_parameter_base@_WV?$string_output_adapter@_W@__crt_stdio_output@@@__crt_stdio_output@@CA?AW4parameter_type@01@PAX@Z 004294f0 f i libucrt:output.obj
 0001:000284f4       ??$is_character_specifier@D@?$positional_parameter_base@DV?$stream_output_adapter@D@__crt_stdio_output@@@__crt_stdio_output@@CA_ND@Z 004294f4 f i libucrt:output.obj
 0001:0002850d       ??$is_character_specifier@D@?$positional_parameter_base@DV?$string_output_adapter@D@__crt_stdio_output@@@__crt_stdio_output@@CA_ND@Z 0042950d f i libucrt:output.obj
 0001:00028526       ??$is_character_specifier@_W@?$positional_parameter_base@_WV?$stream_output_adapter@_W@__crt_stdio_output@@@__crt_stdio_output@@CA_N_W@Z 00429526 f i libucrt:output.obj
 0001:00028542       ??$is_character_specifier@_W@?$positional_parameter_base@_WV?$string_output_adapter@_W@__crt_stdio_output@@@__crt_stdio_output@@CA_N_W@Z 00429542 f i libucrt:output.obj
 0001:0002855e       ??$is_integral_specifier@D@?$positional_parameter_base@DV?$stream_output_adapter@D@__crt_stdio_output@@@__crt_stdio_output@@CA_ND@Z 0042955e f i libucrt:output.obj
 0001:0002858b       ??$is_integral_specifier@D@?$positional_parameter_base@DV?$string_output_adapter@D@__crt_stdio_output@@@__crt_stdio_output@@CA_ND@Z 0042958b f i libucrt:output.obj
 0001:000285b8       ??$is_integral_specifier@_W@?$positional_parameter_base@_WV?$stream_output_adapter@_W@__crt_stdio_output@@@__crt_stdio_output@@CA_N_W@Z 004295b8 f i libucrt:output.obj
 0001:000285f4       ??$is_integral_specifier@_W@?$positional_parameter_base@_WV?$string_output_adapter@_W@__crt_stdio_output@@@__crt_stdio_output@@CA_N_W@Z 004295f4 f i libucrt:output.obj
 0001:00028630       ??$is_pointer_specifier@D@?$positional_parameter_base@DV?$stream_output_adapter@D@__crt_stdio_output@@@__crt_stdio_output@@CA_ND@Z 00429630 f i libucrt:output.obj
 0001:00028640       ??$is_pointer_specifier@D@?$positional_parameter_base@DV?$string_output_adapter@D@__crt_stdio_output@@@__crt_stdio_output@@CA_ND@Z 00429640 f i libucrt:output.obj
 0001:00028650       ??$is_pointer_specifier@_W@?$positional_parameter_base@_WV?$stream_output_adapter@_W@__crt_stdio_output@@@__crt_stdio_output@@CA_N_W@Z 00429650 f i libucrt:output.obj
 0001:00028661       ??$is_pointer_specifier@_W@?$positional_parameter_base@_WV?$string_output_adapter@_W@__crt_stdio_output@@@__crt_stdio_output@@CA_N_W@Z 00429661 f i libucrt:output.obj
 0001:00028672       ??$is_string_specifier@D@?$positional_parameter_base@DV?$stream_output_adapter@D@__crt_stdio_output@@@__crt_stdio_output@@CA_ND@Z 00429672 f i libucrt:output.obj
 0001:0002868b       ??$is_string_specifier@D@?$positional_parameter_base@DV?$string_output_adapter@D@__crt_stdio_output@@@__crt_stdio_output@@CA_ND@Z 0042968b f i libucrt:output.obj
 0001:000286a4       ??$is_string_specifier@_W@?$positional_parameter_base@_WV?$stream_output_adapter@_W@__crt_stdio_output@@@__crt_stdio_output@@CA_N_W@Z 004296a4 f i libucrt:output.obj
 0001:000286c0       ??$is_string_specifier@_W@?$positional_parameter_base@_WV?$string_output_adapter@_W@__crt_stdio_output@@@__crt_stdio_output@@CA_N_W@Z 004296c0 f i libucrt:output.obj
 0001:000286dc       ??$is_wide_character_specifier@D@__crt_stdio_output@@YA_N_KDW4length_modifier@0@@Z 004296dc f i libucrt:output.obj
 0001:0002871c       ??$is_wide_character_specifier@_W@__crt_stdio_output@@YA_N_K_WW4length_modifier@0@@Z 0042971c f i libucrt:output.obj
 0001:0002876b       ??$peek_va_arg@C@__crt_stdio_output@@YACPAD@Z 0042976b f i libucrt:output.obj
 0001:00028777       ??$peek_va_arg@E@__crt_stdio_output@@YAEPAD@Z 00429777 f i libucrt:output.obj
 0001:00028783       ??$peek_va_arg@F@__crt_stdio_output@@YAFPAD@Z 00429783 f i libucrt:output.obj
 0001:00028790       ??$peek_va_arg@G@__crt_stdio_output@@YAGPAD@Z 00429790 f i libucrt:output.obj
 0001:0002879d       ??$peek_va_arg@H@__crt_stdio_output@@YAHPAD@Z 0042979d f i libucrt:output.obj
 0001:000287a9       ??$peek_va_arg@I@__crt_stdio_output@@YAIPAD@Z 004297a9 f i libucrt:output.obj
 0001:000287b5       ??$peek_va_arg@PAD@__crt_stdio_output@@YAPADPAD@Z 004297b5 f i libucrt:output.obj
 0001:000287c1       ??$peek_va_arg@PAUansi_string@?1??type_case_Z@?$output_processor@DV?$stream_output_adapter@D@__crt_stdio_output@@V?$positional_parameter_base@DV?$stream_output_adapter@D@__crt_stdio_output@@@2@@__crt_stdio_output@@AAE_NXZ@@__crt_stdio_output@@YAPAUansi_string@?1??type_case_Z@?$output_processor@DV?$stream_output_adapter@D@__crt_stdio_output@@V?$positional_parameter_base@DV?$stream_output_adapter@D@__crt_stdio_output@@@2@@0@AAE_NXZ@PAD@Z 004297c1 f i libucrt:output.obj
 0001:000287cd       ??$peek_va_arg@PAUansi_string@?1??type_case_Z@?$output_processor@DV?$string_output_adapter@D@__crt_stdio_output@@V?$positional_parameter_base@DV?$string_output_adapter@D@__crt_stdio_output@@@2@@__crt_stdio_output@@AAE_NXZ@@__crt_stdio_output@@YAPAUansi_string@?1??type_case_Z@?$output_processor@DV?$string_output_adapter@D@__crt_stdio_output@@V?$positional_parameter_base@DV?$string_output_adapter@D@__crt_stdio_output@@@2@@0@AAE_NXZ@PAD@Z 004297cd f i libucrt:output.obj
 0001:000287d9       ??$peek_va_arg@PAUansi_string@?1??type_case_Z@?$output_processor@_WV?$stream_output_adapter@_W@__crt_stdio_output@@V?$positional_parameter_base@_WV?$stream_output_adapter@_W@__crt_stdio_output@@@2@@__crt_stdio_output@@AAE_NXZ@@__crt_stdio_output@@YAPAUansi_string@?1??type_case_Z@?$output_processor@_WV?$stream_output_adapter@_W@__crt_stdio_output@@V?$positional_parameter_base@_WV?$stream_output_adapter@_W@__crt_stdio_output@@@2@@0@AAE_NXZ@PAD@Z 004297d9 f i libucrt:output.obj
 0001:000287e5       ??$peek_va_arg@PAUansi_string@?1??type_case_Z@?$output_processor@_WV?$string_output_adapter@_W@__crt_stdio_output@@V?$positional_parameter_base@_WV?$string_output_adapter@_W@__crt_stdio_output@@@2@@__crt_stdio_output@@AAE_NXZ@@__crt_stdio_output@@YAPAUansi_string@?1??type_case_Z@?$output_processor@_WV?$string_output_adapter@_W@__crt_stdio_output@@V?$positional_parameter_base@_WV?$string_output_adapter@_W@__crt_stdio_output@@@2@@0@AAE_NXZ@PAD@Z 004297e5 f i libucrt:output.obj
 0001:000287f1       ??$peek_va_arg@PAX@__crt_stdio_output@@YAPAXPAD@Z 004297f1 f i libucrt:output.obj
 0001:000287fd       ??$peek_va_arg@U_CRT_DOUBLE@@@__crt_stdio_output@@YA?AU_CRT_DOUBLE@@PAD@Z 004297fd f i libucrt:output.obj
 0001:0002880c       ??$peek_va_arg@_J@__crt_stdio_output@@YA_JPAD@Z 0042980c f i libucrt:output.obj
 0001:0002881b       ??$peek_va_arg@_K@__crt_stdio_output@@YA_KPAD@Z 0042981b f i libucrt:output.obj
 0001:0002882a       ??$peek_va_arg@_W@__crt_stdio_output@@YA_WPAD@Z 0042982a f i libucrt:output.obj
 0001:00028837       ??$puttc_nolock@ABDPAU_iobuf@@@?$__crt_char_traits@D@@SAHABD$$QAPAU_iobuf@@@Z 00429837 f i libucrt:output.obj
 0001:00028851       ??$puttc_nolock@AB_WPAU_iobuf@@@?$__crt_char_traits@_W@@SAGAB_W$$QAPAU_iobuf@@@Z 00429851 f i libucrt:output.obj
 0001:0002886b       ??$read_va_arg@C@__crt_stdio_output@@YACAAPAD@Z 0042986b f i libucrt:output.obj
 0001:0002887d       ??$read_va_arg@E@__crt_stdio_output@@YAEAAPAD@Z 0042987d f i libucrt:output.obj
 0001:0002888f       ??$read_va_arg@F@__crt_stdio_output@@YAFAAPAD@Z 0042988f f i libucrt:output.obj
 0001:000288a2       ??$read_va_arg@G@__crt_stdio_output@@YAGAAPAD@Z 004298a2 f i libucrt:output.obj
 0001:000288b5       ??$read_va_arg@H@__crt_stdio_output@@YAHAAPAD@Z 004298b5 f i libucrt:output.obj
 0001:000288c7       ??$read_va_arg@I@__crt_stdio_output@@YAIAAPAD@Z 004298c7 f i libucrt:output.obj
 0001:000288d9       ??$read_va_arg@PAD@__crt_stdio_output@@YAPADAAPAD@Z 004298d9 f i libucrt:output.obj
 0001:000288eb       ??$read_va_arg@PAUansi_string@?1??type_case_Z@?$output_processor@DV?$stream_output_adapter@D@__crt_stdio_output@@V?$format_validation_base@DV?$stream_output_adapter@D@__crt_stdio_output@@@2@@__crt_stdio_output@@AAE_NXZ@@__crt_stdio_output@@YAPAUansi_string@?1??type_case_Z@?$output_processor@DV?$stream_output_adapter@D@__crt_stdio_output@@V?$format_validation_base@DV?$stream_output_adapter@D@__crt_stdio_output@@@2@@0@AAE_NXZ@AAPAD@Z 004298eb f i libucrt:output.obj
 0001:000288fd       ??$read_va_arg@PAUansi_string@?1??type_case_Z@?$output_processor@DV?$stream_output_adapter@D@__crt_stdio_output@@V?$positional_parameter_base@DV?$stream_output_adapter@D@__crt_stdio_output@@@2@@__crt_stdio_output@@AAE_NXZ@@__crt_stdio_output@@YAPAUansi_string@?1??type_case_Z@?$output_processor@DV?$stream_output_adapter@D@__crt_stdio_output@@V?$positional_parameter_base@DV?$stream_output_adapter@D@__crt_stdio_output@@@2@@0@AAE_NXZ@AAPAD@Z 004298fd f i libucrt:output.obj
 0001:0002890f       ??$read_va_arg@PAUansi_string@?1??type_case_Z@?$output_processor@DV?$stream_output_adapter@D@__crt_stdio_output@@V?$standard_base@DV?$stream_output_adapter@D@__crt_stdio_output@@@2@@__crt_stdio_output@@AAE_NXZ@@__crt_stdio_output@@YAPAUansi_string@?1??type_case_Z@?$output_processor@DV?$stream_output_adapter@D@__crt_stdio_output@@V?$standard_base@DV?$stream_output_adapter@D@__crt_stdio_output@@@2@@0@AAE_NXZ@AAPAD@Z 0042990f f i libucrt:output.obj
 0001:00028921       ??$read_va_arg@PAUansi_string@?1??type_case_Z@?$output_processor@DV?$string_output_adapter@D@__crt_stdio_output@@V?$format_validation_base@DV?$string_output_adapter@D@__crt_stdio_output@@@2@@__crt_stdio_output@@AAE_NXZ@@__crt_stdio_output@@YAPAUansi_string@?1??type_case_Z@?$output_processor@DV?$string_output_adapter@D@__crt_stdio_output@@V?$format_validation_base@DV?$string_output_adapter@D@__crt_stdio_output@@@2@@0@AAE_NXZ@AAPAD@Z 00429921 f i libucrt:output.obj
 0001:00028933       ??$read_va_arg@PAUansi_string@?1??type_case_Z@?$output_processor@DV?$string_output_adapter@D@__crt_stdio_output@@V?$positional_parameter_base@DV?$string_output_adapter@D@__crt_stdio_output@@@2@@__crt_stdio_output@@AAE_NXZ@@__crt_stdio_output@@YAPAUansi_string@?1??type_case_Z@?$output_processor@DV?$string_output_adapter@D@__crt_stdio_output@@V?$positional_parameter_base@DV?$string_output_adapter@D@__crt_stdio_output@@@2@@0@AAE_NXZ@AAPAD@Z 00429933 f i libucrt:output.obj
 0001:00028945       ??$read_va_arg@PAUansi_string@?1??type_case_Z@?$output_processor@DV?$string_output_adapter@D@__crt_stdio_output@@V?$standard_base@DV?$string_output_adapter@D@__crt_stdio_output@@@2@@__crt_stdio_output@@AAE_NXZ@@__crt_stdio_output@@YAPAUansi_string@?1??type_case_Z@?$output_processor@DV?$string_output_adapter@D@__crt_stdio_output@@V?$standard_base@DV?$string_output_adapter@D@__crt_stdio_output@@@2@@0@AAE_NXZ@AAPAD@Z 00429945 f i libucrt:output.obj
 0001:00028957       ??$read_va_arg@PAUansi_string@?1??type_case_Z@?$output_processor@_WV?$stream_output_adapter@_W@__crt_stdio_output@@V?$format_validation_base@_WV?$stream_output_adapter@_W@__crt_stdio_output@@@2@@__crt_stdio_output@@AAE_NXZ@@__crt_stdio_output@@YAPAUansi_string@?1??type_case_Z@?$output_processor@_WV?$stream_output_adapter@_W@__crt_stdio_output@@V?$format_validation_base@_WV?$stream_output_adapter@_W@__crt_stdio_output@@@2@@0@AAE_NXZ@AAPAD@Z 00429957 f i libucrt:output.obj
 0001:00028969       ??$read_va_arg@PAUansi_string@?1??type_case_Z@?$output_processor@_WV?$stream_output_adapter@_W@__crt_stdio_output@@V?$positional_parameter_base@_WV?$stream_output_adapter@_W@__crt_stdio_output@@@2@@__crt_stdio_output@@AAE_NXZ@@__crt_stdio_output@@YAPAUansi_string@?1??type_case_Z@?$output_processor@_WV?$stream_output_adapter@_W@__crt_stdio_output@@V?$positional_parameter_base@_WV?$stream_output_adapter@_W@__crt_stdio_output@@@2@@0@AAE_NXZ@AAPAD@Z 00429969 f i libucrt:output.obj
 0001:0002897b       ??$read_va_arg@PAUansi_string@?1??type_case_Z@?$output_processor@_WV?$stream_output_adapter@_W@__crt_stdio_output@@V?$standard_base@_WV?$stream_output_adapter@_W@__crt_stdio_output@@@2@@__crt_stdio_output@@AAE_NXZ@@__crt_stdio_output@@YAPAUansi_string@?1??type_case_Z@?$output_processor@_WV?$stream_output_adapter@_W@__crt_stdio_output@@V?$standard_base@_WV?$stream_output_adapter@_W@__crt_stdio_output@@@2@@0@AAE_NXZ@AAPAD@Z 0042997b f i libucrt:output.obj
 0001:0002898d       ??$read_va_arg@PAUansi_string@?1??type_case_Z@?$output_processor@_WV?$string_output_adapter@_W@__crt_stdio_output@@V?$format_validation_base@_WV?$string_output_adapter@_W@__crt_stdio_output@@@2@@__crt_stdio_output@@AAE_NXZ@@__crt_stdio_output@@YAPAUansi_string@?1??type_case_Z@?$output_processor@_WV?$string_output_adapter@_W@__crt_stdio_output@@V?$format_validation_base@_WV?$string_output_adapter@_W@__crt_stdio_output@@@2@@0@AAE_NXZ@AAPAD@Z 0042998d f i libucrt:output.obj
 0001:0002899f       ??$read_va_arg@PAUansi_string@?1??type_case_Z@?$output_processor@_WV?$string_output_adapter@_W@__crt_stdio_output@@V?$positional_parameter_base@_WV?$string_output_adapter@_W@__crt_stdio_output@@@2@@__crt_stdio_output@@AAE_NXZ@@__crt_stdio_output@@YAPAUansi_string@?1??type_case_Z@?$output_processor@_WV?$string_output_adapter@_W@__crt_stdio_output@@V?$positional_parameter_base@_WV?$string_output_adapter@_W@__crt_stdio_output@@@2@@0@AAE_NXZ@AAPAD@Z 0042999f f i libucrt:output.obj
 0001:000289b1       ??$read_va_arg@PAUansi_string@?1??type_case_Z@?$output_processor@_WV?$string_output_adapter@_W@__crt_stdio_output@@V?$standard_base@_WV?$string_output_adapter@_W@__crt_stdio_output@@@2@@__crt_stdio_output@@AAE_NXZ@@__crt_stdio_output@@YAPAUansi_string@?1??type_case_Z@?$output_processor@_WV?$string_output_adapter@_W@__crt_stdio_output@@V?$standard_base@_WV?$string_output_adapter@_W@__crt_stdio_output@@@2@@0@AAE_NXZ@AAPAD@Z 004299b1 f i libucrt:output.obj
 0001:000289c3       ??$read_va_arg@PAX@__crt_stdio_output@@YAPAXAAPAD@Z 004299c3 f i libucrt:output.obj
 0001:000289d5       ??$read_va_arg@U_CRT_DOUBLE@@@__crt_stdio_output@@YA?AU_CRT_DOUBLE@@AAPAD@Z 004299d5 f i libucrt:output.obj
 0001:000289ea       ??$read_va_arg@_J@__crt_stdio_output@@YA_JAAPAD@Z 004299ea f i libucrt:output.obj
 0001:000289ff       ??$read_va_arg@_K@__crt_stdio_output@@YA_KAAPAD@Z 004299ff f i libucrt:output.obj
 0001:00028a14       ??$read_va_arg@_W@__crt_stdio_output@@YA_WAAPAD@Z 00429a14 f i libucrt:output.obj
 0001:00028a27       ??$scratch_count@D@formatting_buffer@__crt_stdio_output@@QBEIXZ 00429a27 f i libucrt:output.obj
 0001:00028a2c       ??$scratch_data@D@formatting_buffer@__crt_stdio_output@@QAEPADXZ 00429a2c f i libucrt:output.obj
 0001:00028a4a       ??$tcstol@AAPBDPAPADH@?$__crt_char_traits@D@@SAJAAPBD$$QAPAPAD$$QAH@Z 00429a4a f i libucrt:output.obj
 0001:00028a68       ??$tcstol@AAPB_WPAPA_WH@?$__crt_char_traits@_W@@SAJAAPB_W$$QAPAPA_W$$QAH@Z 00429a68 f i libucrt:output.obj
 0001:00028a86       ??$tcstol@PBDPAPADH@?$__crt_char_traits@D@@SAJ$$QAPBD$$QAPAPAD$$QAH@Z 00429a86 f i libucrt:output.obj
 0001:00028aa4       ??$tcstol@PB_WPAPA_WH@?$__crt_char_traits@_W@@SAJ$$QAPB_W$$QAPAPA_W$$QAH@Z 00429aa4 f i libucrt:output.obj
 0001:00028ac2       ??$type_case_integer_parse_into_buffer@I@?$output_processor@DV?$stream_output_adapter@D@__crt_stdio_output@@V?$format_validation_base@DV?$stream_output_adapter@D@__crt_stdio_output@@@2@@__crt_stdio_output@@AAEXII_N@Z 00429ac2 f i libucrt:output.obj
 0001:00028b37       ??$type_case_integer_parse_into_buffer@I@?$output_processor@DV?$stream_output_adapter@D@__crt_stdio_output@@V?$positional_parameter_base@DV?$stream_output_adapter@D@__crt_stdio_output@@@2@@__crt_stdio_output@@AAEXII_N@Z 00429b37 f i libucrt:output.obj
 0001:00028bac       ??$type_case_integer_parse_into_buffer@I@?$output_processor@DV?$stream_output_adapter@D@__crt_stdio_output@@V?$standard_base@DV?$stream_output_adapter@D@__crt_stdio_output@@@2@@__crt_stdio_output@@AAEXII_N@Z 00429bac f i libucrt:output.obj
 0001:00028c21       ??$type_case_integer_parse_into_buffer@I@?$output_processor@DV?$string_output_adapter@D@__crt_stdio_output@@V?$format_validation_base@DV?$string_output_adapter@D@__crt_stdio_output@@@2@@__crt_stdio_output@@AAEXII_N@Z 00429c21 f i libucrt:output.obj
 0001:00028c96       ??$type_case_integer_parse_into_buffer@I@?$output_processor@DV?$string_output_adapter@D@__crt_stdio_output@@V?$positional_parameter_base@DV?$string_output_adapter@D@__crt_stdio_output@@@2@@__crt_stdio_output@@AAEXII_N@Z 00429c96 f i libucrt:output.obj
 0001:00028d0b       ??$type_case_integer_parse_into_buffer@I@?$output_processor@DV?$string_output_adapter@D@__crt_stdio_output@@V?$standard_base@DV?$string_output_adapter@D@__crt_stdio_output@@@2@@__crt_stdio_output@@AAEXII_N@Z 00429d0b f i libucrt:output.obj
 0001:00028d80       ??$type_case_integer_parse_into_buffer@I@?$output_processor@_WV?$stream_output_adapter@_W@__crt_stdio_output@@V?$format_validation_base@_WV?$stream_output_adapter@_W@__crt_stdio_output@@@2@@__crt_stdio_output@@AAEXII_N@Z 00429d80 f i libucrt:output.obj
 0001:00028df5       ??$type_case_integer_parse_into_buffer@I@?$output_processor@_WV?$stream_output_adapter@_W@__crt_stdio_output@@V?$positional_parameter_base@_WV?$stream_output_adapter@_W@__crt_stdio_output@@@2@@__crt_stdio_output@@AAEXII_N@Z 00429df5 f i libucrt:output.obj
 0001:00028e6a       ??$type_case_integer_parse_into_buffer@I@?$output_processor@_WV?$stream_output_adapter@_W@__crt_stdio_output@@V?$standard_base@_WV?$stream_output_adapter@_W@__crt_stdio_output@@@2@@__crt_stdio_output@@AAEXII_N@Z 00429e6a f i libucrt:output.obj
 0001:00028edf       ??$type_case_integer_parse_into_buffer@I@?$output_processor@_WV?$string_output_adapter@_W@__crt_stdio_output@@V?$format_validation_base@_WV?$string_output_adapter@_W@__crt_stdio_output@@@2@@__crt_stdio_output@@AAEXII_N@Z 00429edf f i libucrt:output.obj
 0001:00028f54       ??$type_case_integer_parse_into_buffer@I@?$output_processor@_WV?$string_output_adapter@_W@__crt_stdio_output@@V?$positional_parameter_base@_WV?$string_output_adapter@_W@__crt_stdio_output@@@2@@__crt_stdio_output@@AAEXII_N@Z 00429f54 f i libucrt:output.obj
 0001:00028fc9       ??$type_case_integer_parse_into_buffer@I@?$output_processor@_WV?$string_output_adapter@_W@__crt_stdio_output@@V?$standard_base@_WV?$string_output_adapter@_W@__crt_stdio_output@@@2@@__crt_stdio_output@@AAEXII_N@Z 00429fc9 f i libucrt:output.obj
 0001:0002903e       ??$type_case_integer_parse_into_buffer@_K@?$output_processor@DV?$stream_output_adapter@D@__crt_stdio_output@@V?$format_validation_base@DV?$stream_output_adapter@D@__crt_stdio_output@@@2@@__crt_stdio_output@@AAEX_KI_N@Z 0042a03e f i libucrt:output.obj
 0001:000290c6       ??$type_case_integer_parse_into_buffer@_K@?$output_processor@DV?$stream_output_adapter@D@__crt_stdio_output@@V?$positional_parameter_base@DV?$stream_output_adapter@D@__crt_stdio_output@@@2@@__crt_stdio_output@@AAEX_KI_N@Z 0042a0c6 f i libucrt:output.obj
 0001:0002914e       ??$type_case_integer_parse_into_buffer@_K@?$output_processor@DV?$stream_output_adapter@D@__crt_stdio_output@@V?$standard_base@DV?$stream_output_adapter@D@__crt_stdio_output@@@2@@__crt_stdio_output@@AAEX_KI_N@Z 0042a14e f i libucrt:output.obj
 0001:000291d6       ??$type_case_integer_parse_into_buffer@_K@?$output_processor@DV?$string_output_adapter@D@__crt_stdio_output@@V?$format_validation_base@DV?$string_output_adapter@D@__crt_stdio_output@@@2@@__crt_stdio_output@@AAEX_KI_N@Z 0042a1d6 f i libucrt:output.obj
 0001:0002925e       ??$type_case_integer_parse_into_buffer@_K@?$output_processor@DV?$string_output_adapter@D@__crt_stdio_output@@V?$positional_parameter_base@DV?$string_output_adapter@D@__crt_stdio_output@@@2@@__crt_stdio_output@@AAEX_KI_N@Z 0042a25e f i libucrt:output.obj
 0001:000292e6       ??$type_case_integer_parse_into_buffer@_K@?$output_processor@DV?$string_output_adapter@D@__crt_stdio_output@@V?$standard_base@DV?$string_output_adapter@D@__crt_stdio_output@@@2@@__crt_stdio_output@@AAEX_KI_N@Z 0042a2e6 f i libucrt:output.obj
 0001:0002936e       ??$type_case_integer_parse_into_buffer@_K@?$output_processor@_WV?$stream_output_adapter@_W@__crt_stdio_output@@V?$format_validation_base@_WV?$stream_output_adapter@_W@__crt_stdio_output@@@2@@__crt_stdio_output@@AAEX_KI_N@Z 0042a36e f i libucrt:output.obj
 0001:000293f6       ??$type_case_integer_parse_into_buffer@_K@?$output_processor@_WV?$stream_output_adapter@_W@__crt_stdio_output@@V?$positional_parameter_base@_WV?$stream_output_adapter@_W@__crt_stdio_output@@@2@@__crt_stdio_output@@AAEX_KI_N@Z 0042a3f6 f i libucrt:output.obj
 0001:0002947e       ??$type_case_integer_parse_into_buffer@_K@?$output_processor@_WV?$stream_output_adapter@_W@__crt_stdio_output@@V?$standard_base@_WV?$stream_output_adapter@_W@__crt_stdio_output@@@2@@__crt_stdio_output@@AAEX_KI_N@Z 0042a47e f i libucrt:output.obj
 0001:00029506       ??$type_case_integer_parse_into_buffer@_K@?$output_processor@_WV?$string_output_adapter@_W@__crt_stdio_output@@V?$format_validation_base@_WV?$string_output_adapter@_W@__crt_stdio_output@@@2@@__crt_stdio_output@@AAEX_KI_N@Z 0042a506 f i libucrt:output.obj
 0001:0002958e       ??$type_case_integer_parse_into_buffer@_K@?$output_processor@_WV?$string_output_adapter@_W@__crt_stdio_output@@V?$positional_parameter_base@_WV?$string_output_adapter@_W@__crt_stdio_output@@@2@@__crt_stdio_output@@AAEX_KI_N@Z 0042a58e f i libucrt:output.obj
 0001:00029616       ??$type_case_integer_parse_into_buffer@_K@?$output_processor@_WV?$string_output_adapter@_W@__crt_stdio_output@@V?$standard_base@_WV?$string_output_adapter@_W@__crt_stdio_output@@@2@@__crt_stdio_output@@AAEX_KI_N@Z 0042a616 f i libucrt:output.obj
 0001:0002969e       ??$write_multiple_characters@V?$stream_output_adapter@D@__crt_stdio_output@@D@__crt_stdio_output@@YAXABV?$stream_output_adapter@D@0@DHQAH@Z 0042a69e f i libucrt:output.obj
 0001:000296ca       ??$write_multiple_characters@V?$stream_output_adapter@_W@__crt_stdio_output@@D@__crt_stdio_output@@YAXABV?$stream_output_adapter@_W@0@DHQAH@Z 0042a6ca f i libucrt:output.obj
 0001:000296fb       ??$write_multiple_characters@V?$string_output_adapter@D@__crt_stdio_output@@D@__crt_stdio_output@@YAXABV?$string_output_adapter@D@0@DHQAH@Z 0042a6fb f i libucrt:output.obj
 0001:00029727       ??$write_multiple_characters@V?$string_output_adapter@_W@__crt_stdio_output@@D@__crt_stdio_output@@YAXABV?$string_output_adapter@_W@0@DHQAH@Z 0042a727 f i libucrt:output.obj
 0001:00029920       ??0?$common_data@D@__crt_stdio_output@@IAE@XZ 0042a920 f i libucrt:output.obj
 0001:00029967       ??0?$common_data@_W@__crt_stdio_output@@IAE@XZ 0042a967 f i libucrt:output.obj
 0001:000299b3       ??0?$output_adapter_data@DV?$stream_output_adapter@D@__crt_stdio_output@@@__crt_stdio_output@@IAE@ABV?$stream_output_adapter@D@1@_KQBDQAU__crt_locale_pointers@@QAD@Z 0042a9b3 f i libucrt:output.obj
 0001:000299ef       ??0?$output_adapter_data@DV?$string_output_adapter@D@__crt_stdio_output@@@__crt_stdio_output@@IAE@ABV?$string_output_adapter@D@1@_KQBDQAU__crt_locale_pointers@@QAD@Z 0042a9ef f i libucrt:output.obj
 0001:00029a2b       ??0?$output_adapter_data@_WV?$stream_output_adapter@_W@__crt_stdio_output@@@__crt_stdio_output@@IAE@ABV?$stream_output_adapter@_W@1@_KQB_WQAU__crt_locale_pointers@@QAD@Z 0042aa2b f i libucrt:output.obj
 0001:00029a67       ??0?$output_adapter_data@_WV?$string_output_adapter@_W@__crt_stdio_output@@@__crt_stdio_output@@IAE@ABV?$string_output_adapter@_W@1@_KQB_WQAU__crt_locale_pointers@@QAD@Z 0042aa67 f i libucrt:output.obj
 0001:00029aa3       ??0?$output_processor@DV?$stream_output_adapter@D@__crt_stdio_output@@V?$format_validation_base@DV?$stream_output_adapter@D@__crt_stdio_output@@@2@@__crt_stdio_output@@QAE@ABV?$stream_output_adapter@D@1@_KQBDQAU__crt_locale_pointers@@QAD@Z 0042aaa3 f i libucrt:output.obj
 0001:00029ad8       ??0?$output_processor@DV?$stream_output_adapter@D@__crt_stdio_output@@V?$positional_parameter_base@DV?$stream_output_adapter@D@__crt_stdio_output@@@2@@__crt_stdio_output@@QAE@ABV?$stream_output_adapter@D@1@_KQBDQAU__crt_locale_pointers@@QAD@Z 0042aad8 f i libucrt:output.obj
 0001:00029b07       ??0?$output_processor@DV?$stream_output_adapter@D@__crt_stdio_output@@V?$standard_base@DV?$stream_output_adapter@D@__crt_stdio_output@@@2@@__crt_stdio_output@@QAE@ABV?$stream_output_adapter@D@1@_KQBDQAU__crt_locale_pointers@@QAD@Z 0042ab07 f i libucrt:output.obj
 0001:00029b3c       ??0?$output_processor@DV?$string_output_adapter@D@__crt_stdio_output@@V?$format_validation_base@DV?$string_output_adapter@D@__crt_stdio_output@@@2@@__crt_stdio_output@@QAE@ABV?$string_output_adapter@D@1@_KQBDQAU__crt_locale_pointers@@QAD@Z 0042ab3c f i libucrt:output.obj
 0001:00029b71       ??0?$output_processor@DV?$string_output_adapter@D@__crt_stdio_output@@V?$positional_parameter_base@DV?$string_output_adapter@D@__crt_stdio_output@@@2@@__crt_stdio_output@@QAE@ABV?$string_output_adapter@D@1@_KQBDQAU__crt_locale_pointers@@QAD@Z 0042ab71 f i libucrt:output.obj
 0001:00029ba0       ??0?$output_processor@DV?$string_output_adapter@D@__crt_stdio_output@@V?$standard_base@DV?$string_output_adapter@D@__crt_stdio_output@@@2@@__crt_stdio_output@@QAE@ABV?$string_output_adapter@D@1@_KQBDQAU__crt_locale_pointers@@QAD@Z 0042aba0 f i libucrt:output.obj
 0001:00029bd5       ??0?$output_processor@_WV?$stream_output_adapter@_W@__crt_stdio_output@@V?$format_validation_base@_WV?$stream_output_adapter@_W@__crt_stdio_output@@@2@@__crt_stdio_output@@QAE@ABV?$stream_output_adapter@_W@1@_KQB_WQAU__crt_locale_pointers@@QAD@Z 0042abd5 f i libucrt:output.obj
 0001:00029c0a       ??0?$output_processor@_WV?$stream_output_adapter@_W@__crt_stdio_output@@V?$positional_parameter_base@_WV?$stream_output_adapter@_W@__crt_stdio_output@@@2@@__crt_stdio_output@@QAE@ABV?$stream_output_adapter@_W@1@_KQB_WQAU__crt_locale_pointers@@QAD@Z 0042ac0a f i libucrt:output.obj
 0001:00029c39       ??0?$output_processor@_WV?$stream_output_adapter@_W@__crt_stdio_output@@V?$standard_base@_WV?$stream_output_adapter@_W@__crt_stdio_output@@@2@@__crt_stdio_output@@QAE@ABV?$stream_output_adapter@_W@1@_KQB_WQAU__crt_locale_pointers@@QAD@Z 0042ac39 f i libucrt:output.obj
 0001:00029c6e       ??0?$output_processor@_WV?$string_output_adapter@_W@__crt_stdio_output@@V?$format_validation_base@_WV?$string_output_adapter@_W@__crt_stdio_output@@@2@@__crt_stdio_output@@QAE@ABV?$string_output_adapter@_W@1@_KQB_WQAU__crt_locale_pointers@@QAD@Z 0042ac6e f i libucrt:output.obj
 0001:00029ca3       ??0?$output_processor@_WV?$string_output_adapter@_W@__crt_stdio_output@@V?$positional_parameter_base@_WV?$string_output_adapter@_W@__crt_stdio_output@@@2@@__crt_stdio_output@@QAE@ABV?$string_output_adapter@_W@1@_KQB_WQAU__crt_locale_pointers@@QAD@Z 0042aca3 f i libucrt:output.obj
 0001:00029cd2       ??0?$output_processor@_WV?$string_output_adapter@_W@__crt_stdio_output@@V?$standard_base@_WV?$string_output_adapter@_W@__crt_stdio_output@@@2@@__crt_stdio_output@@QAE@ABV?$string_output_adapter@_W@1@_KQB_WQAU__crt_locale_pointers@@QAD@Z 0042acd2 f i libucrt:output.obj
 0001:00029d07       ??0?$stream_output_adapter@D@__crt_stdio_output@@QAE@QAU_iobuf@@@Z 0042ad07 f i libucrt:output.obj
 0001:00029d17       ??0?$stream_output_adapter@_W@__crt_stdio_output@@QAE@QAU_iobuf@@@Z 0042ad17 f i libucrt:output.obj
 0001:00029d27       ??0?$string_output_adapter@D@__crt_stdio_output@@QAE@QAU?$string_output_adapter_context@D@1@@Z 0042ad27 f i libucrt:output.obj
 0001:00029d37       ??0?$string_output_adapter@_W@__crt_stdio_output@@QAE@QAU?$string_output_adapter_context@_W@1@@Z 0042ad37 f i libucrt:output.obj
 0001:00029d47       ??0_LocaleUpdate@@QAE@QAU__crt_locale_pointers@@@Z 0042ad47 f i libucrt:output.obj
 0001:00029dca       ??0__crt_errno_guard@@QAE@QAH@Z 0042adca f i libucrt:output.obj
 0001:00029de2       ??0formatting_buffer@__crt_stdio_output@@QAE@XZ 0042ade2 f i libucrt:output.obj
 0001:00029df3       ??1?$common_data@D@__crt_stdio_output@@QAE@XZ 0042adf3 f i libucrt:output.obj
 0001:00029dfb       ??1?$common_data@_W@__crt_stdio_output@@QAE@XZ 0042adfb f i libucrt:output.obj
 0001:00029e03       ??1?$format_validation_base@DV?$stream_output_adapter@D@__crt_stdio_output@@@__crt_stdio_output@@QAE@XZ 0042ae03 f i libucrt:output.obj
 0001:00029e0b       ??1?$format_validation_base@DV?$string_output_adapter@D@__crt_stdio_output@@@__crt_stdio_output@@QAE@XZ 0042ae0b f i libucrt:output.obj
 0001:00029e13       ??1?$format_validation_base@_WV?$stream_output_adapter@_W@__crt_stdio_output@@@__crt_stdio_output@@QAE@XZ 0042ae13 f i libucrt:output.obj
 0001:00029e1b       ??1?$format_validation_base@_WV?$string_output_adapter@_W@__crt_stdio_output@@@__crt_stdio_output@@QAE@XZ 0042ae1b f i libucrt:output.obj
 0001:00029e23       ??1?$output_adapter_data@DV?$stream_output_adapter@D@__crt_stdio_output@@@__crt_stdio_output@@QAE@XZ 0042ae23 f i libucrt:output.obj
 0001:00029e2b       ??1?$output_adapter_data@DV?$string_output_adapter@D@__crt_stdio_output@@@__crt_stdio_output@@QAE@XZ 0042ae2b f i libucrt:output.obj
 0001:00029e33       ??1?$output_adapter_data@_WV?$stream_output_adapter@_W@__crt_stdio_output@@@__crt_stdio_output@@QAE@XZ 0042ae33 f i libucrt:output.obj
 0001:00029e3b       ??1?$output_adapter_data@_WV?$string_output_adapter@_W@__crt_stdio_output@@@__crt_stdio_output@@QAE@XZ 0042ae3b f i libucrt:output.obj
 0001:00029e43       ??1?$output_processor@DV?$stream_output_adapter@D@__crt_stdio_output@@V?$format_validation_base@DV?$stream_output_adapter@D@__crt_stdio_output@@@2@@__crt_stdio_output@@QAE@XZ 0042ae43 f i libucrt:output.obj
 0001:00029e4b       ??1?$output_processor@DV?$stream_output_adapter@D@__crt_stdio_output@@V?$positional_parameter_base@DV?$stream_output_adapter@D@__crt_stdio_output@@@2@@__crt_stdio_output@@QAE@XZ 0042ae4b f i libucrt:output.obj
 0001:00029e53       ??1?$output_processor@DV?$stream_output_adapter@D@__crt_stdio_output@@V?$standard_base@DV?$stream_output_adapter@D@__crt_stdio_output@@@2@@__crt_stdio_output@@QAE@XZ 0042ae53 f i libucrt:output.obj
 0001:00029e5b       ??1?$output_processor@DV?$string_output_adapter@D@__crt_stdio_output@@V?$format_validation_base@DV?$string_output_adapter@D@__crt_stdio_output@@@2@@__crt_stdio_output@@QAE@XZ 0042ae5b f i libucrt:output.obj
 0001:00029e63       ??1?$output_processor@DV?$string_output_adapter@D@__crt_stdio_output@@V?$positional_parameter_base@DV?$string_output_adapter@D@__crt_stdio_output@@@2@@__crt_stdio_output@@QAE@XZ 0042ae63 f i libucrt:output.obj
 0001:00029e6b       ??1?$output_processor@DV?$string_output_adapter@D@__crt_stdio_output@@V?$standard_base@DV?$string_output_adapter@D@__crt_stdio_output@@@2@@__crt_stdio_output@@QAE@XZ 0042ae6b f i libucrt:output.obj
 0001:00029e73       ??1?$output_processor@_WV?$stream_output_adapter@_W@__crt_stdio_output@@V?$format_validation_base@_WV?$stream_output_adapter@_W@__crt_stdio_output@@@2@@__crt_stdio_output@@QAE@XZ 0042ae73 f i libucrt:output.obj
 0001:00029e7b       ??1?$output_processor@_WV?$stream_output_adapter@_W@__crt_stdio_output@@V?$positional_parameter_base@_WV?$stream_output_adapter@_W@__crt_stdio_output@@@2@@__crt_stdio_output@@QAE@XZ 0042ae7b f i libucrt:output.obj
 0001:00029e83       ??1?$output_processor@_WV?$stream_output_adapter@_W@__crt_stdio_output@@V?$standard_base@_WV?$stream_output_adapter@_W@__crt_stdio_output@@@2@@__crt_stdio_output@@QAE@XZ 0042ae83 f i libucrt:output.obj
 0001:00029e8b       ??1?$output_processor@_WV?$string_output_adapter@_W@__crt_stdio_output@@V?$format_validation_base@_WV?$string_output_adapter@_W@__crt_stdio_output@@@2@@__crt_stdio_output@@QAE@XZ 0042ae8b f i libucrt:output.obj
 0001:00029e93       ??1?$output_processor@_WV?$string_output_adapter@_W@__crt_stdio_output@@V?$positional_parameter_base@_WV?$string_output_adapter@_W@__crt_stdio_output@@@2@@__crt_stdio_output@@QAE@XZ 0042ae93 f i libucrt:output.obj
 0001:00029e9b       ??1?$output_processor@_WV?$string_output_adapter@_W@__crt_stdio_output@@V?$standard_base@_WV?$string_output_adapter@_W@__crt_stdio_output@@@2@@__crt_stdio_output@@QAE@XZ 0042ae9b f i libucrt:output.obj
 0001:00029ea3       ??1?$positional_parameter_base@DV?$stream_output_adapter@D@__crt_stdio_output@@@__crt_stdio_output@@QAE@XZ 0042aea3 f i libucrt:output.obj
 0001:00029eab       ??1?$positional_parameter_base@DV?$string_output_adapter@D@__crt_stdio_output@@@__crt_stdio_output@@QAE@XZ 0042aeab f i libucrt:output.obj
 0001:00029eb3       ??1?$positional_parameter_base@_WV?$stream_output_adapter@_W@__crt_stdio_output@@@__crt_stdio_output@@QAE@XZ 0042aeb3 f i libucrt:output.obj
 0001:00029ebb       ??1?$positional_parameter_base@_WV?$string_output_adapter@_W@__crt_stdio_output@@@__crt_stdio_output@@QAE@XZ 0042aebb f i libucrt:output.obj
 0001:00029ec3       ??1?$standard_base@DV?$stream_output_adapter@D@__crt_stdio_output@@@__crt_stdio_output@@QAE@XZ 0042aec3 f i libucrt:output.obj
 0001:00029ecb       ??1?$standard_base@DV?$string_output_adapter@D@__crt_stdio_output@@@__crt_stdio_output@@QAE@XZ 0042aecb f i libucrt:output.obj
 0001:00029ed3       ??1?$standard_base@_WV?$stream_output_adapter@_W@__crt_stdio_output@@@__crt_stdio_output@@QAE@XZ 0042aed3 f i libucrt:output.obj
 0001:00029edb       ??1?$standard_base@_WV?$string_output_adapter@_W@__crt_stdio_output@@@__crt_stdio_output@@QAE@XZ 0042aedb f i libucrt:output.obj
 0001:00029ee3       ??1_LocaleUpdate@@QAE@XZ   0042aee3 f i libucrt:output.obj
 0001:00029ef3       ??1__crt_errno_guard@@QAE@XZ 0042aef3 f i libucrt:output.obj
 0001:00029f04       ??1formatting_buffer@__crt_stdio_output@@QAE@XZ 0042af04 f i libucrt:output.obj
 0001:00029f1e       ??4?$__crt_unique_heap_ptr@DU__crt_internal_free_policy@@@@QAEAAV0@$$QAV0@@Z 0042af1e f i libucrt:output.obj
 0001:0002a4a4       ?GetLocaleT@_LocaleUpdate@@QAEPAU__crt_locale_pointers@@XZ 0042b4a4 f i libucrt:output.obj
 0001:0002a4a8       ?adjust_hexit@?$output_processor@DV?$stream_output_adapter@D@__crt_stdio_output@@V?$format_validation_base@DV?$stream_output_adapter@D@__crt_stdio_output@@@2@@__crt_stdio_output@@CADH_N@Z 0042b4a8 f i libucrt:output.obj
 0001:0002a4c6       ?adjust_hexit@?$output_processor@DV?$stream_output_adapter@D@__crt_stdio_output@@V?$positional_parameter_base@DV?$stream_output_adapter@D@__crt_stdio_output@@@2@@__crt_stdio_output@@CADH_N@Z 0042b4c6 f i libucrt:output.obj
 0001:0002a4e4       ?adjust_hexit@?$output_processor@DV?$stream_output_adapter@D@__crt_stdio_output@@V?$standard_base@DV?$stream_output_adapter@D@__crt_stdio_output@@@2@@__crt_stdio_output@@CADH_N@Z 0042b4e4 f i libucrt:output.obj
 0001:0002a502       ?adjust_hexit@?$output_processor@DV?$string_output_adapter@D@__crt_stdio_output@@V?$format_validation_base@DV?$string_output_adapter@D@__crt_stdio_output@@@2@@__crt_stdio_output@@CADH_N@Z 0042b502 f i libucrt:output.obj
 0001:0002a520       ?adjust_hexit@?$output_processor@DV?$string_output_adapter@D@__crt_stdio_output@@V?$positional_parameter_base@DV?$string_output_adapter@D@__crt_stdio_output@@@2@@__crt_stdio_output@@CADH_N@Z 0042b520 f i libucrt:output.obj
 0001:0002a53e       ?adjust_hexit@?$output_processor@DV?$string_output_adapter@D@__crt_stdio_output@@V?$standard_base@DV?$string_output_adapter@D@__crt_stdio_output@@@2@@__crt_stdio_output@@CADH_N@Z 0042b53e f i libucrt:output.obj
 0001:0002a55c       ?adjust_hexit@?$output_processor@_WV?$stream_output_adapter@_W@__crt_stdio_output@@V?$format_validation_base@_WV?$stream_output_adapter@_W@__crt_stdio_output@@@2@@__crt_stdio_output@@CADH_N@Z 0042b55c f i libucrt:output.obj
 0001:0002a57a       ?adjust_hexit@?$output_processor@_WV?$stream_output_adapter@_W@__crt_stdio_output@@V?$positional_parameter_base@_WV?$stream_output_adapter@_W@__crt_stdio_output@@@2@@__crt_stdio_output@@CADH_N@Z 0042b57a f i libucrt:output.obj
 0001:0002a598       ?adjust_hexit@?$output_processor@_WV?$stream_output_adapter@_W@__crt_stdio_output@@V?$standard_base@_WV?$stream_output_adapter@_W@__crt_stdio_output@@@2@@__crt_stdio_output@@CADH_N@Z 0042b598 f i libucrt:output.obj
 0001:0002a5b6       ?adjust_hexit@?$output_processor@_WV?$string_output_adapter@_W@__crt_stdio_output@@V?$format_validation_base@_WV?$string_output_adapter@_W@__crt_stdio_output@@@2@@__crt_stdio_output@@CADH_N@Z 0042b5b6 f i libucrt:output.obj
 0001:0002a5d4       ?adjust_hexit@?$output_processor@_WV?$string_output_adapter@_W@__crt_stdio_output@@V?$positional_parameter_base@_WV?$string_output_adapter@_W@__crt_stdio_output@@@2@@__crt_stdio_output@@CADH_N@Z 0042b5d4 f i libucrt:output.obj
 0001:0002a5f2       ?adjust_hexit@?$output_processor@_WV?$string_output_adapter@_W@__crt_stdio_output@@V?$standard_base@_WV?$string_output_adapter@_W@__crt_stdio_output@@@2@@__crt_stdio_output@@CADH_N@Z 0042b5f2 f i libucrt:output.obj
 0001:0002a610       ?advance_to_next_pass@?$positional_parameter_base@DV?$stream_output_adapter@D@__crt_stdio_output@@@__crt_stdio_output@@IAE_NXZ 0042b610 f i libucrt:output.obj
 0001:0002a65c       ?advance_to_next_pass@?$positional_parameter_base@DV?$string_output_adapter@D@__crt_stdio_output@@@__crt_stdio_output@@IAE_NXZ 0042b65c f i libucrt:output.obj
 0001:0002a6a8       ?advance_to_next_pass@?$positional_parameter_base@_WV?$stream_output_adapter@_W@__crt_stdio_output@@@__crt_stdio_output@@IAE_NXZ 0042b6a8 f i libucrt:output.obj
 0001:0002a6f4       ?advance_to_next_pass@?$positional_parameter_base@_WV?$string_output_adapter@_W@__crt_stdio_output@@@__crt_stdio_output@@IAE_NXZ 0042b6f4 f i libucrt:output.obj
 0001:0002a740       ?advance_to_next_pass@?$standard_base@DV?$stream_output_adapter@D@__crt_stdio_output@@@__crt_stdio_output@@IAE_NXZ 0042b740 f i libucrt:output.obj
 0001:0002a753       ?advance_to_next_pass@?$standard_base@DV?$string_output_adapter@D@__crt_stdio_output@@@__crt_stdio_output@@IAE_NXZ 0042b753 f i libucrt:output.obj
 0001:0002a766       ?advance_to_next_pass@?$standard_base@_WV?$stream_output_adapter@_W@__crt_stdio_output@@@__crt_stdio_output@@IAE_NXZ 0042b766 f i libucrt:output.obj
 0001:0002a779       ?advance_to_next_pass@?$standard_base@_WV?$string_output_adapter@_W@__crt_stdio_output@@@__crt_stdio_output@@IAE_NXZ 0042b779 f i libucrt:output.obj
 0001:0002a78c       ?crop_zeroes@__crt_stdio_output@@YAXPADQAU__crt_locale_pointers@@@Z 0042b78c f i libucrt:output.obj
 0001:0002a7e3       ?find_next_state@?$output_processor@DV?$stream_output_adapter@D@__crt_stdio_output@@V?$format_validation_base@DV?$stream_output_adapter@D@__crt_stdio_output@@@2@@__crt_stdio_output@@ABE?AW4state@2@DW432@@Z 0042b7e3 f i libucrt:output.obj
 0001:0002a818       ?find_next_state@?$output_processor@DV?$stream_output_adapter@D@__crt_stdio_output@@V?$positional_parameter_base@DV?$stream_output_adapter@D@__crt_stdio_output@@@2@@__crt_stdio_output@@ABE?AW4state@2@DW432@@Z 0042b818 f i libucrt:output.obj
 0001:0002a84d       ?find_next_state@?$output_processor@DV?$stream_output_adapter@D@__crt_stdio_output@@V?$standard_base@DV?$stream_output_adapter@D@__crt_stdio_output@@@2@@__crt_stdio_output@@ABE?AW4state@2@DW432@@Z 0042b84d f i libucrt:output.obj
 0001:0002a87f       ?find_next_state@?$output_processor@DV?$string_output_adapter@D@__crt_stdio_output@@V?$format_validation_base@DV?$string_output_adapter@D@__crt_stdio_output@@@2@@__crt_stdio_output@@ABE?AW4state@2@DW432@@Z 0042b87f f i libucrt:output.obj
 0001:0002a8b4       ?find_next_state@?$output_processor@DV?$string_output_adapter@D@__crt_stdio_output@@V?$positional_parameter_base@DV?$string_output_adapter@D@__crt_stdio_output@@@2@@__crt_stdio_output@@ABE?AW4state@2@DW432@@Z 0042b8b4 f i libucrt:output.obj
 0001:0002a8e9       ?find_next_state@?$output_processor@DV?$string_output_adapter@D@__crt_stdio_output@@V?$standard_base@DV?$string_output_adapter@D@__crt_stdio_output@@@2@@__crt_stdio_output@@ABE?AW4state@2@DW432@@Z 0042b8e9 f i libucrt:output.obj
 0001:0002a91b       ?find_next_state@?$output_processor@_WV?$stream_output_adapter@_W@__crt_stdio_output@@V?$format_validation_base@_WV?$stream_output_adapter@_W@__crt_stdio_output@@@2@@__crt_stdio_output@@ABE?AW4state@2@_WW432@@Z 0042b91b f i libucrt:output.obj
 0001:0002a952       ?find_next_state@?$output_processor@_WV?$stream_output_adapter@_W@__crt_stdio_output@@V?$positional_parameter_base@_WV?$stream_output_adapter@_W@__crt_stdio_output@@@2@@__crt_stdio_output@@ABE?AW4state@2@_WW432@@Z 0042b952 f i libucrt:output.obj
 0001:0002a989       ?find_next_state@?$output_processor@_WV?$stream_output_adapter@_W@__crt_stdio_output@@V?$standard_base@_WV?$stream_output_adapter@_W@__crt_stdio_output@@@2@@__crt_stdio_output@@ABE?AW4state@2@_WW432@@Z 0042b989 f i libucrt:output.obj
 0001:0002a9bd       ?find_next_state@?$output_processor@_WV?$string_output_adapter@_W@__crt_stdio_output@@V?$format_validation_base@_WV?$string_output_adapter@_W@__crt_stdio_output@@@2@@__crt_stdio_output@@ABE?AW4state@2@_WW432@@Z 0042b9bd f i libucrt:output.obj
 0001:0002a9f4       ?find_next_state@?$output_processor@_WV?$string_output_adapter@_W@__crt_stdio_output@@V?$positional_parameter_base@_WV?$string_output_adapter@_W@__crt_stdio_output@@@2@@__crt_stdio_output@@ABE?AW4state@2@_WW432@@Z 0042b9f4 f i libucrt:output.obj
 0001:0002aa2b       ?find_next_state@?$output_processor@_WV?$string_output_adapter@_W@__crt_stdio_output@@V?$standard_base@_WV?$string_output_adapter@_W@__crt_stdio_output@@@2@@__crt_stdio_output@@ABE?AW4state@2@_WW432@@Z 0042ba2b f i libucrt:output.obj
 0001:0002aa5f       ?force_decimal_point@__crt_stdio_output@@YAXPADQAU__crt_locale_pointers@@@Z 0042ba5f f i libucrt:output.obj
 0001:0002aabb       ?get_parameter_type@?$positional_parameter_base@DV?$stream_output_adapter@D@__crt_stdio_output@@@__crt_stdio_output@@CA?AW4parameter_type@12@F@Z 0042babb f i libucrt:output.obj
 0001:0002aabf       ?get_parameter_type@?$positional_parameter_base@DV?$stream_output_adapter@D@__crt_stdio_output@@@__crt_stdio_output@@CA?AW4parameter_type@12@G@Z 0042babf f i libucrt:output.obj
 0001:0002aac3       ?get_parameter_type@?$positional_parameter_base@DV?$stream_output_adapter@D@__crt_stdio_output@@@__crt_stdio_output@@CA?AW4parameter_type@12@H@Z 0042bac3 f i libucrt:output.obj
 0001:0002aac7       ?get_parameter_type@?$positional_parameter_base@DV?$stream_output_adapter@D@__crt_stdio_output@@@__crt_stdio_output@@CA?AW4parameter_type@12@I@Z 0042bac7 f i libucrt:output.obj
 0001:0002aacb       ?get_parameter_type@?$positional_parameter_base@DV?$stream_output_adapter@D@__crt_stdio_output@@@__crt_stdio_output@@CA?AW4parameter_type@12@U_CRT_DOUBLE@@@Z 0042bacb f i libucrt:output.obj
 0001:0002aacf       ?get_parameter_type@?$positional_parameter_base@DV?$stream_output_adapter@D@__crt_stdio_output@@@__crt_stdio_output@@CA?AW4parameter_type@12@_J@Z 0042bacf f i libucrt:output.obj
 0001:0002aad3       ?get_parameter_type@?$positional_parameter_base@DV?$stream_output_adapter@D@__crt_stdio_output@@@__crt_stdio_output@@CA?AW4parameter_type@12@_K@Z 0042bad3 f i libucrt:output.obj
 0001:0002aad7       ?get_parameter_type@?$positional_parameter_base@DV?$stream_output_adapter@D@__crt_stdio_output@@@__crt_stdio_output@@CA?AW4parameter_type@12@_W@Z 0042bad7 f i libucrt:output.obj
 0001:0002aadb       ?get_parameter_type@?$positional_parameter_base@DV?$string_output_adapter@D@__crt_stdio_output@@@__crt_stdio_output@@CA?AW4parameter_type@12@F@Z 0042badb f i libucrt:output.obj
 0001:0002aadf       ?get_parameter_type@?$positional_parameter_base@DV?$string_output_adapter@D@__crt_stdio_output@@@__crt_stdio_output@@CA?AW4parameter_type@12@G@Z 0042badf f i libucrt:output.obj
 0001:0002aae3       ?get_parameter_type@?$positional_parameter_base@DV?$string_output_adapter@D@__crt_stdio_output@@@__crt_stdio_output@@CA?AW4parameter_type@12@H@Z 0042bae3 f i libucrt:output.obj
 0001:0002aae7       ?get_parameter_type@?$positional_parameter_base@DV?$string_output_adapter@D@__crt_stdio_output@@@__crt_stdio_output@@CA?AW4parameter_type@12@I@Z 0042bae7 f i libucrt:output.obj
 0001:0002aaeb       ?get_parameter_type@?$positional_parameter_base@DV?$string_output_adapter@D@__crt_stdio_output@@@__crt_stdio_output@@CA?AW4parameter_type@12@U_CRT_DOUBLE@@@Z 0042baeb f i libucrt:output.obj
 0001:0002aaef       ?get_parameter_type@?$positional_parameter_base@DV?$string_output_adapter@D@__crt_stdio_output@@@__crt_stdio_output@@CA?AW4parameter_type@12@_J@Z 0042baef f i libucrt:output.obj
 0001:0002aaf3       ?get_parameter_type@?$positional_parameter_base@DV?$string_output_adapter@D@__crt_stdio_output@@@__crt_stdio_output@@CA?AW4parameter_type@12@_K@Z 0042baf3 f i libucrt:output.obj
 0001:0002aaf7       ?get_parameter_type@?$positional_parameter_base@DV?$string_output_adapter@D@__crt_stdio_output@@@__crt_stdio_output@@CA?AW4parameter_type@12@_W@Z 0042baf7 f i libucrt:output.obj
 0001:0002aafb       ?get_parameter_type@?$positional_parameter_base@_WV?$stream_output_adapter@_W@__crt_stdio_output@@@__crt_stdio_output@@CA?AW4parameter_type@12@F@Z 0042bafb f i libucrt:output.obj
 0001:0002aaff       ?get_parameter_type@?$positional_parameter_base@_WV?$stream_output_adapter@_W@__crt_stdio_output@@@__crt_stdio_output@@CA?AW4parameter_type@12@G@Z 0042baff f i libucrt:output.obj
 0001:0002ab03       ?get_parameter_type@?$positional_parameter_base@_WV?$stream_output_adapter@_W@__crt_stdio_output@@@__crt_stdio_output@@CA?AW4parameter_type@12@H@Z 0042bb03 f i libucrt:output.obj
 0001:0002ab07       ?get_parameter_type@?$positional_parameter_base@_WV?$stream_output_adapter@_W@__crt_stdio_output@@@__crt_stdio_output@@CA?AW4parameter_type@12@I@Z 0042bb07 f i libucrt:output.obj
 0001:0002ab0b       ?get_parameter_type@?$positional_parameter_base@_WV?$stream_output_adapter@_W@__crt_stdio_output@@@__crt_stdio_output@@CA?AW4parameter_type@12@U_CRT_DOUBLE@@@Z 0042bb0b f i libucrt:output.obj
 0001:0002ab0f       ?get_parameter_type@?$positional_parameter_base@_WV?$stream_output_adapter@_W@__crt_stdio_output@@@__crt_stdio_output@@CA?AW4parameter_type@12@_J@Z 0042bb0f f i libucrt:output.obj
 0001:0002ab13       ?get_parameter_type@?$positional_parameter_base@_WV?$stream_output_adapter@_W@__crt_stdio_output@@@__crt_stdio_output@@CA?AW4parameter_type@12@_K@Z 0042bb13 f i libucrt:output.obj
 0001:0002ab17       ?get_parameter_type@?$positional_parameter_base@_WV?$stream_output_adapter@_W@__crt_stdio_output@@@__crt_stdio_output@@CA?AW4parameter_type@12@_W@Z 0042bb17 f i libucrt:output.obj
 0001:0002ab1b       ?get_parameter_type@?$positional_parameter_base@_WV?$string_output_adapter@_W@__crt_stdio_output@@@__crt_stdio_output@@CA?AW4parameter_type@12@F@Z 0042bb1b f i libucrt:output.obj
 0001:0002ab1f       ?get_parameter_type@?$positional_parameter_base@_WV?$string_output_adapter@_W@__crt_stdio_output@@@__crt_stdio_output@@CA?AW4parameter_type@12@G@Z 0042bb1f f i libucrt:output.obj
 0001:0002ab23       ?get_parameter_type@?$positional_parameter_base@_WV?$string_output_adapter@_W@__crt_stdio_output@@@__crt_stdio_output@@CA?AW4parameter_type@12@H@Z 0042bb23 f i libucrt:output.obj
 0001:0002ab27       ?get_parameter_type@?$positional_parameter_base@_WV?$string_output_adapter@_W@__crt_stdio_output@@@__crt_stdio_output@@CA?AW4parameter_type@12@I@Z 0042bb27 f i libucrt:output.obj
 0001:0002ab2b       ?get_parameter_type@?$positional_parameter_base@_WV?$string_output_adapter@_W@__crt_stdio_output@@@__crt_stdio_output@@CA?AW4parameter_type@12@U_CRT_DOUBLE@@@Z 0042bb2b f i libucrt:output.obj
 0001:0002ab2f       ?get_parameter_type@?$positional_parameter_base@_WV?$string_output_adapter@_W@__crt_stdio_output@@@__crt_stdio_output@@CA?AW4parameter_type@12@_J@Z 0042bb2f f i libucrt:output.obj
 0001:0002ab33       ?get_parameter_type@?$positional_parameter_base@_WV?$string_output_adapter@_W@__crt_stdio_output@@@__crt_stdio_output@@CA?AW4parameter_type@12@_K@Z 0042bb33 f i libucrt:output.obj
 0001:0002ab37       ?get_parameter_type@?$positional_parameter_base@_WV?$string_output_adapter@_W@__crt_stdio_output@@@__crt_stdio_output@@CA?AW4parameter_type@12@_W@Z 0042bb37 f i libucrt:output.obj
 0001:0002ab3b       ?has_flag@?$output_processor@DV?$stream_output_adapter@D@__crt_stdio_output@@V?$format_validation_base@DV?$stream_output_adapter@D@__crt_stdio_output@@@2@@__crt_stdio_output@@ABE_NI@Z 0042bb3b f i libucrt:output.obj
 0001:0002ab50       ?has_flag@?$output_processor@DV?$stream_output_adapter@D@__crt_stdio_output@@V?$positional_parameter_base@DV?$stream_output_adapter@D@__crt_stdio_output@@@2@@__crt_stdio_output@@ABE_NI@Z 0042bb50 f i libucrt:output.obj
 0001:0002ab65       ?has_flag@?$output_processor@DV?$stream_output_adapter@D@__crt_stdio_output@@V?$standard_base@DV?$stream_output_adapter@D@__crt_stdio_output@@@2@@__crt_stdio_output@@ABE_NI@Z 0042bb65 f i libucrt:output.obj
 0001:0002ab7a       ?has_flag@?$output_processor@DV?$string_output_adapter@D@__crt_stdio_output@@V?$format_validation_base@DV?$string_output_adapter@D@__crt_stdio_output@@@2@@__crt_stdio_output@@ABE_NI@Z 0042bb7a f i libucrt:output.obj
 0001:0002ab8f       ?has_flag@?$output_processor@DV?$string_output_adapter@D@__crt_stdio_output@@V?$positional_parameter_base@DV?$string_output_adapter@D@__crt_stdio_output@@@2@@__crt_stdio_output@@ABE_NI@Z 0042bb8f f i libucrt:output.obj
 0001:0002aba4       ?has_flag@?$output_processor@DV?$string_output_adapter@D@__crt_stdio_output@@V?$standard_base@DV?$string_output_adapter@D@__crt_stdio_output@@@2@@__crt_stdio_output@@ABE_NI@Z 0042bba4 f i libucrt:output.obj
 0001:0002abb9       ?has_flag@?$output_processor@_WV?$stream_output_adapter@_W@__crt_stdio_output@@V?$format_validation_base@_WV?$stream_output_adapter@_W@__crt_stdio_output@@@2@@__crt_stdio_output@@ABE_NI@Z 0042bbb9 f i libucrt:output.obj
 0001:0002abce       ?has_flag@?$output_processor@_WV?$stream_output_adapter@_W@__crt_stdio_output@@V?$positional_parameter_base@_WV?$stream_output_adapter@_W@__crt_stdio_output@@@2@@__crt_stdio_output@@ABE_NI@Z 0042bbce f i libucrt:output.obj
 0001:0002abe3       ?has_flag@?$output_processor@_WV?$stream_output_adapter@_W@__crt_stdio_output@@V?$standard_base@_WV?$stream_output_adapter@_W@__crt_stdio_output@@@2@@__crt_stdio_output@@ABE_NI@Z 0042bbe3 f i libucrt:output.obj
 0001:0002abf8       ?has_flag@?$output_processor@_WV?$string_output_adapter@_W@__crt_stdio_output@@V?$format_validation_base@_WV?$string_output_adapter@_W@__crt_stdio_output@@@2@@__crt_stdio_output@@ABE_NI@Z 0042bbf8 f i libucrt:output.obj
 0001:0002ac0d       ?has_flag@?$output_processor@_WV?$string_output_adapter@_W@__crt_stdio_output@@V?$positional_parameter_base@_WV?$string_output_adapter@_W@__crt_stdio_output@@@2@@__crt_stdio_output@@ABE_NI@Z 0042bc0d f i libucrt:output.obj
 0001:0002ac22       ?has_flag@?$output_processor@_WV?$string_output_adapter@_W@__crt_stdio_output@@V?$standard_base@_WV?$string_output_adapter@_W@__crt_stdio_output@@@2@@__crt_stdio_output@@ABE_NI@Z 0042bc22 f i libucrt:output.obj
 0001:0002ac37       ?is_positional_parameter_reappearance_consistent@?$positional_parameter_base@DV?$stream_output_adapter@D@__crt_stdio_output@@@__crt_stdio_output@@AAE_NABUparameter_data@12@W4parameter_type@12@DW4length_modifier@2@@Z 0042bc37 f i libucrt:output.obj
 0001:0002ad65       ?is_positional_parameter_reappearance_consistent@?$positional_parameter_base@DV?$string_output_adapter@D@__crt_stdio_output@@@__crt_stdio_output@@AAE_NABUparameter_data@12@W4parameter_type@12@DW4length_modifier@2@@Z 0042bd65 f i libucrt:output.obj
 0001:0002ae93       ?is_positional_parameter_reappearance_consistent@?$positional_parameter_base@_WV?$stream_output_adapter@_W@__crt_stdio_output@@@__crt_stdio_output@@AAE_NABUparameter_data@12@W4parameter_type@12@_WW4length_modifier@2@@Z 0042be93 f i libucrt:output.obj
 0001:0002afb6       ?is_positional_parameter_reappearance_consistent@?$positional_parameter_base@_WV?$string_output_adapter@_W@__crt_stdio_output@@@__crt_stdio_output@@AAE_NABUparameter_data@12@W4parameter_type@12@_WW4length_modifier@2@@Z 0042bfb6 f i libucrt:output.obj
 0001:0002b0d9       ?narrow_null_string@?$output_processor@DV?$stream_output_adapter@D@__crt_stdio_output@@V?$format_validation_base@DV?$stream_output_adapter@D@__crt_stdio_output@@@2@@__crt_stdio_output@@CAPADXZ 0042c0d9 f i libucrt:output.obj
 0001:0002b0df       ?narrow_null_string@?$output_processor@DV?$stream_output_adapter@D@__crt_stdio_output@@V?$positional_parameter_base@DV?$stream_output_adapter@D@__crt_stdio_output@@@2@@__crt_stdio_output@@CAPADXZ 0042c0df f i libucrt:output.obj
 0001:0002b0e5       ?narrow_null_string@?$output_processor@DV?$stream_output_adapter@D@__crt_stdio_output@@V?$standard_base@DV?$stream_output_adapter@D@__crt_stdio_output@@@2@@__crt_stdio_output@@CAPADXZ 0042c0e5 f i libucrt:output.obj
 0001:0002b0eb       ?narrow_null_string@?$output_processor@DV?$string_output_adapter@D@__crt_stdio_output@@V?$format_validation_base@DV?$string_output_adapter@D@__crt_stdio_output@@@2@@__crt_stdio_output@@CAPADXZ 0042c0eb f i libucrt:output.obj
 0001:0002b0f1       ?narrow_null_string@?$output_processor@DV?$string_output_adapter@D@__crt_stdio_output@@V?$positional_parameter_base@DV?$string_output_adapter@D@__crt_stdio_output@@@2@@__crt_stdio_output@@CAPADXZ 0042c0f1 f i libucrt:output.obj
 0001:0002b0f7       ?narrow_null_string@?$output_processor@DV?$string_output_adapter@D@__crt_stdio_output@@V?$standard_base@DV?$string_output_adapter@D@__crt_stdio_output@@@2@@__crt_stdio_output@@CAPADXZ 0042c0f7 f i libucrt:output.obj
 0001:0002b0fd       ?narrow_null_string@?$output_processor@_WV?$stream_output_adapter@_W@__crt_stdio_output@@V?$format_validation_base@_WV?$stream_output_adapter@_W@__crt_stdio_output@@@2@@__crt_stdio_output@@CAPADXZ 0042c0fd f i libucrt:output.obj
 0001:0002b103       ?narrow_null_string@?$output_processor@_WV?$stream_output_adapter@_W@__crt_stdio_output@@V?$positional_parameter_base@_WV?$stream_output_adapter@_W@__crt_stdio_output@@@2@@__crt_stdio_output@@CAPADXZ 0042c103 f i libucrt:output.obj
 0001:0002b109       ?narrow_null_string@?$output_processor@_WV?$stream_output_adapter@_W@__crt_stdio_output@@V?$standard_base@_WV?$stream_output_adapter@_W@__crt_stdio_output@@@2@@__crt_stdio_output@@CAPADXZ 0042c109 f i libucrt:output.obj
 0001:0002b10f       ?narrow_null_string@?$output_processor@_WV?$string_output_adapter@_W@__crt_stdio_output@@V?$format_validation_base@_WV?$string_output_adapter@_W@__crt_stdio_output@@@2@@__crt_stdio_output@@CAPADXZ 0042c10f f i libucrt:output.obj
 0001:0002b115       ?narrow_null_string@?$output_processor@_WV?$string_output_adapter@_W@__crt_stdio_output@@V?$positional_parameter_base@_WV?$string_output_adapter@_W@__crt_stdio_output@@@2@@__crt_stdio_output@@CAPADXZ 0042c115 f i libucrt:output.obj
 0001:0002b11b       ?narrow_null_string@?$output_processor@_WV?$string_output_adapter@_W@__crt_stdio_output@@V?$standard_base@_WV?$string_output_adapter@_W@__crt_stdio_output@@@2@@__crt_stdio_output@@CAPADXZ 0042c11b f i libucrt:output.obj
 0001:0002b121       ?parse_int_from_format_string@?$output_processor@DV?$stream_output_adapter@D@__crt_stdio_output@@V?$format_validation_base@DV?$stream_output_adapter@D@__crt_stdio_output@@@2@@__crt_stdio_output@@AAE_NQAH@Z 0042c121 f i libucrt:output.obj
 0001:0002b17d       ?parse_int_from_format_string@?$output_processor@DV?$stream_output_adapter@D@__crt_stdio_output@@V?$positional_parameter_base@DV?$stream_output_adapter@D@__crt_stdio_output@@@2@@__crt_stdio_output@@AAE_NQAH@Z 0042c17d f i libucrt:output.obj
 0001:0002b1d9       ?parse_int_from_format_string@?$output_processor@DV?$stream_output_adapter@D@__crt_stdio_output@@V?$standard_base@DV?$stream_output_adapter@D@__crt_stdio_output@@@2@@__crt_stdio_output@@AAE_NQAH@Z 0042c1d9 f i libucrt:output.obj
 0001:0002b235       ?parse_int_from_format_string@?$output_processor@DV?$string_output_adapter@D@__crt_stdio_output@@V?$format_validation_base@DV?$string_output_adapter@D@__crt_stdio_output@@@2@@__crt_stdio_output@@AAE_NQAH@Z 0042c235 f i libucrt:output.obj
 0001:0002b291       ?parse_int_from_format_string@?$output_processor@DV?$string_output_adapter@D@__crt_stdio_output@@V?$positional_parameter_base@DV?$string_output_adapter@D@__crt_stdio_output@@@2@@__crt_stdio_output@@AAE_NQAH@Z 0042c291 f i libucrt:output.obj
 0001:0002b2ed       ?parse_int_from_format_string@?$output_processor@DV?$string_output_adapter@D@__crt_stdio_output@@V?$standard_base@DV?$string_output_adapter@D@__crt_stdio_output@@@2@@__crt_stdio_output@@AAE_NQAH@Z 0042c2ed f i libucrt:output.obj
 0001:0002b349       ?parse_int_from_format_string@?$output_processor@_WV?$stream_output_adapter@_W@__crt_stdio_output@@V?$format_validation_base@_WV?$stream_output_adapter@_W@__crt_stdio_output@@@2@@__crt_stdio_output@@AAE_NQAH@Z 0042c349 f i libucrt:output.obj
 0001:0002b3a7       ?parse_int_from_format_string@?$output_processor@_WV?$stream_output_adapter@_W@__crt_stdio_output@@V?$positional_parameter_base@_WV?$stream_output_adapter@_W@__crt_stdio_output@@@2@@__crt_stdio_output@@AAE_NQAH@Z 0042c3a7 f i libucrt:output.obj
 0001:0002b405       ?parse_int_from_format_string@?$output_processor@_WV?$stream_output_adapter@_W@__crt_stdio_output@@V?$standard_base@_WV?$stream_output_adapter@_W@__crt_stdio_output@@@2@@__crt_stdio_output@@AAE_NQAH@Z 0042c405 f i libucrt:output.obj
 0001:0002b463       ?parse_int_from_format_string@?$output_processor@_WV?$string_output_adapter@_W@__crt_stdio_output@@V?$format_validation_base@_WV?$string_output_adapter@_W@__crt_stdio_output@@@2@@__crt_stdio_output@@AAE_NQAH@Z 0042c463 f i libucrt:output.obj
 0001:0002b4c1       ?parse_int_from_format_string@?$output_processor@_WV?$string_output_adapter@_W@__crt_stdio_output@@V?$positional_parameter_base@_WV?$string_output_adapter@_W@__crt_stdio_output@@@2@@__crt_stdio_output@@AAE_NQAH@Z 0042c4c1 f i libucrt:output.obj
 0001:0002b51f       ?parse_int_from_format_string@?$output_processor@_WV?$string_output_adapter@_W@__crt_stdio_output@@V?$standard_base@_WV?$string_output_adapter@_W@__crt_stdio_output@@@2@@__crt_stdio_output@@AAE_NQAH@Z 0042c51f f i libucrt:output.obj
 0001:0002b57d       ?process@?$output_processor@DV?$stream_output_adapter@D@__crt_stdio_output@@V?$format_validation_base@DV?$stream_output_adapter@D@__crt_stdio_output@@@2@@__crt_stdio_output@@QAEHXZ 0042c57d f i libucrt:output.obj
 0001:0002b6a5       ?process@?$output_processor@DV?$stream_output_adapter@D@__crt_stdio_output@@V?$positional_parameter_base@DV?$stream_output_adapter@D@__crt_stdio_output@@@2@@__crt_stdio_output@@QAEHXZ 0042c6a5 f i libucrt:output.obj
 0001:0002b801       ?process@?$output_processor@DV?$stream_output_adapter@D@__crt_stdio_output@@V?$standard_base@DV?$stream_output_adapter@D@__crt_stdio_output@@@2@@__crt_stdio_output@@QAEHXZ 0042c801 f i libucrt:output.obj
 0001:0002b91d       ?process@?$output_processor@DV?$string_output_adapter@D@__crt_stdio_output@@V?$format_validation_base@DV?$string_output_adapter@D@__crt_stdio_output@@@2@@__crt_stdio_output@@QAEHXZ 0042c91d f i libucrt:output.obj
 0001:0002ba45       ?process@?$output_processor@DV?$string_output_adapter@D@__crt_stdio_output@@V?$positional_parameter_base@DV?$string_output_adapter@D@__crt_stdio_output@@@2@@__crt_stdio_output@@QAEHXZ 0042ca45 f i libucrt:output.obj
 0001:0002bba1       ?process@?$output_processor@DV?$string_output_adapter@D@__crt_stdio_output@@V?$standard_base@DV?$string_output_adapter@D@__crt_stdio_output@@@2@@__crt_stdio_output@@QAEHXZ 0042cba1 f i libucrt:output.obj
 0001:0002bcbd       ?process@?$output_processor@_WV?$stream_output_adapter@_W@__crt_stdio_output@@V?$format_validation_base@_WV?$stream_output_adapter@_W@__crt_stdio_output@@@2@@__crt_stdio_output@@QAEHXZ 0042ccbd f i libucrt:output.obj
 0001:0002bded       ?process@?$output_processor@_WV?$stream_output_adapter@_W@__crt_stdio_output@@V?$positional_parameter_base@_WV?$stream_output_adapter@_W@__crt_stdio_output@@@2@@__crt_stdio_output@@QAEHXZ 0042cded f i libucrt:output.obj
 0001:0002bf4d       ?process@?$output_processor@_WV?$stream_output_adapter@_W@__crt_stdio_output@@V?$standard_base@_WV?$stream_output_adapter@_W@__crt_stdio_output@@@2@@__crt_stdio_output@@QAEHXZ 0042cf4d f i libucrt:output.obj
 0001:0002c06d       ?process@?$output_processor@_WV?$string_output_adapter@_W@__crt_stdio_output@@V?$format_validation_base@_WV?$string_output_adapter@_W@__crt_stdio_output@@@2@@__crt_stdio_output@@QAEHXZ 0042d06d f i libucrt:output.obj
 0001:0002c19d       ?process@?$output_processor@_WV?$string_output_adapter@_W@__crt_stdio_output@@V?$positional_parameter_base@_WV?$string_output_adapter@_W@__crt_stdio_output@@@2@@__crt_stdio_output@@QAEHXZ 0042d19d f i libucrt:output.obj
 0001:0002c2fd       ?process@?$output_processor@_WV?$string_output_adapter@_W@__crt_stdio_output@@V?$standard_base@_WV?$string_output_adapter@_W@__crt_stdio_output@@@2@@__crt_stdio_output@@QAEHXZ 0042d2fd f i libucrt:output.obj
 0001:0002c41d       ?set_flag@?$output_processor@DV?$stream_output_adapter@D@__crt_stdio_output@@V?$format_validation_base@DV?$stream_output_adapter@D@__crt_stdio_output@@@2@@__crt_stdio_output@@AAEXI@Z 0042d41d f i libucrt:output.obj
 0001:0002c42c       ?set_flag@?$output_processor@DV?$stream_output_adapter@D@__crt_stdio_output@@V?$positional_parameter_base@DV?$stream_output_adapter@D@__crt_stdio_output@@@2@@__crt_stdio_output@@AAEXI@Z 0042d42c f i libucrt:output.obj
 0001:0002c43b       ?set_flag@?$output_processor@DV?$stream_output_adapter@D@__crt_stdio_output@@V?$standard_base@DV?$stream_output_adapter@D@__crt_stdio_output@@@2@@__crt_stdio_output@@AAEXI@Z 0042d43b f i libucrt:output.obj
 0001:0002c44a       ?set_flag@?$output_processor@DV?$string_output_adapter@D@__crt_stdio_output@@V?$format_validation_base@DV?$string_output_adapter@D@__crt_stdio_output@@@2@@__crt_stdio_output@@AAEXI@Z 0042d44a f i libucrt:output.obj
 0001:0002c459       ?set_flag@?$output_processor@DV?$string_output_adapter@D@__crt_stdio_output@@V?$positional_parameter_base@DV?$string_output_adapter@D@__crt_stdio_output@@@2@@__crt_stdio_output@@AAEXI@Z 0042d459 f i libucrt:output.obj
 0001:0002c468       ?set_flag@?$output_processor@DV?$string_output_adapter@D@__crt_stdio_output@@V?$standard_base@DV?$string_output_adapter@D@__crt_stdio_output@@@2@@__crt_stdio_output@@AAEXI@Z 0042d468 f i libucrt:output.obj
 0001:0002c477       ?set_flag@?$output_processor@_WV?$stream_output_adapter@_W@__crt_stdio_output@@V?$format_validation_base@_WV?$stream_output_adapter@_W@__crt_stdio_output@@@2@@__crt_stdio_output@@AAEXI@Z 0042d477 f i libucrt:output.obj
 0001:0002c486       ?set_flag@?$output_processor@_WV?$stream_output_adapter@_W@__crt_stdio_output@@V?$positional_parameter_base@_WV?$stream_output_adapter@_W@__crt_stdio_output@@@2@@__crt_stdio_output@@AAEXI@Z 0042d486 f i libucrt:output.obj
 0001:0002c495       ?set_flag@?$output_processor@_WV?$stream_output_adapter@_W@__crt_stdio_output@@V?$standard_base@_WV?$stream_output_adapter@_W@__crt_stdio_output@@@2@@__crt_stdio_output@@AAEXI@Z 0042d495 f i libucrt:output.obj
 0001:0002c4a4       ?set_flag@?$output_processor@_WV?$string_output_adapter@_W@__crt_stdio_output@@V?$format_validation_base@_WV?$string_output_adapter@_W@__crt_stdio_output@@@2@@__crt_stdio_output@@AAEXI@Z 0042d4a4 f i libucrt:output.obj
 0001:0002c4b3       ?set_flag@?$output_processor@_WV?$string_output_adapter@_W@__crt_stdio_output@@V?$positional_parameter_base@_WV?$string_output_adapter@_W@__crt_stdio_output@@@2@@__crt_stdio_output@@AAEXI@Z 0042d4b3 f i libucrt:output.obj
 0001:0002c4c2       ?set_flag@?$output_processor@_WV?$string_output_adapter@_W@__crt_stdio_output@@V?$standard_base@_WV?$string_output_adapter@_W@__crt_stdio_output@@@2@@__crt_stdio_output@@AAEXI@Z 0042d4c2 f i libucrt:output.obj
 0001:0002c4d1       ?should_format@?$positional_parameter_base@DV?$stream_output_adapter@D@__crt_stdio_output@@@__crt_stdio_output@@IAE_NXZ 0042d4d1 f i libucrt:output.obj
 0001:0002c4e7       ?should_format@?$positional_parameter_base@DV?$string_output_adapter@D@__crt_stdio_output@@@__crt_stdio_output@@IAE_NXZ 0042d4e7 f i libucrt:output.obj
 0001:0002c4fd       ?should_format@?$positional_parameter_base@_WV?$stream_output_adapter@_W@__crt_stdio_output@@@__crt_stdio_output@@IAE_NXZ 0042d4fd f i libucrt:output.obj
 0001:0002c513       ?should_format@?$positional_parameter_base@_WV?$string_output_adapter@_W@__crt_stdio_output@@@__crt_stdio_output@@IAE_NXZ 0042d513 f i libucrt:output.obj
 0001:0002c529       ?should_format@?$standard_base@DV?$stream_output_adapter@D@__crt_stdio_output@@@__crt_stdio_output@@IAE_NXZ 0042d529 f i libucrt:output.obj
 0001:0002c52c       ?should_format@?$standard_base@DV?$string_output_adapter@D@__crt_stdio_output@@@__crt_stdio_output@@IAE_NXZ 0042d52c f i libucrt:output.obj
 0001:0002c52f       ?should_format@?$standard_base@_WV?$stream_output_adapter@_W@__crt_stdio_output@@@__crt_stdio_output@@IAE_NXZ 0042d52f f i libucrt:output.obj
 0001:0002c532       ?should_format@?$standard_base@_WV?$string_output_adapter@_W@__crt_stdio_output@@@__crt_stdio_output@@IAE_NXZ 0042d532 f i libucrt:output.obj
 0001:0002c535       ?should_skip_normal_state_processing@?$positional_parameter_base@DV?$stream_output_adapter@D@__crt_stdio_output@@@__crt_stdio_output@@IAE_NXZ 0042d535 f i libucrt:output.obj
 0001:0002c55d       ?should_skip_normal_state_processing@?$positional_parameter_base@DV?$string_output_adapter@D@__crt_stdio_output@@@__crt_stdio_output@@IAE_NXZ 0042d55d f i libucrt:output.obj
 0001:0002c585       ?should_skip_normal_state_processing@?$positional_parameter_base@_WV?$stream_output_adapter@_W@__crt_stdio_output@@@__crt_stdio_output@@IAE_NXZ 0042d585 f i libucrt:output.obj
 0001:0002c5ad       ?should_skip_normal_state_processing@?$positional_parameter_base@_WV?$string_output_adapter@_W@__crt_stdio_output@@@__crt_stdio_output@@IAE_NXZ 0042d5ad f i libucrt:output.obj
 0001:0002c5d5       ?should_skip_normal_state_processing@?$standard_base@DV?$stream_output_adapter@D@__crt_stdio_output@@@__crt_stdio_output@@IAE_NXZ 0042d5d5 f i libucrt:output.obj
 0001:0002c5d8       ?should_skip_normal_state_processing@?$standard_base@DV?$string_output_adapter@D@__crt_stdio_output@@@__crt_stdio_output@@IAE_NXZ 0042d5d8 f i libucrt:output.obj
 0001:0002c5db       ?should_skip_normal_state_processing@?$standard_base@_WV?$stream_output_adapter@_W@__crt_stdio_output@@@__crt_stdio_output@@IAE_NXZ 0042d5db f i libucrt:output.obj
 0001:0002c5de       ?should_skip_normal_state_processing@?$standard_base@_WV?$string_output_adapter@_W@__crt_stdio_output@@@__crt_stdio_output@@IAE_NXZ 0042d5de f i libucrt:output.obj
 0001:0002c5e1       ?should_skip_type_state_output@?$positional_parameter_base@DV?$stream_output_adapter@D@__crt_stdio_output@@@__crt_stdio_output@@IBE_NXZ 0042d5e1 f i libucrt:output.obj
 0001:0002c5f8       ?should_skip_type_state_output@?$positional_parameter_base@DV?$string_output_adapter@D@__crt_stdio_output@@@__crt_stdio_output@@IBE_NXZ 0042d5f8 f i libucrt:output.obj
 0001:0002c60f       ?should_skip_type_state_output@?$positional_parameter_base@_WV?$stream_output_adapter@_W@__crt_stdio_output@@@__crt_stdio_output@@IBE_NXZ 0042d60f f i libucrt:output.obj
 0001:0002c626       ?should_skip_type_state_output@?$positional_parameter_base@_WV?$string_output_adapter@_W@__crt_stdio_output@@@__crt_stdio_output@@IBE_NXZ 0042d626 f i libucrt:output.obj
 0001:0002c63d       ?should_skip_type_state_output@?$standard_base@DV?$stream_output_adapter@D@__crt_stdio_output@@@__crt_stdio_output@@IBE_NXZ 0042d63d f i libucrt:output.obj
 0001:0002c640       ?should_skip_type_state_output@?$standard_base@DV?$string_output_adapter@D@__crt_stdio_output@@@__crt_stdio_output@@IBE_NXZ 0042d640 f i libucrt:output.obj
 0001:0002c643       ?should_skip_type_state_output@?$standard_base@_WV?$stream_output_adapter@_W@__crt_stdio_output@@@__crt_stdio_output@@IBE_NXZ 0042d643 f i libucrt:output.obj
 0001:0002c646       ?should_skip_type_state_output@?$standard_base@_WV?$string_output_adapter@_W@__crt_stdio_output@@@__crt_stdio_output@@IBE_NXZ 0042d646 f i libucrt:output.obj
 0001:0002c649       ?state_case_dot@?$output_processor@DV?$stream_output_adapter@D@__crt_stdio_output@@V?$format_validation_base@DV?$stream_output_adapter@D@__crt_stdio_output@@@2@@__crt_stdio_output@@AAE_NXZ 0042d649 f i libucrt:output.obj
 0001:0002c650       ?state_case_dot@?$output_processor@DV?$stream_output_adapter@D@__crt_stdio_output@@V?$positional_parameter_base@DV?$stream_output_adapter@D@__crt_stdio_output@@@2@@__crt_stdio_output@@AAE_NXZ 0042d650 f i libucrt:output.obj
 0001:0002c657       ?state_case_dot@?$output_processor@DV?$stream_output_adapter@D@__crt_stdio_output@@V?$standard_base@DV?$stream_output_adapter@D@__crt_stdio_output@@@2@@__crt_stdio_output@@AAE_NXZ 0042d657 f i libucrt:output.obj
 0001:0002c65e       ?state_case_dot@?$output_processor@DV?$string_output_adapter@D@__crt_stdio_output@@V?$format_validation_base@DV?$string_output_adapter@D@__crt_stdio_output@@@2@@__crt_stdio_output@@AAE_NXZ 0042d65e f i libucrt:output.obj
 0001:0002c665       ?state_case_dot@?$output_processor@DV?$string_output_adapter@D@__crt_stdio_output@@V?$positional_parameter_base@DV?$string_output_adapter@D@__crt_stdio_output@@@2@@__crt_stdio_output@@AAE_NXZ 0042d665 f i libucrt:output.obj
 0001:0002c66c       ?state_case_dot@?$output_processor@DV?$string_output_adapter@D@__crt_stdio_output@@V?$standard_base@DV?$string_output_adapter@D@__crt_stdio_output@@@2@@__crt_stdio_output@@AAE_NXZ 0042d66c f i libucrt:output.obj
 0001:0002c673       ?state_case_dot@?$output_processor@_WV?$stream_output_adapter@_W@__crt_stdio_output@@V?$format_validation_base@_WV?$stream_output_adapter@_W@__crt_stdio_output@@@2@@__crt_stdio_output@@AAE_NXZ 0042d673 f i libucrt:output.obj
 0001:0002c67a       ?state_case_dot@?$output_processor@_WV?$stream_output_adapter@_W@__crt_stdio_output@@V?$positional_parameter_base@_WV?$stream_output_adapter@_W@__crt_stdio_output@@@2@@__crt_stdio_output@@AAE_NXZ 0042d67a f i libucrt:output.obj
 0001:0002c681       ?state_case_dot@?$output_processor@_WV?$stream_output_adapter@_W@__crt_stdio_output@@V?$standard_base@_WV?$stream_output_adapter@_W@__crt_stdio_output@@@2@@__crt_stdio_output@@AAE_NXZ 0042d681 f i libucrt:output.obj
 0001:0002c688       ?state_case_dot@?$output_processor@_WV?$string_output_adapter@_W@__crt_stdio_output@@V?$format_validation_base@_WV?$string_output_adapter@_W@__crt_stdio_output@@@2@@__crt_stdio_output@@AAE_NXZ 0042d688 f i libucrt:output.obj
 0001:0002c68f       ?state_case_dot@?$output_processor@_WV?$string_output_adapter@_W@__crt_stdio_output@@V?$positional_parameter_base@_WV?$string_output_adapter@_W@__crt_stdio_output@@@2@@__crt_stdio_output@@AAE_NXZ 0042d68f f i libucrt:output.obj
 0001:0002c696       ?state_case_dot@?$output_processor@_WV?$string_output_adapter@_W@__crt_stdio_output@@V?$standard_base@_WV?$string_output_adapter@_W@__crt_stdio_output@@@2@@__crt_stdio_output@@AAE_NXZ 0042d696 f i libucrt:output.obj
 0001:0002c69d       ?state_case_flag@?$output_processor@DV?$stream_output_adapter@D@__crt_stdio_output@@V?$format_validation_base@DV?$stream_output_adapter@D@__crt_stdio_output@@@2@@__crt_stdio_output@@AAE_NXZ 0042d69d f i libucrt:output.obj
 0001:0002c6da       ?state_case_flag@?$output_processor@DV?$stream_output_adapter@D@__crt_stdio_output@@V?$positional_parameter_base@DV?$stream_output_adapter@D@__crt_stdio_output@@@2@@__crt_stdio_output@@AAE_NXZ 0042d6da f i libucrt:output.obj
 0001:0002c717       ?state_case_flag@?$output_processor@DV?$stream_output_adapter@D@__crt_stdio_output@@V?$standard_base@DV?$stream_output_adapter@D@__crt_stdio_output@@@2@@__crt_stdio_output@@AAE_NXZ 0042d717 f i libucrt:output.obj
 0001:0002c754       ?state_case_flag@?$output_processor@DV?$string_output_adapter@D@__crt_stdio_output@@V?$format_validation_base@DV?$string_output_adapter@D@__crt_stdio_output@@@2@@__crt_stdio_output@@AAE_NXZ 0042d754 f i libucrt:output.obj
 0001:0002c791       ?state_case_flag@?$output_processor@DV?$string_output_adapter@D@__crt_stdio_output@@V?$positional_parameter_base@DV?$string_output_adapter@D@__crt_stdio_output@@@2@@__crt_stdio_output@@AAE_NXZ 0042d791 f i libucrt:output.obj
 0001:0002c7ce       ?state_case_flag@?$output_processor@DV?$string_output_adapter@D@__crt_stdio_output@@V?$standard_base@DV?$string_output_adapter@D@__crt_stdio_output@@@2@@__crt_stdio_output@@AAE_NXZ 0042d7ce f i libucrt:output.obj
 0001:0002c80b       ?state_case_flag@?$output_processor@_WV?$stream_output_adapter@_W@__crt_stdio_output@@V?$format_validation_base@_WV?$stream_output_adapter@_W@__crt_stdio_output@@@2@@__crt_stdio_output@@AAE_NXZ 0042d80b f i libucrt:output.obj
 0001:0002c848       ?state_case_flag@?$output_processor@_WV?$stream_output_adapter@_W@__crt_stdio_output@@V?$positional_parameter_base@_WV?$stream_output_adapter@_W@__crt_stdio_output@@@2@@__crt_stdio_output@@AAE_NXZ 0042d848 f i libucrt:output.obj
 0001:0002c885       ?state_case_flag@?$output_processor@_WV?$stream_output_adapter@_W@__crt_stdio_output@@V?$standard_base@_WV?$stream_output_adapter@_W@__crt_stdio_output@@@2@@__crt_stdio_output@@AAE_NXZ 0042d885 f i libucrt:output.obj
 0001:0002c8c2       ?state_case_flag@?$output_processor@_WV?$string_output_adapter@_W@__crt_stdio_output@@V?$format_validation_base@_WV?$string_output_adapter@_W@__crt_stdio_output@@@2@@__crt_stdio_output@@AAE_NXZ 0042d8c2 f i libucrt:output.obj
 0001:0002c8ff       ?state_case_flag@?$output_processor@_WV?$string_output_adapter@_W@__crt_stdio_output@@V?$positional_parameter_base@_WV?$string_output_adapter@_W@__crt_stdio_output@@@2@@__crt_stdio_output@@AAE_NXZ 0042d8ff f i libucrt:output.obj
 0001:0002c93c       ?state_case_flag@?$output_processor@_WV?$string_output_adapter@_W@__crt_stdio_output@@V?$standard_base@_WV?$string_output_adapter@_W@__crt_stdio_output@@@2@@__crt_stdio_output@@AAE_NXZ 0042d93c f i libucrt:output.obj
 0001:0002c979       ?state_case_normal@?$output_processor@DV?$stream_output_adapter@D@__crt_stdio_output@@V?$format_validation_base@DV?$stream_output_adapter@D@__crt_stdio_output@@@2@@__crt_stdio_output@@AAE_NXZ 0042d979 f i libucrt:output.obj
 0001:0002c998       ?state_case_normal@?$output_processor@DV?$stream_output_adapter@D@__crt_stdio_output@@V?$positional_parameter_base@DV?$stream_output_adapter@D@__crt_stdio_output@@@2@@__crt_stdio_output@@AAE_NXZ 0042d998 f i libucrt:output.obj
 0001:0002c9c9       ?state_case_normal@?$output_processor@DV?$stream_output_adapter@D@__crt_stdio_output@@V?$standard_base@DV?$stream_output_adapter@D@__crt_stdio_output@@@2@@__crt_stdio_output@@AAE_NXZ 0042d9c9 f i libucrt:output.obj
 0001:0002c9e8       ?state_case_normal@?$output_processor@DV?$string_output_adapter@D@__crt_stdio_output@@V?$format_validation_base@DV?$string_output_adapter@D@__crt_stdio_output@@@2@@__crt_stdio_output@@AAE_NXZ 0042d9e8 f i libucrt:output.obj
 0001:0002ca07       ?state_case_normal@?$output_processor@DV?$string_output_adapter@D@__crt_stdio_output@@V?$positional_parameter_base@DV?$string_output_adapter@D@__crt_stdio_output@@@2@@__crt_stdio_output@@AAE_NXZ 0042da07 f i libucrt:output.obj
 0001:0002ca38       ?state_case_normal@?$output_processor@DV?$string_output_adapter@D@__crt_stdio_output@@V?$standard_base@DV?$string_output_adapter@D@__crt_stdio_output@@@2@@__crt_stdio_output@@AAE_NXZ 0042da38 f i libucrt:output.obj
 0001:0002ca57       ?state_case_normal@?$output_processor@_WV?$stream_output_adapter@_W@__crt_stdio_output@@V?$format_validation_base@_WV?$stream_output_adapter@_W@__crt_stdio_output@@@2@@__crt_stdio_output@@AAE_NXZ 0042da57 f i libucrt:output.obj
 0001:0002ca76       ?state_case_normal@?$output_processor@_WV?$stream_output_adapter@_W@__crt_stdio_output@@V?$positional_parameter_base@_WV?$stream_output_adapter@_W@__crt_stdio_output@@@2@@__crt_stdio_output@@AAE_NXZ 0042da76 f i libucrt:output.obj
 0001:0002caa7       ?state_case_normal@?$output_processor@_WV?$stream_output_adapter@_W@__crt_stdio_output@@V?$standard_base@_WV?$stream_output_adapter@_W@__crt_stdio_output@@@2@@__crt_stdio_output@@AAE_NXZ 0042daa7 f i libucrt:output.obj
 0001:0002cac6       ?state_case_normal@?$output_processor@_WV?$string_output_adapter@_W@__crt_stdio_output@@V?$format_validation_base@_WV?$string_output_adapter@_W@__crt_stdio_output@@@2@@__crt_stdio_output@@AAE_NXZ 0042dac6 f i libucrt:output.obj
 0001:0002cae5       ?state_case_normal@?$output_processor@_WV?$string_output_adapter@_W@__crt_stdio_output@@V?$positional_parameter_base@_WV?$string_output_adapter@_W@__crt_stdio_output@@@2@@__crt_stdio_output@@AAE_NXZ 0042dae5 f i libucrt:output.obj
 0001:0002cb16       ?state_case_normal@?$output_processor@_WV?$string_output_adapter@_W@__crt_stdio_output@@V?$standard_base@_WV?$string_output_adapter@_W@__crt_stdio_output@@@2@@__crt_stdio_output@@AAE_NXZ 0042db16 f i libucrt:output.obj
 0001:0002cb35       ?state_case_normal_common@?$output_processor@DV?$stream_output_adapter@D@__crt_stdio_output@@V?$format_validation_base@DV?$stream_output_adapter@D@__crt_stdio_output@@@2@@__crt_stdio_output@@AAE_NXZ 0042db35 f i libucrt:output.obj
 0001:0002cb5f       ?state_case_normal_common@?$output_processor@DV?$stream_output_adapter@D@__crt_stdio_output@@V?$positional_parameter_base@DV?$stream_output_adapter@D@__crt_stdio_output@@@2@@__crt_stdio_output@@AAE_NXZ 0042db5f f i libucrt:output.obj
 0001:0002cb89       ?state_case_normal_common@?$output_processor@DV?$stream_output_adapter@D@__crt_stdio_output@@V?$standard_base@DV?$stream_output_adapter@D@__crt_stdio_output@@@2@@__crt_stdio_output@@AAE_NXZ 0042db89 f i libucrt:output.obj
 0001:0002cbb3       ?state_case_normal_common@?$output_processor@DV?$string_output_adapter@D@__crt_stdio_output@@V?$format_validation_base@DV?$string_output_adapter@D@__crt_stdio_output@@@2@@__crt_stdio_output@@AAE_NXZ 0042dbb3 f i libucrt:output.obj
 0001:0002cbdd       ?state_case_normal_common@?$output_processor@DV?$string_output_adapter@D@__crt_stdio_output@@V?$positional_parameter_base@DV?$string_output_adapter@D@__crt_stdio_output@@@2@@__crt_stdio_output@@AAE_NXZ 0042dbdd f i libucrt:output.obj
 0001:0002cc07       ?state_case_normal_common@?$output_processor@DV?$string_output_adapter@D@__crt_stdio_output@@V?$standard_base@DV?$string_output_adapter@D@__crt_stdio_output@@@2@@__crt_stdio_output@@AAE_NXZ 0042dc07 f i libucrt:output.obj
 0001:0002cc31       ?state_case_normal_common@?$output_processor@_WV?$stream_output_adapter@_W@__crt_stdio_output@@V?$format_validation_base@_WV?$stream_output_adapter@_W@__crt_stdio_output@@@2@@__crt_stdio_output@@AAE_NXZ 0042dc31 f i libucrt:output.obj
 0001:0002cc4c       ?state_case_normal_common@?$output_processor@_WV?$stream_output_adapter@_W@__crt_stdio_output@@V?$positional_parameter_base@_WV?$stream_output_adapter@_W@__crt_stdio_output@@@2@@__crt_stdio_output@@AAE_NXZ 0042dc4c f i libucrt:output.obj
 0001:0002cc67       ?state_case_normal_common@?$output_processor@_WV?$stream_output_adapter@_W@__crt_stdio_output@@V?$standard_base@_WV?$stream_output_adapter@_W@__crt_stdio_output@@@2@@__crt_stdio_output@@AAE_NXZ 0042dc67 f i libucrt:output.obj
 0001:0002cc82       ?state_case_normal_common@?$output_processor@_WV?$string_output_adapter@_W@__crt_stdio_output@@V?$format_validation_base@_WV?$string_output_adapter@_W@__crt_stdio_output@@@2@@__crt_stdio_output@@AAE_NXZ 0042dc82 f i libucrt:output.obj
 0001:0002cc9d       ?state_case_normal_common@?$output_processor@_WV?$string_output_adapter@_W@__crt_stdio_output@@V?$positional_parameter_base@_WV?$string_output_adapter@_W@__crt_stdio_output@@@2@@__crt_stdio_output@@AAE_NXZ 0042dc9d f i libucrt:output.obj
 0001:0002ccb8       ?state_case_normal_common@?$output_processor@_WV?$string_output_adapter@_W@__crt_stdio_output@@V?$standard_base@_WV?$string_output_adapter@_W@__crt_stdio_output@@@2@@__crt_stdio_output@@AAE_NXZ 0042dcb8 f i libucrt:output.obj
 0001:0002ccd3       ?state_case_normal_tchar@?$output_processor@DV?$stream_output_adapter@D@__crt_stdio_output@@V?$format_validation_base@DV?$stream_output_adapter@D@__crt_stdio_output@@@2@@__crt_stdio_output@@AAE_ND@Z 0042dcd3 f i libucrt:output.obj
 0001:0002cd34       ?state_case_normal_tchar@?$output_processor@DV?$stream_output_adapter@D@__crt_stdio_output@@V?$positional_parameter_base@DV?$stream_output_adapter@D@__crt_stdio_output@@@2@@__crt_stdio_output@@AAE_ND@Z 0042dd34 f i libucrt:output.obj
 0001:0002cd95       ?state_case_normal_tchar@?$output_processor@DV?$stream_output_adapter@D@__crt_stdio_output@@V?$standard_base@DV?$stream_output_adapter@D@__crt_stdio_output@@@2@@__crt_stdio_output@@AAE_ND@Z 0042dd95 f i libucrt:output.obj
 0001:0002cdf6       ?state_case_normal_tchar@?$output_processor@DV?$string_output_adapter@D@__crt_stdio_output@@V?$format_validation_base@DV?$string_output_adapter@D@__crt_stdio_output@@@2@@__crt_stdio_output@@AAE_ND@Z 0042ddf6 f i libucrt:output.obj
 0001:0002ce57       ?state_case_normal_tchar@?$output_processor@DV?$string_output_adapter@D@__crt_stdio_output@@V?$positional_parameter_base@DV?$string_output_adapter@D@__crt_stdio_output@@@2@@__crt_stdio_output@@AAE_ND@Z 0042de57 f i libucrt:output.obj
 0001:0002ceb8       ?state_case_normal_tchar@?$output_processor@DV?$string_output_adapter@D@__crt_stdio_output@@V?$standard_base@DV?$string_output_adapter@D@__crt_stdio_output@@@2@@__crt_stdio_output@@AAE_ND@Z 0042deb8 f i libucrt:output.obj
 0001:0002cf19       ?state_case_normal_tchar@?$output_processor@_WV?$stream_output_adapter@_W@__crt_stdio_output@@V?$format_validation_base@_WV?$stream_output_adapter@_W@__crt_stdio_output@@@2@@__crt_stdio_output@@AAE_N_W@Z 0042df19 f i libucrt:output.obj
 0001:0002cf22       ?state_case_normal_tchar@?$output_processor@_WV?$stream_output_adapter@_W@__crt_stdio_output@@V?$positional_parameter_base@_WV?$stream_output_adapter@_W@__crt_stdio_output@@@2@@__crt_stdio_output@@AAE_N_W@Z 0042df22 f i libucrt:output.obj
 0001:0002cf2b       ?state_case_normal_tchar@?$output_processor@_WV?$stream_output_adapter@_W@__crt_stdio_output@@V?$standard_base@_WV?$stream_output_adapter@_W@__crt_stdio_output@@@2@@__crt_stdio_output@@AAE_N_W@Z 0042df2b f i libucrt:output.obj
 0001:0002cf34       ?state_case_normal_tchar@?$output_processor@_WV?$string_output_adapter@_W@__crt_stdio_output@@V?$format_validation_base@_WV?$string_output_adapter@_W@__crt_stdio_output@@@2@@__crt_stdio_output@@AAE_N_W@Z 0042df34 f i libucrt:output.obj
 0001:0002cf3d       ?state_case_normal_tchar@?$output_processor@_WV?$string_output_adapter@_W@__crt_stdio_output@@V?$positional_parameter_base@_WV?$string_output_adapter@_W@__crt_stdio_output@@@2@@__crt_stdio_output@@AAE_N_W@Z 0042df3d f i libucrt:output.obj
 0001:0002cf46       ?state_case_normal_tchar@?$output_processor@_WV?$string_output_adapter@_W@__crt_stdio_output@@V?$standard_base@_WV?$string_output_adapter@_W@__crt_stdio_output@@@2@@__crt_stdio_output@@AAE_N_W@Z 0042df46 f i libucrt:output.obj
 0001:0002cf4f       ?state_case_percent@?$output_processor@DV?$stream_output_adapter@D@__crt_stdio_output@@V?$format_validation_base@DV?$stream_output_adapter@D@__crt_stdio_output@@@2@@__crt_stdio_output@@AAE_NXZ 0042df4f f i libucrt:output.obj
 0001:0002cf67       ?state_case_percent@?$output_processor@DV?$stream_output_adapter@D@__crt_stdio_output@@V?$positional_parameter_base@DV?$stream_output_adapter@D@__crt_stdio_output@@@2@@__crt_stdio_output@@AAE_NXZ 0042df67 f i libucrt:output.obj
 0001:0002cf7f       ?state_case_percent@?$output_processor@DV?$stream_output_adapter@D@__crt_stdio_output@@V?$standard_base@DV?$stream_output_adapter@D@__crt_stdio_output@@@2@@__crt_stdio_output@@AAE_NXZ 0042df7f f i libucrt:output.obj
 0001:0002cf97       ?state_case_percent@?$output_processor@DV?$string_output_adapter@D@__crt_stdio_output@@V?$format_validation_base@DV?$string_output_adapter@D@__crt_stdio_output@@@2@@__crt_stdio_output@@AAE_NXZ 0042df97 f i libucrt:output.obj
 0001:0002cfaf       ?state_case_percent@?$output_processor@DV?$string_output_adapter@D@__crt_stdio_output@@V?$positional_parameter_base@DV?$string_output_adapter@D@__crt_stdio_output@@@2@@__crt_stdio_output@@AAE_NXZ 0042dfaf f i libucrt:output.obj
 0001:0002cfc7       ?state_case_percent@?$output_processor@DV?$string_output_adapter@D@__crt_stdio_output@@V?$standard_base@DV?$string_output_adapter@D@__crt_stdio_output@@@2@@__crt_stdio_output@@AAE_NXZ 0042dfc7 f i libucrt:output.obj
 0001:0002cfdf       ?state_case_percent@?$output_processor@_WV?$stream_output_adapter@_W@__crt_stdio_output@@V?$format_validation_base@_WV?$stream_output_adapter@_W@__crt_stdio_output@@@2@@__crt_stdio_output@@AAE_NXZ 0042dfdf f i libucrt:output.obj
 0001:0002cff7       ?state_case_percent@?$output_processor@_WV?$stream_output_adapter@_W@__crt_stdio_output@@V?$positional_parameter_base@_WV?$stream_output_adapter@_W@__crt_stdio_output@@@2@@__crt_stdio_output@@AAE_NXZ 0042dff7 f i libucrt:output.obj
 0001:0002d00f       ?state_case_percent@?$output_processor@_WV?$stream_output_adapter@_W@__crt_stdio_output@@V?$standard_base@_WV?$stream_output_adapter@_W@__crt_stdio_output@@@2@@__crt_stdio_output@@AAE_NXZ 0042e00f f i libucrt:output.obj
 0001:0002d027       ?state_case_percent@?$output_processor@_WV?$string_output_adapter@_W@__crt_stdio_output@@V?$format_validation_base@_WV?$string_output_adapter@_W@__crt_stdio_output@@@2@@__crt_stdio_output@@AAE_NXZ 0042e027 f i libucrt:output.obj
 0001:0002d03f       ?state_case_percent@?$output_processor@_WV?$string_output_adapter@_W@__crt_stdio_output@@V?$positional_parameter_base@_WV?$string_output_adapter@_W@__crt_stdio_output@@@2@@__crt_stdio_output@@AAE_NXZ 0042e03f f i libucrt:output.obj
 0001:0002d057       ?state_case_percent@?$output_processor@_WV?$string_output_adapter@_W@__crt_stdio_output@@V?$standard_base@_WV?$string_output_adapter@_W@__crt_stdio_output@@@2@@__crt_stdio_output@@AAE_NXZ 0042e057 f i libucrt:output.obj
 0001:0002d06f       ?state_case_precision@?$output_processor@DV?$stream_output_adapter@D@__crt_stdio_output@@V?$format_validation_base@DV?$stream_output_adapter@D@__crt_stdio_output@@@2@@__crt_stdio_output@@AAE_NXZ 0042e06f f i libucrt:output.obj
 0001:0002d097       ?state_case_precision@?$output_processor@DV?$stream_output_adapter@D@__crt_stdio_output@@V?$positional_parameter_base@DV?$stream_output_adapter@D@__crt_stdio_output@@@2@@__crt_stdio_output@@AAE_NXZ 0042e097 f i libucrt:output.obj
 0001:0002d0d1       ?state_case_precision@?$output_processor@DV?$stream_output_adapter@D@__crt_stdio_output@@V?$standard_base@DV?$stream_output_adapter@D@__crt_stdio_output@@@2@@__crt_stdio_output@@AAE_NXZ 0042e0d1 f i libucrt:output.obj
 0001:0002d0f9       ?state_case_precision@?$output_processor@DV?$string_output_adapter@D@__crt_stdio_output@@V?$format_validation_base@DV?$string_output_adapter@D@__crt_stdio_output@@@2@@__crt_stdio_output@@AAE_NXZ 0042e0f9 f i libucrt:output.obj
 0001:0002d121       ?state_case_precision@?$output_processor@DV?$string_output_adapter@D@__crt_stdio_output@@V?$positional_parameter_base@DV?$string_output_adapter@D@__crt_stdio_output@@@2@@__crt_stdio_output@@AAE_NXZ 0042e121 f i libucrt:output.obj
 0001:0002d15b       ?state_case_precision@?$output_processor@DV?$string_output_adapter@D@__crt_stdio_output@@V?$standard_base@DV?$string_output_adapter@D@__crt_stdio_output@@@2@@__crt_stdio_output@@AAE_NXZ 0042e15b f i libucrt:output.obj
 0001:0002d183       ?state_case_precision@?$output_processor@_WV?$stream_output_adapter@_W@__crt_stdio_output@@V?$format_validation_base@_WV?$stream_output_adapter@_W@__crt_stdio_output@@@2@@__crt_stdio_output@@AAE_NXZ 0042e183 f i libucrt:output.obj
 0001:0002d1ac       ?state_case_precision@?$output_processor@_WV?$stream_output_adapter@_W@__crt_stdio_output@@V?$positional_parameter_base@_WV?$stream_output_adapter@_W@__crt_stdio_output@@@2@@__crt_stdio_output@@AAE_NXZ 0042e1ac f i libucrt:output.obj
 0001:0002d1e7       ?state_case_precision@?$output_processor@_WV?$stream_output_adapter@_W@__crt_stdio_output@@V?$standard_base@_WV?$stream_output_adapter@_W@__crt_stdio_output@@@2@@__crt_stdio_output@@AAE_NXZ 0042e1e7 f i libucrt:output.obj
 0001:0002d210       ?state_case_precision@?$output_processor@_WV?$string_output_adapter@_W@__crt_stdio_output@@V?$format_validation_base@_WV?$string_output_adapter@_W@__crt_stdio_output@@@2@@__crt_stdio_output@@AAE_NXZ 0042e210 f i libucrt:output.obj
 0001:0002d239       ?state_case_precision@?$output_processor@_WV?$string_output_adapter@_W@__crt_stdio_output@@V?$positional_parameter_base@_WV?$string_output_adapter@_W@__crt_stdio_output@@@2@@__crt_stdio_output@@AAE_NXZ 0042e239 f i libucrt:output.obj
 0001:0002d274       ?state_case_precision@?$output_processor@_WV?$string_output_adapter@_W@__crt_stdio_output@@V?$standard_base@_WV?$string_output_adapter@_W@__crt_stdio_output@@@2@@__crt_stdio_output@@AAE_NXZ 0042e274 f i libucrt:output.obj
 0001:0002d29d       ?state_case_size@?$output_processor@DV?$stream_output_adapter@D@__crt_stdio_output@@V?$format_validation_base@DV?$stream_output_adapter@D@__crt_stdio_output@@@2@@__crt_stdio_output@@AAE_NXZ 0042e29d f i libucrt:output.obj
 0001:0002d406       ?state_case_size@?$output_processor@DV?$stream_output_adapter@D@__crt_stdio_output@@V?$positional_parameter_base@DV?$stream_output_adapter@D@__crt_stdio_output@@@2@@__crt_stdio_output@@AAE_NXZ 0042e406 f i libucrt:output.obj
 0001:0002d56f       ?state_case_size@?$output_processor@DV?$stream_output_adapter@D@__crt_stdio_output@@V?$standard_base@DV?$stream_output_adapter@D@__crt_stdio_output@@@2@@__crt_stdio_output@@AAE_NXZ 0042e56f f i libucrt:output.obj
 0001:0002d6d8       ?state_case_size@?$output_processor@DV?$string_output_adapter@D@__crt_stdio_output@@V?$format_validation_base@DV?$string_output_adapter@D@__crt_stdio_output@@@2@@__crt_stdio_output@@AAE_NXZ 0042e6d8 f i libucrt:output.obj
 0001:0002d841       ?state_case_size@?$output_processor@DV?$string_output_adapter@D@__crt_stdio_output@@V?$positional_parameter_base@DV?$string_output_adapter@D@__crt_stdio_output@@@2@@__crt_stdio_output@@AAE_NXZ 0042e841 f i libucrt:output.obj
 0001:0002d9aa       ?state_case_size@?$output_processor@DV?$string_output_adapter@D@__crt_stdio_output@@V?$standard_base@DV?$string_output_adapter@D@__crt_stdio_output@@@2@@__crt_stdio_output@@AAE_NXZ 0042e9aa f i libucrt:output.obj
 0001:0002db13       ?state_case_size@?$output_processor@_WV?$stream_output_adapter@_W@__crt_stdio_output@@V?$format_validation_base@_WV?$stream_output_adapter@_W@__crt_stdio_output@@@2@@__crt_stdio_output@@AAE_NXZ 0042eb13 f i libucrt:output.obj
 0001:0002dc8f       ?state_case_size@?$output_processor@_WV?$stream_output_adapter@_W@__crt_stdio_output@@V?$positional_parameter_base@_WV?$stream_output_adapter@_W@__crt_stdio_output@@@2@@__crt_stdio_output@@AAE_NXZ 0042ec8f f i libucrt:output.obj
 0001:0002de0b       ?state_case_size@?$output_processor@_WV?$stream_output_adapter@_W@__crt_stdio_output@@V?$standard_base@_WV?$stream_output_adapter@_W@__crt_stdio_output@@@2@@__crt_stdio_output@@AAE_NXZ 0042ee0b f i libucrt:output.obj
 0001:0002df87       ?state_case_size@?$output_processor@_WV?$string_output_adapter@_W@__crt_stdio_output@@V?$format_validation_base@_WV?$string_output_adapter@_W@__crt_stdio_output@@@2@@__crt_stdio_output@@AAE_NXZ 0042ef87 f i libucrt:output.obj
 0001:0002e103       ?state_case_size@?$output_processor@_WV?$string_output_adapter@_W@__crt_stdio_output@@V?$positional_parameter_base@_WV?$string_output_adapter@_W@__crt_stdio_output@@@2@@__crt_stdio_output@@AAE_NXZ 0042f103 f i libucrt:output.obj
 0001:0002e27f       ?state_case_size@?$output_processor@_WV?$string_output_adapter@_W@__crt_stdio_output@@V?$standard_base@_WV?$string_output_adapter@_W@__crt_stdio_output@@@2@@__crt_stdio_output@@AAE_NXZ 0042f27f f i libucrt:output.obj
 0001:0002e3fb       ?state_case_type@?$output_processor@DV?$stream_output_adapter@D@__crt_stdio_output@@V?$format_validation_base@DV?$stream_output_adapter@D@__crt_stdio_output@@@2@@__crt_stdio_output@@AAE_NXZ 0042f3fb f i libucrt:output.obj
 0001:0002e62a       ?state_case_type@?$output_processor@DV?$stream_output_adapter@D@__crt_stdio_output@@V?$positional_parameter_base@DV?$stream_output_adapter@D@__crt_stdio_output@@@2@@__crt_stdio_output@@AAE_NXZ 0042f62a f i libucrt:output.obj
 0001:0002e864       ?state_case_type@?$output_processor@DV?$stream_output_adapter@D@__crt_stdio_output@@V?$standard_base@DV?$stream_output_adapter@D@__crt_stdio_output@@@2@@__crt_stdio_output@@AAE_NXZ 0042f864 f i libucrt:output.obj
 0001:0002ea93       ?state_case_type@?$output_processor@DV?$string_output_adapter@D@__crt_stdio_output@@V?$format_validation_base@DV?$string_output_adapter@D@__crt_stdio_output@@@2@@__crt_stdio_output@@AAE_NXZ 0042fa93 f i libucrt:output.obj
 0001:0002ecc2       ?state_case_type@?$output_processor@DV?$string_output_adapter@D@__crt_stdio_output@@V?$positional_parameter_base@DV?$string_output_adapter@D@__crt_stdio_output@@@2@@__crt_stdio_output@@AAE_NXZ 0042fcc2 f i libucrt:output.obj
 0001:0002eefc       ?state_case_type@?$output_processor@DV?$string_output_adapter@D@__crt_stdio_output@@V?$standard_base@DV?$string_output_adapter@D@__crt_stdio_output@@@2@@__crt_stdio_output@@AAE_NXZ 0042fefc f i libucrt:output.obj
 0001:0002f12b       ?state_case_type@?$output_processor@_WV?$stream_output_adapter@_W@__crt_stdio_output@@V?$format_validation_base@_WV?$stream_output_adapter@_W@__crt_stdio_output@@@2@@__crt_stdio_output@@AAE_NXZ 0043012b f i libucrt:output.obj
 0001:0002f388       ?state_case_type@?$output_processor@_WV?$stream_output_adapter@_W@__crt_stdio_output@@V?$positional_parameter_base@_WV?$stream_output_adapter@_W@__crt_stdio_output@@@2@@__crt_stdio_output@@AAE_NXZ 00430388 f i libucrt:output.obj
 0001:0002f5f4       ?state_case_type@?$output_processor@_WV?$stream_output_adapter@_W@__crt_stdio_output@@V?$standard_base@_WV?$stream_output_adapter@_W@__crt_stdio_output@@@2@@__crt_stdio_output@@AAE_NXZ 004305f4 f i libucrt:output.obj
 0001:0002f851       ?state_case_type@?$output_processor@_WV?$string_output_adapter@_W@__crt_stdio_output@@V?$format_validation_base@_WV?$string_output_adapter@_W@__crt_stdio_output@@@2@@__crt_stdio_output@@AAE_NXZ 00430851 f i libucrt:output.obj
 0001:0002faae       ?state_case_type@?$output_processor@_WV?$string_output_adapter@_W@__crt_stdio_output@@V?$positional_parameter_base@_WV?$string_output_adapter@_W@__crt_stdio_output@@@2@@__crt_stdio_output@@AAE_NXZ 00430aae f i libucrt:output.obj
 0001:0002fd1a       ?state_case_type@?$output_processor@_WV?$string_output_adapter@_W@__crt_stdio_output@@V?$standard_base@_WV?$string_output_adapter@_W@__crt_stdio_output@@@2@@__crt_stdio_output@@AAE_NXZ 00430d1a f i libucrt:output.obj
 0001:0002ff77       ?state_case_width@?$output_processor@DV?$stream_output_adapter@D@__crt_stdio_output@@V?$format_validation_base@DV?$stream_output_adapter@D@__crt_stdio_output@@@2@@__crt_stdio_output@@AAE_NXZ 00430f77 f i libucrt:output.obj
 0001:0002ffa2       ?state_case_width@?$output_processor@DV?$stream_output_adapter@D@__crt_stdio_output@@V?$positional_parameter_base@DV?$stream_output_adapter@D@__crt_stdio_output@@@2@@__crt_stdio_output@@AAE_NXZ 00430fa2 f i libucrt:output.obj
 0001:0002ffe2       ?state_case_width@?$output_processor@DV?$stream_output_adapter@D@__crt_stdio_output@@V?$standard_base@DV?$stream_output_adapter@D@__crt_stdio_output@@@2@@__crt_stdio_output@@AAE_NXZ 00430fe2 f i libucrt:output.obj
 0001:0003000d       ?state_case_width@?$output_processor@DV?$string_output_adapter@D@__crt_stdio_output@@V?$format_validation_base@DV?$string_output_adapter@D@__crt_stdio_output@@@2@@__crt_stdio_output@@AAE_NXZ 0043100d f i libucrt:output.obj
 0001:00030038       ?state_case_width@?$output_processor@DV?$string_output_adapter@D@__crt_stdio_output@@V?$positional_parameter_base@DV?$string_output_adapter@D@__crt_stdio_output@@@2@@__crt_stdio_output@@AAE_NXZ 00431038 f i libucrt:output.obj
 0001:00030078       ?state_case_width@?$output_processor@DV?$string_output_adapter@D@__crt_stdio_output@@V?$standard_base@DV?$string_output_adapter@D@__crt_stdio_output@@@2@@__crt_stdio_output@@AAE_NXZ 00431078 f i libucrt:output.obj
 0001:000300a3       ?state_case_width@?$output_processor@_WV?$stream_output_adapter@_W@__crt_stdio_output@@V?$format_validation_base@_WV?$stream_output_adapter@_W@__crt_stdio_output@@@2@@__crt_stdio_output@@AAE_NXZ 004310a3 f i libucrt:output.obj
 0001:000300cf       ?state_case_width@?$output_processor@_WV?$stream_output_adapter@_W@__crt_stdio_output@@V?$positional_parameter_base@_WV?$stream_output_adapter@_W@__crt_stdio_output@@@2@@__crt_stdio_output@@AAE_NXZ 004310cf f i libucrt:output.obj
 0001:00030110       ?state_case_width@?$output_processor@_WV?$stream_output_adapter@_W@__crt_stdio_output@@V?$standard_base@_WV?$stream_output_adapter@_W@__crt_stdio_output@@@2@@__crt_stdio_output@@AAE_NXZ 00431110 f i libucrt:output.obj
 0001:0003013c       ?state_case_width@?$output_processor@_WV?$string_output_adapter@_W@__crt_stdio_output@@V?$format_validation_base@_WV?$string_output_adapter@_W@__crt_stdio_output@@@2@@__crt_stdio_output@@AAE_NXZ 0043113c f i libucrt:output.obj
 0001:00030168       ?state_case_width@?$output_processor@_WV?$string_output_adapter@_W@__crt_stdio_output@@V?$positional_parameter_base@_WV?$string_output_adapter@_W@__crt_stdio_output@@@2@@__crt_stdio_output@@AAE_NXZ 00431168 f i libucrt:output.obj
 0001:000301a9       ?state_case_width@?$output_processor@_WV?$string_output_adapter@_W@__crt_stdio_output@@V?$standard_base@_WV?$string_output_adapter@_W@__crt_stdio_output@@@2@@__crt_stdio_output@@AAE_NXZ 004311a9 f i libucrt:output.obj
 0001:000301d5       ?state_count@?$format_validation_base@DV?$stream_output_adapter@D@__crt_stdio_output@@@__crt_stdio_output@@KAIXZ 004311d5 f i libucrt:output.obj
 0001:000301d9       ?state_count@?$format_validation_base@DV?$string_output_adapter@D@__crt_stdio_output@@@__crt_stdio_output@@KAIXZ 004311d9 f i libucrt:output.obj
 0001:000301dd       ?state_count@?$format_validation_base@_WV?$stream_output_adapter@_W@__crt_stdio_output@@@__crt_stdio_output@@KAIXZ 004311dd f i libucrt:output.obj
 0001:000301e1       ?state_count@?$format_validation_base@_WV?$string_output_adapter@_W@__crt_stdio_output@@@__crt_stdio_output@@KAIXZ 004311e1 f i libucrt:output.obj
 0001:000301e5       ?state_count@?$standard_base@DV?$stream_output_adapter@D@__crt_stdio_output@@@__crt_stdio_output@@KAIXZ 004311e5 f i libucrt:output.obj
 0001:000301e9       ?state_count@?$standard_base@DV?$string_output_adapter@D@__crt_stdio_output@@@__crt_stdio_output@@KAIXZ 004311e9 f i libucrt:output.obj
 0001:000301ed       ?state_count@?$standard_base@_WV?$stream_output_adapter@_W@__crt_stdio_output@@@__crt_stdio_output@@KAIXZ 004311ed f i libucrt:output.obj
 0001:000301f1       ?state_count@?$standard_base@_WV?$string_output_adapter@_W@__crt_stdio_output@@@__crt_stdio_output@@KAIXZ 004311f1 f i libucrt:output.obj
 0001:000301f5       ?state_transition_table@?$format_validation_base@DV?$stream_output_adapter@D@__crt_stdio_output@@@__crt_stdio_output@@KAPBEXZ 004311f5 f i libucrt:output.obj
 0001:000301fb       ?state_transition_table@?$format_validation_base@DV?$string_output_adapter@D@__crt_stdio_output@@@__crt_stdio_output@@KAPBEXZ 004311fb f i libucrt:output.obj
 0001:00030201       ?state_transition_table@?$format_validation_base@_WV?$stream_output_adapter@_W@__crt_stdio_output@@@__crt_stdio_output@@KAPBEXZ 00431201 f i libucrt:output.obj
 0001:00030207       ?state_transition_table@?$format_validation_base@_WV?$string_output_adapter@_W@__crt_stdio_output@@@__crt_stdio_output@@KAPBEXZ 00431207 f i libucrt:output.obj
 0001:0003020d       ?state_transition_table@?$standard_base@DV?$stream_output_adapter@D@__crt_stdio_output@@@__crt_stdio_output@@KAPBEXZ 0043120d f i libucrt:output.obj
 0001:00030213       ?state_transition_table@?$standard_base@DV?$string_output_adapter@D@__crt_stdio_output@@@__crt_stdio_output@@KAPBEXZ 00431213 f i libucrt:output.obj
 0001:00030219       ?state_transition_table@?$standard_base@_WV?$stream_output_adapter@_W@__crt_stdio_output@@@__crt_stdio_output@@KAPBEXZ 00431219 f i libucrt:output.obj
 0001:0003021f       ?state_transition_table@?$standard_base@_WV?$string_output_adapter@_W@__crt_stdio_output@@@__crt_stdio_output@@KAPBEXZ 0043121f f i libucrt:output.obj
 0001:00030225       ?to_integer_size@__crt_stdio_output@@YAIW4length_modifier@1@@Z 00431225 f i libucrt:output.obj
 0001:00030281       ?type_case_X@?$output_processor@DV?$stream_output_adapter@D@__crt_stdio_output@@V?$format_validation_base@DV?$stream_output_adapter@D@__crt_stdio_output@@@2@@__crt_stdio_output@@AAE_NXZ 00431281 f i libucrt:output.obj
 0001:0003028b       ?type_case_X@?$output_processor@DV?$stream_output_adapter@D@__crt_stdio_output@@V?$positional_parameter_base@DV?$stream_output_adapter@D@__crt_stdio_output@@@2@@__crt_stdio_output@@AAE_NXZ 0043128b f i libucrt:output.obj
 0001:00030295       ?type_case_X@?$output_processor@DV?$stream_output_adapter@D@__crt_stdio_output@@V?$standard_base@DV?$stream_output_adapter@D@__crt_stdio_output@@@2@@__crt_stdio_output@@AAE_NXZ 00431295 f i libucrt:output.obj
 0001:0003029f       ?type_case_X@?$output_processor@DV?$string_output_adapter@D@__crt_stdio_output@@V?$format_validation_base@DV?$string_output_adapter@D@__crt_stdio_output@@@2@@__crt_stdio_output@@AAE_NXZ 0043129f f i libucrt:output.obj
 0001:000302a9       ?type_case_X@?$output_processor@DV?$string_output_adapter@D@__crt_stdio_output@@V?$positional_parameter_base@DV?$string_output_adapter@D@__crt_stdio_output@@@2@@__crt_stdio_output@@AAE_NXZ 004312a9 f i libucrt:output.obj
 0001:000302b3       ?type_case_X@?$output_processor@DV?$string_output_adapter@D@__crt_stdio_output@@V?$standard_base@DV?$string_output_adapter@D@__crt_stdio_output@@@2@@__crt_stdio_output@@AAE_NXZ 004312b3 f i libucrt:output.obj
 0001:000302bd       ?type_case_X@?$output_processor@_WV?$stream_output_adapter@_W@__crt_stdio_output@@V?$format_validation_base@_WV?$stream_output_adapter@_W@__crt_stdio_output@@@2@@__crt_stdio_output@@AAE_NXZ 004312bd f i libucrt:output.obj
 0001:000302c7       ?type_case_X@?$output_processor@_WV?$stream_output_adapter@_W@__crt_stdio_output@@V?$positional_parameter_base@_WV?$stream_output_adapter@_W@__crt_stdio_output@@@2@@__crt_stdio_output@@AAE_NXZ 004312c7 f i libucrt:output.obj
 0001:000302d1       ?type_case_X@?$output_processor@_WV?$stream_output_adapter@_W@__crt_stdio_output@@V?$standard_base@_WV?$stream_output_adapter@_W@__crt_stdio_output@@@2@@__crt_stdio_output@@AAE_NXZ 004312d1 f i libucrt:output.obj
 0001:000302db       ?type_case_X@?$output_processor@_WV?$string_output_adapter@_W@__crt_stdio_output@@V?$format_validation_base@_WV?$string_output_adapter@_W@__crt_stdio_output@@@2@@__crt_stdio_output@@AAE_NXZ 004312db f i libucrt:output.obj
 0001:000302e5       ?type_case_X@?$output_processor@_WV?$string_output_adapter@_W@__crt_stdio_output@@V?$positional_parameter_base@_WV?$string_output_adapter@_W@__crt_stdio_output@@@2@@__crt_stdio_output@@AAE_NXZ 004312e5 f i libucrt:output.obj
 0001:000302ef       ?type_case_X@?$output_processor@_WV?$string_output_adapter@_W@__crt_stdio_output@@V?$standard_base@_WV?$string_output_adapter@_W@__crt_stdio_output@@@2@@__crt_stdio_output@@AAE_NXZ 004312ef f i libucrt:output.obj
 0001:000302f9       ?type_case_Z@?$output_processor@DV?$stream_output_adapter@D@__crt_stdio_output@@V?$format_validation_base@DV?$stream_output_adapter@D@__crt_stdio_output@@@2@@__crt_stdio_output@@AAE_NXZ 004312f9 f i libucrt:output.obj
 0001:0003035c       ?type_case_Z@?$output_processor@DV?$stream_output_adapter@D@__crt_stdio_output@@V?$positional_parameter_base@DV?$stream_output_adapter@D@__crt_stdio_output@@@2@@__crt_stdio_output@@AAE_NXZ 0043135c f i libucrt:output.obj
 0001:000303db       ?type_case_Z@?$output_processor@DV?$stream_output_adapter@D@__crt_stdio_output@@V?$standard_base@DV?$stream_output_adapter@D@__crt_stdio_output@@@2@@__crt_stdio_output@@AAE_NXZ 004313db f i libucrt:output.obj
 0001:0003043e       ?type_case_Z@?$output_processor@DV?$string_output_adapter@D@__crt_stdio_output@@V?$format_validation_base@DV?$string_output_adapter@D@__crt_stdio_output@@@2@@__crt_stdio_output@@AAE_NXZ 0043143e f i libucrt:output.obj
 0001:000304a1       ?type_case_Z@?$output_processor@DV?$string_output_adapter@D@__crt_stdio_output@@V?$positional_parameter_base@DV?$string_output_adapter@D@__crt_stdio_output@@@2@@__crt_stdio_output@@AAE_NXZ 004314a1 f i libucrt:output.obj
 0001:00030520       ?type_case_Z@?$output_processor@DV?$string_output_adapter@D@__crt_stdio_output@@V?$standard_base@DV?$string_output_adapter@D@__crt_stdio_output@@@2@@__crt_stdio_output@@AAE_NXZ 00431520 f i libucrt:output.obj
 0001:00030583       ?type_case_Z@?$output_processor@_WV?$stream_output_adapter@_W@__crt_stdio_output@@V?$format_validation_base@_WV?$stream_output_adapter@_W@__crt_stdio_output@@@2@@__crt_stdio_output@@AAE_NXZ 00431583 f i libucrt:output.obj
 0001:000305e6       ?type_case_Z@?$output_processor@_WV?$stream_output_adapter@_W@__crt_stdio_output@@V?$positional_parameter_base@_WV?$stream_output_adapter@_W@__crt_stdio_output@@@2@@__crt_stdio_output@@AAE_NXZ 004315e6 f i libucrt:output.obj
 0001:00030665       ?type_case_Z@?$output_processor@_WV?$stream_output_adapter@_W@__crt_stdio_output@@V?$standard_base@_WV?$stream_output_adapter@_W@__crt_stdio_output@@@2@@__crt_stdio_output@@AAE_NXZ 00431665 f i libucrt:output.obj
 0001:000306c8       ?type_case_Z@?$output_processor@_WV?$string_output_adapter@_W@__crt_stdio_output@@V?$format_validation_base@_WV?$string_output_adapter@_W@__crt_stdio_output@@@2@@__crt_stdio_output@@AAE_NXZ 004316c8 f i libucrt:output.obj
 0001:0003072b       ?type_case_Z@?$output_processor@_WV?$string_output_adapter@_W@__crt_stdio_output@@V?$positional_parameter_base@_WV?$string_output_adapter@_W@__crt_stdio_output@@@2@@__crt_stdio_output@@AAE_NXZ 0043172b f i libucrt:output.obj
 0001:000307aa       ?type_case_Z@?$output_processor@_WV?$string_output_adapter@_W@__crt_stdio_output@@V?$standard_base@_WV?$string_output_adapter@_W@__crt_stdio_output@@@2@@__crt_stdio_output@@AAE_NXZ 004317aa f i libucrt:output.obj
 0001:0003080d       ?type_case_a@?$output_processor@DV?$stream_output_adapter@D@__crt_stdio_output@@V?$format_validation_base@DV?$stream_output_adapter@D@__crt_stdio_output@@@2@@__crt_stdio_output@@AAE_NXZ 0043180d f i libucrt:output.obj
 0001:00030967       ?type_case_a@?$output_processor@DV?$stream_output_adapter@D@__crt_stdio_output@@V?$positional_parameter_base@DV?$stream_output_adapter@D@__crt_stdio_output@@@2@@__crt_stdio_output@@AAE_NXZ 00431967 f i libucrt:output.obj
 0001:00030ae0       ?type_case_a@?$output_processor@DV?$stream_output_adapter@D@__crt_stdio_output@@V?$standard_base@DV?$stream_output_adapter@D@__crt_stdio_output@@@2@@__crt_stdio_output@@AAE_NXZ 00431ae0 f i libucrt:output.obj
 0001:00030c3a       ?type_case_a@?$output_processor@DV?$string_output_adapter@D@__crt_stdio_output@@V?$format_validation_base@DV?$string_output_adapter@D@__crt_stdio_output@@@2@@__crt_stdio_output@@AAE_NXZ 00431c3a f i libucrt:output.obj
 0001:00030d94       ?type_case_a@?$output_processor@DV?$string_output_adapter@D@__crt_stdio_output@@V?$positional_parameter_base@DV?$string_output_adapter@D@__crt_stdio_output@@@2@@__crt_stdio_output@@AAE_NXZ 00431d94 f i libucrt:output.obj
 0001:00030f0d       ?type_case_a@?$output_processor@DV?$string_output_adapter@D@__crt_stdio_output@@V?$standard_base@DV?$string_output_adapter@D@__crt_stdio_output@@@2@@__crt_stdio_output@@AAE_NXZ 00431f0d f i libucrt:output.obj
 0001:00031067       ?type_case_a@?$output_processor@_WV?$stream_output_adapter@_W@__crt_stdio_output@@V?$format_validation_base@_WV?$stream_output_adapter@_W@__crt_stdio_output@@@2@@__crt_stdio_output@@AAE_NXZ 00432067 f i libucrt:output.obj
 0001:000311d9       ?type_case_a@?$output_processor@_WV?$stream_output_adapter@_W@__crt_stdio_output@@V?$positional_parameter_base@_WV?$stream_output_adapter@_W@__crt_stdio_output@@@2@@__crt_stdio_output@@AAE_NXZ 004321d9 f i libucrt:output.obj
 0001:0003136a       ?type_case_a@?$output_processor@_WV?$stream_output_adapter@_W@__crt_stdio_output@@V?$standard_base@_WV?$stream_output_adapter@_W@__crt_stdio_output@@@2@@__crt_stdio_output@@AAE_NXZ 0043236a f i libucrt:output.obj
 0001:000314dc       ?type_case_a@?$output_processor@_WV?$string_output_adapter@_W@__crt_stdio_output@@V?$format_validation_base@_WV?$string_output_adapter@_W@__crt_stdio_output@@@2@@__crt_stdio_output@@AAE_NXZ 004324dc f i libucrt:output.obj
 0001:0003164e       ?type_case_a@?$output_processor@_WV?$string_output_adapter@_W@__crt_stdio_output@@V?$positional_parameter_base@_WV?$string_output_adapter@_W@__crt_stdio_output@@@2@@__crt_stdio_output@@AAE_NXZ 0043264e f i libucrt:output.obj
 0001:000317df       ?type_case_a@?$output_processor@_WV?$string_output_adapter@_W@__crt_stdio_output@@V?$standard_base@_WV?$string_output_adapter@_W@__crt_stdio_output@@@2@@__crt_stdio_output@@AAE_NXZ 004327df f i libucrt:output.obj
 0001:00031951       ?type_case_c@?$output_processor@DV?$stream_output_adapter@D@__crt_stdio_output@@V?$format_validation_base@DV?$stream_output_adapter@D@__crt_stdio_output@@@2@@__crt_stdio_output@@AAE_NXZ 00432951 f i libucrt:output.obj
 0001:00031959       ?type_case_c@?$output_processor@DV?$stream_output_adapter@D@__crt_stdio_output@@V?$positional_parameter_base@DV?$stream_output_adapter@D@__crt_stdio_output@@@2@@__crt_stdio_output@@AAE_NXZ 00432959 f i libucrt:output.obj
 0001:00031961       ?type_case_c@?$output_processor@DV?$stream_output_adapter@D@__crt_stdio_output@@V?$standard_base@DV?$stream_output_adapter@D@__crt_stdio_output@@@2@@__crt_stdio_output@@AAE_NXZ 00432961 f i libucrt:output.obj
 0001:00031969       ?type_case_c@?$output_processor@DV?$string_output_adapter@D@__crt_stdio_output@@V?$format_validation_base@DV?$string_output_adapter@D@__crt_stdio_output@@@2@@__crt_stdio_output@@AAE_NXZ 00432969 f i libucrt:output.obj
 0001:00031971       ?type_case_c@?$output_processor@DV?$string_output_adapter@D@__crt_stdio_output@@V?$positional_parameter_base@DV?$string_output_adapter@D@__crt_stdio_output@@@2@@__crt_stdio_output@@AAE_NXZ 00432971 f i libucrt:output.obj
 0001:00031979       ?type_case_c@?$output_processor@DV?$string_output_adapter@D@__crt_stdio_output@@V?$standard_base@DV?$string_output_adapter@D@__crt_stdio_output@@@2@@__crt_stdio_output@@AAE_NXZ 00432979 f i libucrt:output.obj
 0001:00031981       ?type_case_c@?$output_processor@_WV?$stream_output_adapter@_W@__crt_stdio_output@@V?$format_validation_base@_WV?$stream_output_adapter@_W@__crt_stdio_output@@@2@@__crt_stdio_output@@AAE_NXZ 00432981 f i libucrt:output.obj
 0001:00031989       ?type_case_c@?$output_processor@_WV?$stream_output_adapter@_W@__crt_stdio_output@@V?$positional_parameter_base@_WV?$stream_output_adapter@_W@__crt_stdio_output@@@2@@__crt_stdio_output@@AAE_NXZ 00432989 f i libucrt:output.obj
 0001:00031991       ?type_case_c@?$output_processor@_WV?$stream_output_adapter@_W@__crt_stdio_output@@V?$standard_base@_WV?$stream_output_adapter@_W@__crt_stdio_output@@@2@@__crt_stdio_output@@AAE_NXZ 00432991 f i libucrt:output.obj
 0001:00031999       ?type_case_c@?$output_processor@_WV?$string_output_adapter@_W@__crt_stdio_output@@V?$format_validation_base@_WV?$string_output_adapter@_W@__crt_stdio_output@@@2@@__crt_stdio_output@@AAE_NXZ 00432999 f i libucrt:output.obj
 0001:000319a1       ?type_case_c@?$output_processor@_WV?$string_output_adapter@_W@__crt_stdio_output@@V?$positional_parameter_base@_WV?$string_output_adapter@_W@__crt_stdio_output@@@2@@__crt_stdio_output@@AAE_NXZ 004329a1 f i libucrt:output.obj
 0001:000319a9       ?type_case_c@?$output_processor@_WV?$string_output_adapter@_W@__crt_stdio_output@@V?$standard_base@_WV?$string_output_adapter@_W@__crt_stdio_output@@@2@@__crt_stdio_output@@AAE_NXZ 004329a9 f i libucrt:output.obj
 0001:000319b1       ?type_case_c_tchar@?$output_processor@DV?$stream_output_adapter@D@__crt_stdio_output@@V?$format_validation_base@DV?$stream_output_adapter@D@__crt_stdio_output@@@2@@__crt_stdio_output@@AAE_ND@Z 004329b1 f i libucrt:output.obj
 0001:00031a41       ?type_case_c_tchar@?$output_processor@DV?$stream_output_adapter@D@__crt_stdio_output@@V?$positional_parameter_base@DV?$stream_output_adapter@D@__crt_stdio_output@@@2@@__crt_stdio_output@@AAE_ND@Z 00432a41 f i libucrt:output.obj
 0001:00031b01       ?type_case_c_tchar@?$output_processor@DV?$stream_output_adapter@D@__crt_stdio_output@@V?$standard_base@DV?$stream_output_adapter@D@__crt_stdio_output@@@2@@__crt_stdio_output@@AAE_ND@Z 00432b01 f i libucrt:output.obj
 0001:00031b91       ?type_case_c_tchar@?$output_processor@DV?$string_output_adapter@D@__crt_stdio_output@@V?$format_validation_base@DV?$string_output_adapter@D@__crt_stdio_output@@@2@@__crt_stdio_output@@AAE_ND@Z 00432b91 f i libucrt:output.obj
 0001:00031c21       ?type_case_c_tchar@?$output_processor@DV?$string_output_adapter@D@__crt_stdio_output@@V?$positional_parameter_base@DV?$string_output_adapter@D@__crt_stdio_output@@@2@@__crt_stdio_output@@AAE_ND@Z 00432c21 f i libucrt:output.obj
 0001:00031ce1       ?type_case_c_tchar@?$output_processor@DV?$string_output_adapter@D@__crt_stdio_output@@V?$standard_base@DV?$string_output_adapter@D@__crt_stdio_output@@@2@@__crt_stdio_output@@AAE_ND@Z 00432ce1 f i libucrt:output.obj
 0001:00031d71       ?type_case_c_tchar@?$output_processor@_WV?$stream_output_adapter@_W@__crt_stdio_output@@V?$format_validation_base@_WV?$stream_output_adapter@_W@__crt_stdio_output@@@2@@__crt_stdio_output@@AAE_N_W@Z 00432d71 f i libucrt:output.obj
 0001:00031e09       ?type_case_c_tchar@?$output_processor@_WV?$stream_output_adapter@_W@__crt_stdio_output@@V?$positional_parameter_base@_WV?$stream_output_adapter@_W@__crt_stdio_output@@@2@@__crt_stdio_output@@AAE_N_W@Z 00432e09 f i libucrt:output.obj
 0001:00031eb8       ?type_case_c_tchar@?$output_processor@_WV?$stream_output_adapter@_W@__crt_stdio_output@@V?$standard_base@_WV?$stream_output_adapter@_W@__crt_stdio_output@@@2@@__crt_stdio_output@@AAE_N_W@Z 00432eb8 f i libucrt:output.obj
 0001:00031f50       ?type_case_c_tchar@?$output_processor@_WV?$string_output_adapter@_W@__crt_stdio_output@@V?$format_validation_base@_WV?$string_output_adapter@_W@__crt_stdio_output@@@2@@__crt_stdio_output@@AAE_N_W@Z 00432f50 f i libucrt:output.obj
 0001:00031fe8       ?type_case_c_tchar@?$output_processor@_WV?$string_output_adapter@_W@__crt_stdio_output@@V?$positional_parameter_base@_WV?$string_output_adapter@_W@__crt_stdio_output@@@2@@__crt_stdio_output@@AAE_N_W@Z 00432fe8 f i libucrt:output.obj
 0001:00032097       ?type_case_c_tchar@?$output_processor@_WV?$string_output_adapter@_W@__crt_stdio_output@@V?$standard_base@_WV?$string_output_adapter@_W@__crt_stdio_output@@@2@@__crt_stdio_output@@AAE_N_W@Z 00433097 f i libucrt:output.obj
 0001:0003212f       ?type_case_d@?$output_processor@DV?$stream_output_adapter@D@__crt_stdio_output@@V?$format_validation_base@DV?$stream_output_adapter@D@__crt_stdio_output@@@2@@__crt_stdio_output@@AAE_NXZ 0043312f f i libucrt:output.obj
 0001:0003213d       ?type_case_d@?$output_processor@DV?$stream_output_adapter@D@__crt_stdio_output@@V?$positional_parameter_base@DV?$stream_output_adapter@D@__crt_stdio_output@@@2@@__crt_stdio_output@@AAE_NXZ 0043313d f i libucrt:output.obj
 0001:0003214b       ?type_case_d@?$output_processor@DV?$stream_output_adapter@D@__crt_stdio_output@@V?$standard_base@DV?$stream_output_adapter@D@__crt_stdio_output@@@2@@__crt_stdio_output@@AAE_NXZ 0043314b f i libucrt:output.obj
 0001:00032159       ?type_case_d@?$output_processor@DV?$string_output_adapter@D@__crt_stdio_output@@V?$format_validation_base@DV?$string_output_adapter@D@__crt_stdio_output@@@2@@__crt_stdio_output@@AAE_NXZ 00433159 f i libucrt:output.obj
 0001:00032167       ?type_case_d@?$output_processor@DV?$string_output_adapter@D@__crt_stdio_output@@V?$positional_parameter_base@DV?$string_output_adapter@D@__crt_stdio_output@@@2@@__crt_stdio_output@@AAE_NXZ 00433167 f i libucrt:output.obj
 0001:00032175       ?type_case_d@?$output_processor@DV?$string_output_adapter@D@__crt_stdio_output@@V?$standard_base@DV?$string_output_adapter@D@__crt_stdio_output@@@2@@__crt_stdio_output@@AAE_NXZ 00433175 f i libucrt:output.obj
 0001:00032183       ?type_case_d@?$output_processor@_WV?$stream_output_adapter@_W@__crt_stdio_output@@V?$format_validation_base@_WV?$stream_output_adapter@_W@__crt_stdio_output@@@2@@__crt_stdio_output@@AAE_NXZ 00433183 f i libucrt:output.obj
 0001:00032191       ?type_case_d@?$output_processor@_WV?$stream_output_adapter@_W@__crt_stdio_output@@V?$positional_parameter_base@_WV?$stream_output_adapter@_W@__crt_stdio_output@@@2@@__crt_stdio_output@@AAE_NXZ 00433191 f i libucrt:output.obj
 0001:0003219f       ?type_case_d@?$output_processor@_WV?$stream_output_adapter@_W@__crt_stdio_output@@V?$standard_base@_WV?$stream_output_adapter@_W@__crt_stdio_output@@@2@@__crt_stdio_output@@AAE_NXZ 0043319f f i libucrt:output.obj
 0001:000321ad       ?type_case_d@?$output_processor@_WV?$string_output_adapter@_W@__crt_stdio_output@@V?$format_validation_base@_WV?$string_output_adapter@_W@__crt_stdio_output@@@2@@__crt_stdio_output@@AAE_NXZ 004331ad f i libucrt:output.obj
 0001:000321bb       ?type_case_d@?$output_processor@_WV?$string_output_adapter@_W@__crt_stdio_output@@V?$positional_parameter_base@_WV?$string_output_adapter@_W@__crt_stdio_output@@@2@@__crt_stdio_output@@AAE_NXZ 004331bb f i libucrt:output.obj
 0001:000321c9       ?type_case_d@?$output_processor@_WV?$string_output_adapter@_W@__crt_stdio_output@@V?$standard_base@_WV?$string_output_adapter@_W@__crt_stdio_output@@@2@@__crt_stdio_output@@AAE_NXZ 004331c9 f i libucrt:output.obj
 0001:000321d7       ?type_case_integer@?$output_processor@DV?$stream_output_adapter@D@__crt_stdio_output@@V?$format_validation_base@DV?$stream_output_adapter@D@__crt_stdio_output@@@2@@__crt_stdio_output@@AAE_NI_N@Z 004331d7 f i libucrt:output.obj
 0001:00032321       ?type_case_integer@?$output_processor@DV?$stream_output_adapter@D@__crt_stdio_output@@V?$positional_parameter_base@DV?$stream_output_adapter@D@__crt_stdio_output@@@2@@__crt_stdio_output@@AAE_NI_N@Z 00433321 f i libucrt:output.obj
 0001:0003249f       ?type_case_integer@?$output_processor@DV?$stream_output_adapter@D@__crt_stdio_output@@V?$standard_base@DV?$stream_output_adapter@D@__crt_stdio_output@@@2@@__crt_stdio_output@@AAE_NI_N@Z 0043349f f i libucrt:output.obj
 0001:000325e9       ?type_case_integer@?$output_processor@DV?$string_output_adapter@D@__crt_stdio_output@@V?$format_validation_base@DV?$string_output_adapter@D@__crt_stdio_output@@@2@@__crt_stdio_output@@AAE_NI_N@Z 004335e9 f i libucrt:output.obj
 0001:00032733       ?type_case_integer@?$output_processor@DV?$string_output_adapter@D@__crt_stdio_output@@V?$positional_parameter_base@DV?$string_output_adapter@D@__crt_stdio_output@@@2@@__crt_stdio_output@@AAE_NI_N@Z 00433733 f i libucrt:output.obj
 0001:000328b1       ?type_case_integer@?$output_processor@DV?$string_output_adapter@D@__crt_stdio_output@@V?$standard_base@DV?$string_output_adapter@D@__crt_stdio_output@@@2@@__crt_stdio_output@@AAE_NI_N@Z 004338b1 f i libucrt:output.obj
 0001:000329fb       ?type_case_integer@?$output_processor@_WV?$stream_output_adapter@_W@__crt_stdio_output@@V?$format_validation_base@_WV?$stream_output_adapter@_W@__crt_stdio_output@@@2@@__crt_stdio_output@@AAE_NI_N@Z 004339fb f i libucrt:output.obj
 0001:00032b45       ?type_case_integer@?$output_processor@_WV?$stream_output_adapter@_W@__crt_stdio_output@@V?$positional_parameter_base@_WV?$stream_output_adapter@_W@__crt_stdio_output@@@2@@__crt_stdio_output@@AAE_NI_N@Z 00433b45 f i libucrt:output.obj
 0001:00032cc3       ?type_case_integer@?$output_processor@_WV?$stream_output_adapter@_W@__crt_stdio_output@@V?$standard_base@_WV?$stream_output_adapter@_W@__crt_stdio_output@@@2@@__crt_stdio_output@@AAE_NI_N@Z 00433cc3 f i libucrt:output.obj
 0001:00032e0d       ?type_case_integer@?$output_processor@_WV?$string_output_adapter@_W@__crt_stdio_output@@V?$format_validation_base@_WV?$string_output_adapter@_W@__crt_stdio_output@@@2@@__crt_stdio_output@@AAE_NI_N@Z 00433e0d f i libucrt:output.obj
 0001:00032f57       ?type_case_integer@?$output_processor@_WV?$string_output_adapter@_W@__crt_stdio_output@@V?$positional_parameter_base@_WV?$string_output_adapter@_W@__crt_stdio_output@@@2@@__crt_stdio_output@@AAE_NI_N@Z 00433f57 f i libucrt:output.obj
 0001:000330d5       ?type_case_integer@?$output_processor@_WV?$string_output_adapter@_W@__crt_stdio_output@@V?$standard_base@_WV?$string_output_adapter@_W@__crt_stdio_output@@@2@@__crt_stdio_output@@AAE_NI_N@Z 004340d5 f i libucrt:output.obj
 0001:0003321f       ?type_case_n@?$output_processor@DV?$stream_output_adapter@D@__crt_stdio_output@@V?$format_validation_base@DV?$stream_output_adapter@D@__crt_stdio_output@@@2@@__crt_stdio_output@@AAE_NXZ 0043421f f i libucrt:output.obj
 0001:00033293       ?type_case_n@?$output_processor@DV?$stream_output_adapter@D@__crt_stdio_output@@V?$positional_parameter_base@DV?$stream_output_adapter@D@__crt_stdio_output@@@2@@__crt_stdio_output@@AAE_NXZ 00434293 f i libucrt:output.obj
 0001:0003332c       ?type_case_n@?$output_processor@DV?$stream_output_adapter@D@__crt_stdio_output@@V?$standard_base@DV?$stream_output_adapter@D@__crt_stdio_output@@@2@@__crt_stdio_output@@AAE_NXZ 0043432c f i libucrt:output.obj
 0001:000333a0       ?type_case_n@?$output_processor@DV?$string_output_adapter@D@__crt_stdio_output@@V?$format_validation_base@DV?$string_output_adapter@D@__crt_stdio_output@@@2@@__crt_stdio_output@@AAE_NXZ 004343a0 f i libucrt:output.obj
 0001:00033414       ?type_case_n@?$output_processor@DV?$string_output_adapter@D@__crt_stdio_output@@V?$positional_parameter_base@DV?$string_output_adapter@D@__crt_stdio_output@@@2@@__crt_stdio_output@@AAE_NXZ 00434414 f i libucrt:output.obj
 0001:000334ad       ?type_case_n@?$output_processor@DV?$string_output_adapter@D@__crt_stdio_output@@V?$standard_base@DV?$string_output_adapter@D@__crt_stdio_output@@@2@@__crt_stdio_output@@AAE_NXZ 004344ad f i libucrt:output.obj
 0001:00033521       ?type_case_n@?$output_processor@_WV?$stream_output_adapter@_W@__crt_stdio_output@@V?$format_validation_base@_WV?$stream_output_adapter@_W@__crt_stdio_output@@@2@@__crt_stdio_output@@AAE_NXZ 00434521 f i libucrt:output.obj
 0001:00033595       ?type_case_n@?$output_processor@_WV?$stream_output_adapter@_W@__crt_stdio_output@@V?$positional_parameter_base@_WV?$stream_output_adapter@_W@__crt_stdio_output@@@2@@__crt_stdio_output@@AAE_NXZ 00434595 f i libucrt:output.obj
 0001:0003362e       ?type_case_n@?$output_processor@_WV?$stream_output_adapter@_W@__crt_stdio_output@@V?$standard_base@_WV?$stream_output_adapter@_W@__crt_stdio_output@@@2@@__crt_stdio_output@@AAE_NXZ 0043462e f i libucrt:output.obj
 0001:000336a2       ?type_case_n@?$output_processor@_WV?$string_output_adapter@_W@__crt_stdio_output@@V?$format_validation_base@_WV?$string_output_adapter@_W@__crt_stdio_output@@@2@@__crt_stdio_output@@AAE_NXZ 004346a2 f i libucrt:output.obj
 0001:00033716       ?type_case_n@?$output_processor@_WV?$string_output_adapter@_W@__crt_stdio_output@@V?$positional_parameter_base@_WV?$string_output_adapter@_W@__crt_stdio_output@@@2@@__crt_stdio_output@@AAE_NXZ 00434716 f i libucrt:output.obj
 0001:000337af       ?type_case_n@?$output_processor@_WV?$string_output_adapter@_W@__crt_stdio_output@@V?$standard_base@_WV?$string_output_adapter@_W@__crt_stdio_output@@@2@@__crt_stdio_output@@AAE_NXZ 004347af f i libucrt:output.obj
 0001:00033823       ?type_case_o@?$output_processor@DV?$stream_output_adapter@D@__crt_stdio_output@@V?$format_validation_base@DV?$stream_output_adapter@D@__crt_stdio_output@@@2@@__crt_stdio_output@@AAE_NXZ 00434823 f i libucrt:output.obj
 0001:00033842       ?type_case_o@?$output_processor@DV?$stream_output_adapter@D@__crt_stdio_output@@V?$positional_parameter_base@DV?$stream_output_adapter@D@__crt_stdio_output@@@2@@__crt_stdio_output@@AAE_NXZ 00434842 f i libucrt:output.obj
 0001:00033861       ?type_case_o@?$output_processor@DV?$stream_output_adapter@D@__crt_stdio_output@@V?$standard_base@DV?$stream_output_adapter@D@__crt_stdio_output@@@2@@__crt_stdio_output@@AAE_NXZ 00434861 f i libucrt:output.obj
 0001:00033880       ?type_case_o@?$output_processor@DV?$string_output_adapter@D@__crt_stdio_output@@V?$format_validation_base@DV?$string_output_adapter@D@__crt_stdio_output@@@2@@__crt_stdio_output@@AAE_NXZ 00434880 f i libucrt:output.obj
 0001:0003389f       ?type_case_o@?$output_processor@DV?$string_output_adapter@D@__crt_stdio_output@@V?$positional_parameter_base@DV?$string_output_adapter@D@__crt_stdio_output@@@2@@__crt_stdio_output@@AAE_NXZ 0043489f f i libucrt:output.obj
 0001:000338be       ?type_case_o@?$output_processor@DV?$string_output_adapter@D@__crt_stdio_output@@V?$standard_base@DV?$string_output_adapter@D@__crt_stdio_output@@@2@@__crt_stdio_output@@AAE_NXZ 004348be f i libucrt:output.obj
 0001:000338dd       ?type_case_o@?$output_processor@_WV?$stream_output_adapter@_W@__crt_stdio_output@@V?$format_validation_base@_WV?$stream_output_adapter@_W@__crt_stdio_output@@@2@@__crt_stdio_output@@AAE_NXZ 004348dd f i libucrt:output.obj
 0001:000338fc       ?type_case_o@?$output_processor@_WV?$stream_output_adapter@_W@__crt_stdio_output@@V?$positional_parameter_base@_WV?$stream_output_adapter@_W@__crt_stdio_output@@@2@@__crt_stdio_output@@AAE_NXZ 004348fc f i libucrt:output.obj
 0001:0003391b       ?type_case_o@?$output_processor@_WV?$stream_output_adapter@_W@__crt_stdio_output@@V?$standard_base@_WV?$stream_output_adapter@_W@__crt_stdio_output@@@2@@__crt_stdio_output@@AAE_NXZ 0043491b f i libucrt:output.obj
 0001:0003393a       ?type_case_o@?$output_processor@_WV?$string_output_adapter@_W@__crt_stdio_output@@V?$format_validation_base@_WV?$string_output_adapter@_W@__crt_stdio_output@@@2@@__crt_stdio_output@@AAE_NXZ 0043493a f i libucrt:output.obj
 0001:00033959       ?type_case_o@?$output_processor@_WV?$string_output_adapter@_W@__crt_stdio_output@@V?$positional_parameter_base@_WV?$string_output_adapter@_W@__crt_stdio_output@@@2@@__crt_stdio_output@@AAE_NXZ 00434959 f i libucrt:output.obj
 0001:00033978       ?type_case_o@?$output_processor@_WV?$string_output_adapter@_W@__crt_stdio_output@@V?$standard_base@_WV?$string_output_adapter@_W@__crt_stdio_output@@@2@@__crt_stdio_output@@AAE_NXZ 00434978 f i libucrt:output.obj
 0001:00033997       ?type_case_p@?$output_processor@DV?$stream_output_adapter@D@__crt_stdio_output@@V?$format_validation_base@DV?$stream_output_adapter@D@__crt_stdio_output@@@2@@__crt_stdio_output@@AAE_NXZ 00434997 f i libucrt:output.obj
 0001:000339af       ?type_case_p@?$output_processor@DV?$stream_output_adapter@D@__crt_stdio_output@@V?$positional_parameter_base@DV?$stream_output_adapter@D@__crt_stdio_output@@@2@@__crt_stdio_output@@AAE_NXZ 004349af f i libucrt:output.obj
 0001:000339c7       ?type_case_p@?$output_processor@DV?$stream_output_adapter@D@__crt_stdio_output@@V?$standard_base@DV?$stream_output_adapter@D@__crt_stdio_output@@@2@@__crt_stdio_output@@AAE_NXZ 004349c7 f i libucrt:output.obj
 0001:000339df       ?type_case_p@?$output_processor@DV?$string_output_adapter@D@__crt_stdio_output@@V?$format_validation_base@DV?$string_output_adapter@D@__crt_stdio_output@@@2@@__crt_stdio_output@@AAE_NXZ 004349df f i libucrt:output.obj
 0001:000339f7       ?type_case_p@?$output_processor@DV?$string_output_adapter@D@__crt_stdio_output@@V?$positional_parameter_base@DV?$string_output_adapter@D@__crt_stdio_output@@@2@@__crt_stdio_output@@AAE_NXZ 004349f7 f i libucrt:output.obj
 0001:00033a0f       ?type_case_p@?$output_processor@DV?$string_output_adapter@D@__crt_stdio_output@@V?$standard_base@DV?$string_output_adapter@D@__crt_stdio_output@@@2@@__crt_stdio_output@@AAE_NXZ 00434a0f f i libucrt:output.obj
 0001:00033a27       ?type_case_p@?$output_processor@_WV?$stream_output_adapter@_W@__crt_stdio_output@@V?$format_validation_base@_WV?$stream_output_adapter@_W@__crt_stdio_output@@@2@@__crt_stdio_output@@AAE_NXZ 00434a27 f i libucrt:output.obj
 0001:00033a3f       ?type_case_p@?$output_processor@_WV?$stream_output_adapter@_W@__crt_stdio_output@@V?$positional_parameter_base@_WV?$stream_output_adapter@_W@__crt_stdio_output@@@2@@__crt_stdio_output@@AAE_NXZ 00434a3f f i libucrt:output.obj
 0001:00033a57       ?type_case_p@?$output_processor@_WV?$stream_output_adapter@_W@__crt_stdio_output@@V?$standard_base@_WV?$stream_output_adapter@_W@__crt_stdio_output@@@2@@__crt_stdio_output@@AAE_NXZ 00434a57 f i libucrt:output.obj
 0001:00033a6f       ?type_case_p@?$output_processor@_WV?$string_output_adapter@_W@__crt_stdio_output@@V?$format_validation_base@_WV?$string_output_adapter@_W@__crt_stdio_output@@@2@@__crt_stdio_output@@AAE_NXZ 00434a6f f i libucrt:output.obj
 0001:00033a87       ?type_case_p@?$output_processor@_WV?$string_output_adapter@_W@__crt_stdio_output@@V?$positional_parameter_base@_WV?$string_output_adapter@_W@__crt_stdio_output@@@2@@__crt_stdio_output@@AAE_NXZ 00434a87 f i libucrt:output.obj
 0001:00033a9f       ?type_case_p@?$output_processor@_WV?$string_output_adapter@_W@__crt_stdio_output@@V?$standard_base@_WV?$string_output_adapter@_W@__crt_stdio_output@@@2@@__crt_stdio_output@@AAE_NXZ 00434a9f f i libucrt:output.obj
 0001:00033ab7       ?type_case_s@?$output_processor@DV?$stream_output_adapter@D@__crt_stdio_output@@V?$format_validation_base@DV?$stream_output_adapter@D@__crt_stdio_output@@@2@@__crt_stdio_output@@AAE_NXZ 00434ab7 f i libucrt:output.obj
 0001:00033b2a       ?type_case_s@?$output_processor@DV?$stream_output_adapter@D@__crt_stdio_output@@V?$positional_parameter_base@DV?$stream_output_adapter@D@__crt_stdio_output@@@2@@__crt_stdio_output@@AAE_NXZ 00434b2a f i libucrt:output.obj
 0001:00033ba6       ?type_case_s@?$output_processor@DV?$stream_output_adapter@D@__crt_stdio_output@@V?$standard_base@DV?$stream_output_adapter@D@__crt_stdio_output@@@2@@__crt_stdio_output@@AAE_NXZ 00434ba6 f i libucrt:output.obj
 0001:00033c19       ?type_case_s@?$output_processor@DV?$string_output_adapter@D@__crt_stdio_output@@V?$format_validation_base@DV?$string_output_adapter@D@__crt_stdio_output@@@2@@__crt_stdio_output@@AAE_NXZ 00434c19 f i libucrt:output.obj
 0001:00033c8c       ?type_case_s@?$output_processor@DV?$string_output_adapter@D@__crt_stdio_output@@V?$positional_parameter_base@DV?$string_output_adapter@D@__crt_stdio_output@@@2@@__crt_stdio_output@@AAE_NXZ 00434c8c f i libucrt:output.obj
 0001:00033d08       ?type_case_s@?$output_processor@DV?$string_output_adapter@D@__crt_stdio_output@@V?$standard_base@DV?$string_output_adapter@D@__crt_stdio_output@@@2@@__crt_stdio_output@@AAE_NXZ 00434d08 f i libucrt:output.obj
 0001:00033d7b       ?type_case_s@?$output_processor@_WV?$stream_output_adapter@_W@__crt_stdio_output@@V?$format_validation_base@_WV?$stream_output_adapter@_W@__crt_stdio_output@@@2@@__crt_stdio_output@@AAE_NXZ 00434d7b f i libucrt:output.obj
 0001:00033def       ?type_case_s@?$output_processor@_WV?$stream_output_adapter@_W@__crt_stdio_output@@V?$positional_parameter_base@_WV?$stream_output_adapter@_W@__crt_stdio_output@@@2@@__crt_stdio_output@@AAE_NXZ 00434def f i libucrt:output.obj
 0001:00033e6d       ?type_case_s@?$output_processor@_WV?$stream_output_adapter@_W@__crt_stdio_output@@V?$standard_base@_WV?$stream_output_adapter@_W@__crt_stdio_output@@@2@@__crt_stdio_output@@AAE_NXZ 00434e6d f i libucrt:output.obj
 0001:00033ee1       ?type_case_s@?$output_processor@_WV?$string_output_adapter@_W@__crt_stdio_output@@V?$format_validation_base@_WV?$string_output_adapter@_W@__crt_stdio_output@@@2@@__crt_stdio_output@@AAE_NXZ 00434ee1 f i libucrt:output.obj
 0001:00033f55       ?type_case_s@?$output_processor@_WV?$string_output_adapter@_W@__crt_stdio_output@@V?$positional_parameter_base@_WV?$string_output_adapter@_W@__crt_stdio_output@@@2@@__crt_stdio_output@@AAE_NXZ 00434f55 f i libucrt:output.obj
 0001:00033fd3       ?type_case_s@?$output_processor@_WV?$string_output_adapter@_W@__crt_stdio_output@@V?$standard_base@_WV?$string_output_adapter@_W@__crt_stdio_output@@@2@@__crt_stdio_output@@AAE_NXZ 00434fd3 f i libucrt:output.obj
 0001:00034047       ?type_case_s_compute_narrow_string_length@?$output_processor@DV?$stream_output_adapter@D@__crt_stdio_output@@V?$format_validation_base@DV?$stream_output_adapter@D@__crt_stdio_output@@@2@@__crt_stdio_output@@ABEHHD@Z 00435047 f i libucrt:output.obj
 0001:0003405d       ?type_case_s_compute_narrow_string_length@?$output_processor@DV?$stream_output_adapter@D@__crt_stdio_output@@V?$positional_parameter_base@DV?$stream_output_adapter@D@__crt_stdio_output@@@2@@__crt_stdio_output@@ABEHHD@Z 0043505d f i libucrt:output.obj
 0001:00034073       ?type_case_s_compute_narrow_string_length@?$output_processor@DV?$stream_output_adapter@D@__crt_stdio_output@@V?$standard_base@DV?$stream_output_adapter@D@__crt_stdio_output@@@2@@__crt_stdio_output@@ABEHHD@Z 00435073 f i libucrt:output.obj
 0001:00034089       ?type_case_s_compute_narrow_string_length@?$output_processor@DV?$string_output_adapter@D@__crt_stdio_output@@V?$format_validation_base@DV?$string_output_adapter@D@__crt_stdio_output@@@2@@__crt_stdio_output@@ABEHHD@Z 00435089 f i libucrt:output.obj
 0001:0003409f       ?type_case_s_compute_narrow_string_length@?$output_processor@DV?$string_output_adapter@D@__crt_stdio_output@@V?$positional_parameter_base@DV?$string_output_adapter@D@__crt_stdio_output@@@2@@__crt_stdio_output@@ABEHHD@Z 0043509f f i libucrt:output.obj
 0001:000340b5       ?type_case_s_compute_narrow_string_length@?$output_processor@DV?$string_output_adapter@D@__crt_stdio_output@@V?$standard_base@DV?$string_output_adapter@D@__crt_stdio_output@@@2@@__crt_stdio_output@@ABEHHD@Z 004350b5 f i libucrt:output.obj
 0001:000340cb       ?type_case_s_compute_narrow_string_length@?$output_processor@_WV?$stream_output_adapter@_W@__crt_stdio_output@@V?$format_validation_base@_WV?$stream_output_adapter@_W@__crt_stdio_output@@@2@@__crt_stdio_output@@ABEHH_W@Z 004350cb f i libucrt:output.obj
 0001:0003410b       ?type_case_s_compute_narrow_string_length@?$output_processor@_WV?$stream_output_adapter@_W@__crt_stdio_output@@V?$positional_parameter_base@_WV?$stream_output_adapter@_W@__crt_stdio_output@@@2@@__crt_stdio_output@@ABEHH_W@Z 0043510b f i libucrt:output.obj
 0001:0003414b       ?type_case_s_compute_narrow_string_length@?$output_processor@_WV?$stream_output_adapter@_W@__crt_stdio_output@@V?$standard_base@_WV?$stream_output_adapter@_W@__crt_stdio_output@@@2@@__crt_stdio_output@@ABEHH_W@Z 0043514b f i libucrt:output.obj
 0001:0003418b       ?type_case_s_compute_narrow_string_length@?$output_processor@_WV?$string_output_adapter@_W@__crt_stdio_output@@V?$format_validation_base@_WV?$string_output_adapter@_W@__crt_stdio_output@@@2@@__crt_stdio_output@@ABEHH_W@Z 0043518b f i libucrt:output.obj
 0001:000341cb       ?type_case_s_compute_narrow_string_length@?$output_processor@_WV?$string_output_adapter@_W@__crt_stdio_output@@V?$positional_parameter_base@_WV?$string_output_adapter@_W@__crt_stdio_output@@@2@@__crt_stdio_output@@ABEHH_W@Z 004351cb f i libucrt:output.obj
 0001:0003420b       ?type_case_s_compute_narrow_string_length@?$output_processor@_WV?$string_output_adapter@_W@__crt_stdio_output@@V?$standard_base@_WV?$string_output_adapter@_W@__crt_stdio_output@@@2@@__crt_stdio_output@@ABEHH_W@Z 0043520b f i libucrt:output.obj
 0001:0003424b       ?type_case_u@?$output_processor@DV?$stream_output_adapter@D@__crt_stdio_output@@V?$format_validation_base@DV?$stream_output_adapter@D@__crt_stdio_output@@@2@@__crt_stdio_output@@AAE_NXZ 0043524b f i libucrt:output.obj
 0001:00034255       ?type_case_u@?$output_processor@DV?$stream_output_adapter@D@__crt_stdio_output@@V?$positional_parameter_base@DV?$stream_output_adapter@D@__crt_stdio_output@@@2@@__crt_stdio_output@@AAE_NXZ 00435255 f i libucrt:output.obj
 0001:0003425f       ?type_case_u@?$output_processor@DV?$stream_output_adapter@D@__crt_stdio_output@@V?$standard_base@DV?$stream_output_adapter@D@__crt_stdio_output@@@2@@__crt_stdio_output@@AAE_NXZ 0043525f f i libucrt:output.obj
 0001:00034269       ?type_case_u@?$output_processor@DV?$string_output_adapter@D@__crt_stdio_output@@V?$format_validation_base@DV?$string_output_adapter@D@__crt_stdio_output@@@2@@__crt_stdio_output@@AAE_NXZ 00435269 f i libucrt:output.obj
 0001:00034273       ?type_case_u@?$output_processor@DV?$string_output_adapter@D@__crt_stdio_output@@V?$positional_parameter_base@DV?$string_output_adapter@D@__crt_stdio_output@@@2@@__crt_stdio_output@@AAE_NXZ 00435273 f i libucrt:output.obj
 0001:0003427d       ?type_case_u@?$output_processor@DV?$string_output_adapter@D@__crt_stdio_output@@V?$standard_base@DV?$string_output_adapter@D@__crt_stdio_output@@@2@@__crt_stdio_output@@AAE_NXZ 0043527d f i libucrt:output.obj
 0001:00034287       ?type_case_u@?$output_processor@_WV?$stream_output_adapter@_W@__crt_stdio_output@@V?$format_validation_base@_WV?$stream_output_adapter@_W@__crt_stdio_output@@@2@@__crt_stdio_output@@AAE_NXZ 00435287 f i libucrt:output.obj
 0001:00034291       ?type_case_u@?$output_processor@_WV?$stream_output_adapter@_W@__crt_stdio_output@@V?$positional_parameter_base@_WV?$stream_output_adapter@_W@__crt_stdio_output@@@2@@__crt_stdio_output@@AAE_NXZ 00435291 f i libucrt:output.obj
 0001:0003429b       ?type_case_u@?$output_processor@_WV?$stream_output_adapter@_W@__crt_stdio_output@@V?$standard_base@_WV?$stream_output_adapter@_W@__crt_stdio_output@@@2@@__crt_stdio_output@@AAE_NXZ 0043529b f i libucrt:output.obj
 0001:000342a5       ?type_case_u@?$output_processor@_WV?$string_output_adapter@_W@__crt_stdio_output@@V?$format_validation_base@_WV?$string_output_adapter@_W@__crt_stdio_output@@@2@@__crt_stdio_output@@AAE_NXZ 004352a5 f i libucrt:output.obj
 0001:000342af       ?type_case_u@?$output_processor@_WV?$string_output_adapter@_W@__crt_stdio_output@@V?$positional_parameter_base@_WV?$string_output_adapter@_W@__crt_stdio_output@@@2@@__crt_stdio_output@@AAE_NXZ 004352af f i libucrt:output.obj
 0001:000342b9       ?type_case_u@?$output_processor@_WV?$string_output_adapter@_W@__crt_stdio_output@@V?$standard_base@_WV?$string_output_adapter@_W@__crt_stdio_output@@@2@@__crt_stdio_output@@AAE_NXZ 004352b9 f i libucrt:output.obj
 0001:000342c3       ?type_case_x@?$output_processor@DV?$stream_output_adapter@D@__crt_stdio_output@@V?$format_validation_base@DV?$stream_output_adapter@D@__crt_stdio_output@@@2@@__crt_stdio_output@@AAE_NXZ 004352c3 f i libucrt:output.obj
 0001:000342cd       ?type_case_x@?$output_processor@DV?$stream_output_adapter@D@__crt_stdio_output@@V?$positional_parameter_base@DV?$stream_output_adapter@D@__crt_stdio_output@@@2@@__crt_stdio_output@@AAE_NXZ 004352cd f i libucrt:output.obj
 0001:000342d7       ?type_case_x@?$output_processor@DV?$stream_output_adapter@D@__crt_stdio_output@@V?$standard_base@DV?$stream_output_adapter@D@__crt_stdio_output@@@2@@__crt_stdio_output@@AAE_NXZ 004352d7 f i libucrt:output.obj
 0001:000342e1       ?type_case_x@?$output_processor@DV?$string_output_adapter@D@__crt_stdio_output@@V?$format_validation_base@DV?$string_output_adapter@D@__crt_stdio_output@@@2@@__crt_stdio_output@@AAE_NXZ 004352e1 f i libucrt:output.obj
 0001:000342eb       ?type_case_x@?$output_processor@DV?$string_output_adapter@D@__crt_stdio_output@@V?$positional_parameter_base@DV?$string_output_adapter@D@__crt_stdio_output@@@2@@__crt_stdio_output@@AAE_NXZ 004352eb f i libucrt:output.obj
 0001:000342f5       ?type_case_x@?$output_processor@DV?$string_output_adapter@D@__crt_stdio_output@@V?$standard_base@DV?$string_output_adapter@D@__crt_stdio_output@@@2@@__crt_stdio_output@@AAE_NXZ 004352f5 f i libucrt:output.obj
 0001:000342ff       ?type_case_x@?$output_processor@_WV?$stream_output_adapter@_W@__crt_stdio_output@@V?$format_validation_base@_WV?$stream_output_adapter@_W@__crt_stdio_output@@@2@@__crt_stdio_output@@AAE_NXZ 004352ff f i libucrt:output.obj
 0001:00034309       ?type_case_x@?$output_processor@_WV?$stream_output_adapter@_W@__crt_stdio_output@@V?$positional_parameter_base@_WV?$stream_output_adapter@_W@__crt_stdio_output@@@2@@__crt_stdio_output@@AAE_NXZ 00435309 f i libucrt:output.obj
 0001:00034313       ?type_case_x@?$output_processor@_WV?$stream_output_adapter@_W@__crt_stdio_output@@V?$standard_base@_WV?$stream_output_adapter@_W@__crt_stdio_output@@@2@@__crt_stdio_output@@AAE_NXZ 00435313 f i libucrt:output.obj
 0001:0003431d       ?type_case_x@?$output_processor@_WV?$string_output_adapter@_W@__crt_stdio_output@@V?$format_validation_base@_WV?$string_output_adapter@_W@__crt_stdio_output@@@2@@__crt_stdio_output@@AAE_NXZ 0043531d f i libucrt:output.obj
 0001:00034327       ?type_case_x@?$output_processor@_WV?$string_output_adapter@_W@__crt_stdio_output@@V?$positional_parameter_base@_WV?$string_output_adapter@_W@__crt_stdio_output@@@2@@__crt_stdio_output@@AAE_NXZ 00435327 f i libucrt:output.obj
 0001:00034331       ?type_case_x@?$output_processor@_WV?$string_output_adapter@_W@__crt_stdio_output@@V?$standard_base@_WV?$string_output_adapter@_W@__crt_stdio_output@@@2@@__crt_stdio_output@@AAE_NXZ 00435331 f i libucrt:output.obj
 0001:0003433b       ?unset_flag@?$output_processor@DV?$stream_output_adapter@D@__crt_stdio_output@@V?$format_validation_base@DV?$stream_output_adapter@D@__crt_stdio_output@@@2@@__crt_stdio_output@@AAEXI@Z 0043533b f i libucrt:output.obj
 0001:0003434c       ?unset_flag@?$output_processor@DV?$stream_output_adapter@D@__crt_stdio_output@@V?$positional_parameter_base@DV?$stream_output_adapter@D@__crt_stdio_output@@@2@@__crt_stdio_output@@AAEXI@Z 0043534c f i libucrt:output.obj
 0001:0003435d       ?unset_flag@?$output_processor@DV?$stream_output_adapter@D@__crt_stdio_output@@V?$standard_base@DV?$stream_output_adapter@D@__crt_stdio_output@@@2@@__crt_stdio_output@@AAEXI@Z 0043535d f i libucrt:output.obj
 0001:0003436e       ?unset_flag@?$output_processor@DV?$string_output_adapter@D@__crt_stdio_output@@V?$format_validation_base@DV?$string_output_adapter@D@__crt_stdio_output@@@2@@__crt_stdio_output@@AAEXI@Z 0043536e f i libucrt:output.obj
 0001:0003437f       ?unset_flag@?$output_processor@DV?$string_output_adapter@D@__crt_stdio_output@@V?$positional_parameter_base@DV?$string_output_adapter@D@__crt_stdio_output@@@2@@__crt_stdio_output@@AAEXI@Z 0043537f f i libucrt:output.obj
 0001:00034390       ?unset_flag@?$output_processor@DV?$string_output_adapter@D@__crt_stdio_output@@V?$standard_base@DV?$string_output_adapter@D@__crt_stdio_output@@@2@@__crt_stdio_output@@AAEXI@Z 00435390 f i libucrt:output.obj
 0001:000343a1       ?unset_flag@?$output_processor@_WV?$stream_output_adapter@_W@__crt_stdio_output@@V?$format_validation_base@_WV?$stream_output_adapter@_W@__crt_stdio_output@@@2@@__crt_stdio_output@@AAEXI@Z 004353a1 f i libucrt:output.obj
 0001:000343b2       ?unset_flag@?$output_processor@_WV?$stream_output_adapter@_W@__crt_stdio_output@@V?$positional_parameter_base@_WV?$stream_output_adapter@_W@__crt_stdio_output@@@2@@__crt_stdio_output@@AAEXI@Z 004353b2 f i libucrt:output.obj
 0001:000343c3       ?unset_flag@?$output_processor@_WV?$stream_output_adapter@_W@__crt_stdio_output@@V?$standard_base@_WV?$stream_output_adapter@_W@__crt_stdio_output@@@2@@__crt_stdio_output@@AAEXI@Z 004353c3 f i libucrt:output.obj
 0001:000343d4       ?unset_flag@?$output_processor@_WV?$string_output_adapter@_W@__crt_stdio_output@@V?$format_validation_base@_WV?$string_output_adapter@_W@__crt_stdio_output@@@2@@__crt_stdio_output@@AAEXI@Z 004353d4 f i libucrt:output.obj
 0001:000343e5       ?unset_flag@?$output_processor@_WV?$string_output_adapter@_W@__crt_stdio_output@@V?$positional_parameter_base@_WV?$string_output_adapter@_W@__crt_stdio_output@@@2@@__crt_stdio_output@@AAEXI@Z 004353e5 f i libucrt:output.obj
 0001:000343f6       ?unset_flag@?$output_processor@_WV?$string_output_adapter@_W@__crt_stdio_output@@V?$standard_base@_WV?$string_output_adapter@_W@__crt_stdio_output@@@2@@__crt_stdio_output@@AAEXI@Z 004353f6 f i libucrt:output.obj
 0001:00034407       ?update_field_width@?$positional_parameter_base@DV?$stream_output_adapter@D@__crt_stdio_output@@@__crt_stdio_output@@IAE_NXZ 00435407 f i libucrt:output.obj
 0001:000344bd       ?update_field_width@?$positional_parameter_base@DV?$string_output_adapter@D@__crt_stdio_output@@@__crt_stdio_output@@IAE_NXZ 004354bd f i libucrt:output.obj
 0001:00034573       ?update_field_width@?$positional_parameter_base@_WV?$stream_output_adapter@_W@__crt_stdio_output@@@__crt_stdio_output@@IAE_NXZ 00435573 f i libucrt:output.obj
 0001:0003462a       ?update_field_width@?$positional_parameter_base@_WV?$string_output_adapter@_W@__crt_stdio_output@@@__crt_stdio_output@@IAE_NXZ 0043562a f i libucrt:output.obj
 0001:000346e1       ?update_field_width@?$standard_base@DV?$stream_output_adapter@D@__crt_stdio_output@@@__crt_stdio_output@@IAE_NXZ 004356e1 f i libucrt:output.obj
 0001:000346f1       ?update_field_width@?$standard_base@DV?$string_output_adapter@D@__crt_stdio_output@@@__crt_stdio_output@@IAE_NXZ 004356f1 f i libucrt:output.obj
 0001:00034701       ?update_field_width@?$standard_base@_WV?$stream_output_adapter@_W@__crt_stdio_output@@@__crt_stdio_output@@IAE_NXZ 00435701 f i libucrt:output.obj
 0001:00034711       ?update_field_width@?$standard_base@_WV?$string_output_adapter@_W@__crt_stdio_output@@@__crt_stdio_output@@IAE_NXZ 00435711 f i libucrt:output.obj
 0001:00034721       ?update_precision@?$positional_parameter_base@DV?$stream_output_adapter@D@__crt_stdio_output@@@__crt_stdio_output@@IAE_NXZ 00435721 f i libucrt:output.obj
 0001:000347d7       ?update_precision@?$positional_parameter_base@DV?$string_output_adapter@D@__crt_stdio_output@@@__crt_stdio_output@@IAE_NXZ 004357d7 f i libucrt:output.obj
 0001:0003488d       ?update_precision@?$positional_parameter_base@_WV?$stream_output_adapter@_W@__crt_stdio_output@@@__crt_stdio_output@@IAE_NXZ 0043588d f i libucrt:output.obj
 0001:00034944       ?update_precision@?$positional_parameter_base@_WV?$string_output_adapter@_W@__crt_stdio_output@@@__crt_stdio_output@@IAE_NXZ 00435944 f i libucrt:output.obj
 0001:000349fb       ?update_precision@?$standard_base@DV?$stream_output_adapter@D@__crt_stdio_output@@@__crt_stdio_output@@IAE_NXZ 004359fb f i libucrt:output.obj
 0001:00034a0b       ?update_precision@?$standard_base@DV?$string_output_adapter@D@__crt_stdio_output@@@__crt_stdio_output@@IAE_NXZ 00435a0b f i libucrt:output.obj
 0001:00034a1b       ?update_precision@?$standard_base@_WV?$stream_output_adapter@_W@__crt_stdio_output@@@__crt_stdio_output@@IAE_NXZ 00435a1b f i libucrt:output.obj
 0001:00034a2b       ?update_precision@?$standard_base@_WV?$string_output_adapter@_W@__crt_stdio_output@@@__crt_stdio_output@@IAE_NXZ 00435a2b f i libucrt:output.obj
 0001:00034a3b       ?validate@?$stream_output_adapter@D@__crt_stdio_output@@QBE_NXZ 00435a3b f i libucrt:output.obj
 0001:00034a5c       ?validate@?$stream_output_adapter@_W@__crt_stdio_output@@QBE_NXZ 00435a5c f i libucrt:output.obj
 0001:00034a77       ?validate@?$string_output_adapter@D@__crt_stdio_output@@QBE_NXZ 00435a77 f i libucrt:output.obj
 0001:00034a92       ?validate@?$string_output_adapter@_W@__crt_stdio_output@@QBE_NXZ 00435a92 f i libucrt:output.obj
 0001:00034aad       ?validate_and_store_parameter_data@?$positional_parameter_base@DV?$stream_output_adapter@D@__crt_stdio_output@@@__crt_stdio_output@@AAE_NAAUparameter_data@12@W4parameter_type@12@DW4length_modifier@2@@Z 00435aad f i libucrt:output.obj
 0001:00034af8       ?validate_and_store_parameter_data@?$positional_parameter_base@DV?$string_output_adapter@D@__crt_stdio_output@@@__crt_stdio_output@@AAE_NAAUparameter_data@12@W4parameter_type@12@DW4length_modifier@2@@Z 00435af8 f i libucrt:output.obj
 0001:00034b43       ?validate_and_store_parameter_data@?$positional_parameter_base@_WV?$stream_output_adapter@_W@__crt_stdio_output@@@__crt_stdio_output@@AAE_NAAUparameter_data@12@W4parameter_type@12@_WW4length_modifier@2@@Z 00435b43 f i libucrt:output.obj
 0001:00034b90       ?validate_and_store_parameter_data@?$positional_parameter_base@_WV?$string_output_adapter@_W@__crt_stdio_output@@@__crt_stdio_output@@AAE_NAAUparameter_data@12@W4parameter_type@12@_WW4length_modifier@2@@Z 00435b90 f i libucrt:output.obj
 0001:00034bdd       ?validate_and_update_state_at_beginning_of_format_character@?$positional_parameter_base@DV?$stream_output_adapter@D@__crt_stdio_output@@@__crt_stdio_output@@IAE_NXZ 00435bdd f i libucrt:output.obj
 0001:00034cd5       ?validate_and_update_state_at_beginning_of_format_character@?$positional_parameter_base@DV?$string_output_adapter@D@__crt_stdio_output@@@__crt_stdio_output@@IAE_NXZ 00435cd5 f i libucrt:output.obj
 0001:00034dcd       ?validate_and_update_state_at_beginning_of_format_character@?$positional_parameter_base@_WV?$stream_output_adapter@_W@__crt_stdio_output@@@__crt_stdio_output@@IAE_NXZ 00435dcd f i libucrt:output.obj
 0001:00034ecf       ?validate_and_update_state_at_beginning_of_format_character@?$positional_parameter_base@_WV?$string_output_adapter@_W@__crt_stdio_output@@@__crt_stdio_output@@IAE_NXZ 00435ecf f i libucrt:output.obj
 0001:00034fd1       ?validate_and_update_state_at_beginning_of_format_character@?$standard_base@DV?$stream_output_adapter@D@__crt_stdio_output@@@__crt_stdio_output@@IAE_NXZ 00435fd1 f i libucrt:output.obj
 0001:00034fd4       ?validate_and_update_state_at_beginning_of_format_character@?$standard_base@DV?$string_output_adapter@D@__crt_stdio_output@@@__crt_stdio_output@@IAE_NXZ 00435fd4 f i libucrt:output.obj
 0001:00034fd7       ?validate_and_update_state_at_beginning_of_format_character@?$standard_base@_WV?$stream_output_adapter@_W@__crt_stdio_output@@@__crt_stdio_output@@IAE_NXZ 00435fd7 f i libucrt:output.obj
 0001:00034fda       ?validate_and_update_state_at_beginning_of_format_character@?$standard_base@_WV?$string_output_adapter@_W@__crt_stdio_output@@@__crt_stdio_output@@IAE_NXZ 00435fda f i libucrt:output.obj
 0001:00034fdd       ?validate_and_update_state_at_end_of_format_string@?$format_validation_base@DV?$stream_output_adapter@D@__crt_stdio_output@@@__crt_stdio_output@@IBE_NXZ 00435fdd f i libucrt:output.obj
 0001:00034fff       ?validate_and_update_state_at_end_of_format_string@?$format_validation_base@DV?$string_output_adapter@D@__crt_stdio_output@@@__crt_stdio_output@@IBE_NXZ 00435fff f i libucrt:output.obj
 0001:00035021       ?validate_and_update_state_at_end_of_format_string@?$format_validation_base@_WV?$stream_output_adapter@_W@__crt_stdio_output@@@__crt_stdio_output@@IBE_NXZ 00436021 f i libucrt:output.obj
 0001:00035043       ?validate_and_update_state_at_end_of_format_string@?$format_validation_base@_WV?$string_output_adapter@_W@__crt_stdio_output@@@__crt_stdio_output@@IBE_NXZ 00436043 f i libucrt:output.obj
 0001:00035065       ?validate_and_update_state_at_end_of_format_string@?$positional_parameter_base@DV?$stream_output_adapter@D@__crt_stdio_output@@@__crt_stdio_output@@IAE_NXZ 00436065 f i libucrt:output.obj
 0001:000350e5       ?validate_and_update_state_at_end_of_format_string@?$positional_parameter_base@DV?$string_output_adapter@D@__crt_stdio_output@@@__crt_stdio_output@@IAE_NXZ 004360e5 f i libucrt:output.obj
 0001:00035165       ?validate_and_update_state_at_end_of_format_string@?$positional_parameter_base@_WV?$stream_output_adapter@_W@__crt_stdio_output@@@__crt_stdio_output@@IAE_NXZ 00436165 f i libucrt:output.obj
 0001:000351e5       ?validate_and_update_state_at_end_of_format_string@?$positional_parameter_base@_WV?$string_output_adapter@_W@__crt_stdio_output@@@__crt_stdio_output@@IAE_NXZ 004361e5 f i libucrt:output.obj
 0001:00035265       ?validate_and_update_state_at_end_of_format_string@?$standard_base@DV?$stream_output_adapter@D@__crt_stdio_output@@@__crt_stdio_output@@IBE_NXZ 00436265 f i libucrt:output.obj
 0001:00035268       ?validate_and_update_state_at_end_of_format_string@?$standard_base@DV?$string_output_adapter@D@__crt_stdio_output@@@__crt_stdio_output@@IBE_NXZ 00436268 f i libucrt:output.obj
 0001:0003526b       ?validate_and_update_state_at_end_of_format_string@?$standard_base@_WV?$stream_output_adapter@_W@__crt_stdio_output@@@__crt_stdio_output@@IBE_NXZ 0043626b f i libucrt:output.obj
 0001:0003526e       ?validate_and_update_state_at_end_of_format_string@?$standard_base@_WV?$string_output_adapter@_W@__crt_stdio_output@@@__crt_stdio_output@@IBE_NXZ 0043626e f i libucrt:output.obj
 0001:00035271       ?validate_state_for_type_case_a@?$positional_parameter_base@DV?$stream_output_adapter@D@__crt_stdio_output@@@__crt_stdio_output@@IAE_NXZ 00436271 f i libucrt:output.obj
 0001:000352c4       ?validate_state_for_type_case_a@?$positional_parameter_base@DV?$string_output_adapter@D@__crt_stdio_output@@@__crt_stdio_output@@IAE_NXZ 004362c4 f i libucrt:output.obj
 0001:00035317       ?validate_state_for_type_case_a@?$positional_parameter_base@_WV?$stream_output_adapter@_W@__crt_stdio_output@@@__crt_stdio_output@@IAE_NXZ 00436317 f i libucrt:output.obj
 0001:0003536a       ?validate_state_for_type_case_a@?$positional_parameter_base@_WV?$string_output_adapter@_W@__crt_stdio_output@@@__crt_stdio_output@@IAE_NXZ 0043636a f i libucrt:output.obj
 0001:000353bd       ?validate_state_for_type_case_a@?$standard_base@DV?$stream_output_adapter@D@__crt_stdio_output@@@__crt_stdio_output@@IBE_NXZ 004363bd f i libucrt:output.obj
 0001:000353c0       ?validate_state_for_type_case_a@?$standard_base@DV?$string_output_adapter@D@__crt_stdio_output@@@__crt_stdio_output@@IBE_NXZ 004363c0 f i libucrt:output.obj
 0001:000353c3       ?validate_state_for_type_case_a@?$standard_base@_WV?$stream_output_adapter@_W@__crt_stdio_output@@@__crt_stdio_output@@IBE_NXZ 004363c3 f i libucrt:output.obj
 0001:000353c6       ?validate_state_for_type_case_a@?$standard_base@_WV?$string_output_adapter@_W@__crt_stdio_output@@@__crt_stdio_output@@IBE_NXZ 004363c6 f i libucrt:output.obj
 0001:000353c9       ?validate_stream_is_ansi_if_required@?$__acrt_stdio_char_traits@D@@SA_NQAU_iobuf@@@Z 004363c9 f i libucrt:output.obj
 0001:0003544b       ?validate_stream_is_ansi_if_required@?$__acrt_stdio_char_traits@_W@@SA_NQAU_iobuf@@@Z 0043644b f i libucrt:output.obj
 0001:0003544e       ?wide_null_string@?$output_processor@DV?$stream_output_adapter@D@__crt_stdio_output@@V?$format_validation_base@DV?$stream_output_adapter@D@__crt_stdio_output@@@2@@__crt_stdio_output@@CAPA_WXZ 0043644e f i libucrt:output.obj
 0001:00035454       ?wide_null_string@?$output_processor@DV?$stream_output_adapter@D@__crt_stdio_output@@V?$positional_parameter_base@DV?$stream_output_adapter@D@__crt_stdio_output@@@2@@__crt_stdio_output@@CAPA_WXZ 00436454 f i libucrt:output.obj
 0001:0003545a       ?wide_null_string@?$output_processor@DV?$stream_output_adapter@D@__crt_stdio_output@@V?$standard_base@DV?$stream_output_adapter@D@__crt_stdio_output@@@2@@__crt_stdio_output@@CAPA_WXZ 0043645a f i libucrt:output.obj
 0001:00035460       ?wide_null_string@?$output_processor@DV?$string_output_adapter@D@__crt_stdio_output@@V?$format_validation_base@DV?$string_output_adapter@D@__crt_stdio_output@@@2@@__crt_stdio_output@@CAPA_WXZ 00436460 f i libucrt:output.obj
 0001:00035466       ?wide_null_string@?$output_processor@DV?$string_output_adapter@D@__crt_stdio_output@@V?$positional_parameter_base@DV?$string_output_adapter@D@__crt_stdio_output@@@2@@__crt_stdio_output@@CAPA_WXZ 00436466 f i libucrt:output.obj
 0001:0003546c       ?wide_null_string@?$output_processor@DV?$string_output_adapter@D@__crt_stdio_output@@V?$standard_base@DV?$string_output_adapter@D@__crt_stdio_output@@@2@@__crt_stdio_output@@CAPA_WXZ 0043646c f i libucrt:output.obj
 0001:00035472       ?wide_null_string@?$output_processor@_WV?$stream_output_adapter@_W@__crt_stdio_output@@V?$format_validation_base@_WV?$stream_output_adapter@_W@__crt_stdio_output@@@2@@__crt_stdio_output@@CAPA_WXZ 00436472 f i libucrt:output.obj
 0001:00035478       ?wide_null_string@?$output_processor@_WV?$stream_output_adapter@_W@__crt_stdio_output@@V?$positional_parameter_base@_WV?$stream_output_adapter@_W@__crt_stdio_output@@@2@@__crt_stdio_output@@CAPA_WXZ 00436478 f i libucrt:output.obj
 0001:0003547e       ?wide_null_string@?$output_processor@_WV?$stream_output_adapter@_W@__crt_stdio_output@@V?$standard_base@_WV?$stream_output_adapter@_W@__crt_stdio_output@@@2@@__crt_stdio_output@@CAPA_WXZ 0043647e f i libucrt:output.obj
 0001:00035484       ?wide_null_string@?$output_processor@_WV?$string_output_adapter@_W@__crt_stdio_output@@V?$format_validation_base@_WV?$string_output_adapter@_W@__crt_stdio_output@@@2@@__crt_stdio_output@@CAPA_WXZ 00436484 f i libucrt:output.obj
 0001:0003548a       ?wide_null_string@?$output_processor@_WV?$string_output_adapter@_W@__crt_stdio_output@@V?$positional_parameter_base@_WV?$string_output_adapter@_W@__crt_stdio_output@@@2@@__crt_stdio_output@@CAPA_WXZ 0043648a f i libucrt:output.obj
 0001:00035490       ?wide_null_string@?$output_processor@_WV?$string_output_adapter@_W@__crt_stdio_output@@V?$standard_base@_WV?$string_output_adapter@_W@__crt_stdio_output@@@2@@__crt_stdio_output@@CAPA_WXZ 00436490 f i libucrt:output.obj
 0001:00035496       ?write_character@?$stream_output_adapter@D@__crt_stdio_output@@QBEXDQAH@Z 00436496 f i libucrt:output.obj
 0001:000354d3       ?write_character@?$stream_output_adapter@_W@__crt_stdio_output@@QBEX_WQAH@Z 004364d3 f i libucrt:output.obj
 0001:00035513       ?write_character@?$string_output_adapter@D@__crt_stdio_output@@QBE_NDQAH@Z 00436513 f i libucrt:output.obj
 0001:00035555       ?write_character@?$string_output_adapter@_W@__crt_stdio_output@@QBE_N_WQAH@Z 00436555 f i libucrt:output.obj
 0001:0003559a       ?write_stored_string_tchar@?$output_processor@DV?$stream_output_adapter@D@__crt_stdio_output@@V?$format_validation_base@DV?$stream_output_adapter@D@__crt_stdio_output@@@2@@__crt_stdio_output@@AAE_ND@Z 0043659a f i libucrt:output.obj
 0001:00035641       ?write_stored_string_tchar@?$output_processor@DV?$stream_output_adapter@D@__crt_stdio_output@@V?$positional_parameter_base@DV?$stream_output_adapter@D@__crt_stdio_output@@@2@@__crt_stdio_output@@AAE_ND@Z 00436641 f i libucrt:output.obj
 0001:000356e8       ?write_stored_string_tchar@?$output_processor@DV?$stream_output_adapter@D@__crt_stdio_output@@V?$standard_base@DV?$stream_output_adapter@D@__crt_stdio_output@@@2@@__crt_stdio_output@@AAE_ND@Z 004366e8 f i libucrt:output.obj
 0001:0003578f       ?write_stored_string_tchar@?$output_processor@DV?$string_output_adapter@D@__crt_stdio_output@@V?$format_validation_base@DV?$string_output_adapter@D@__crt_stdio_output@@@2@@__crt_stdio_output@@AAE_ND@Z 0043678f f i libucrt:output.obj
 0001:00035836       ?write_stored_string_tchar@?$output_processor@DV?$string_output_adapter@D@__crt_stdio_output@@V?$positional_parameter_base@DV?$string_output_adapter@D@__crt_stdio_output@@@2@@__crt_stdio_output@@AAE_ND@Z 00436836 f i libucrt:output.obj
 0001:000358dd       ?write_stored_string_tchar@?$output_processor@DV?$string_output_adapter@D@__crt_stdio_output@@V?$standard_base@DV?$string_output_adapter@D@__crt_stdio_output@@@2@@__crt_stdio_output@@AAE_ND@Z 004368dd f i libucrt:output.obj
 0001:00035984       ?write_stored_string_tchar@?$output_processor@_WV?$stream_output_adapter@_W@__crt_stdio_output@@V?$format_validation_base@_WV?$stream_output_adapter@_W@__crt_stdio_output@@@2@@__crt_stdio_output@@AAE_N_W@Z 00436984 f i libucrt:output.obj
 0001:00035a0f       ?write_stored_string_tchar@?$output_processor@_WV?$stream_output_adapter@_W@__crt_stdio_output@@V?$positional_parameter_base@_WV?$stream_output_adapter@_W@__crt_stdio_output@@@2@@__crt_stdio_output@@AAE_N_W@Z 00436a0f f i libucrt:output.obj
 0001:00035a9a       ?write_stored_string_tchar@?$output_processor@_WV?$stream_output_adapter@_W@__crt_stdio_output@@V?$standard_base@_WV?$stream_output_adapter@_W@__crt_stdio_output@@@2@@__crt_stdio_output@@AAE_N_W@Z 00436a9a f i libucrt:output.obj
 0001:00035b25       ?write_stored_string_tchar@?$output_processor@_WV?$string_output_adapter@_W@__crt_stdio_output@@V?$format_validation_base@_WV?$string_output_adapter@_W@__crt_stdio_output@@@2@@__crt_stdio_output@@AAE_N_W@Z 00436b25 f i libucrt:output.obj
 0001:00035bb0       ?write_stored_string_tchar@?$output_processor@_WV?$string_output_adapter@_W@__crt_stdio_output@@V?$positional_parameter_base@_WV?$string_output_adapter@_W@__crt_stdio_output@@@2@@__crt_stdio_output@@AAE_N_W@Z 00436bb0 f i libucrt:output.obj
 0001:00035c3b       ?write_stored_string_tchar@?$output_processor@_WV?$string_output_adapter@_W@__crt_stdio_output@@V?$standard_base@_WV?$string_output_adapter@_W@__crt_stdio_output@@@2@@__crt_stdio_output@@AAE_N_W@Z 00436c3b f i libucrt:output.obj
 0001:00035cc6       ?write_string@?$stream_output_adapter@D@__crt_stdio_output@@QBEXQBDHQAH1@Z 00436cc6 f i libucrt:output.obj
 0001:00035d50       ?write_string@?$stream_output_adapter@_W@__crt_stdio_output@@QBEXQB_WHQAH1@Z 00436d50 f i libucrt:output.obj
 0001:00035ddd       ?write_string@?$string_output_adapter@D@__crt_stdio_output@@QBEXQBDHQAH1@Z 00436ddd f i libucrt:output.obj
 0001:00035e70       ?write_string@?$string_output_adapter@_W@__crt_stdio_output@@QBEXQB_WHQAH1@Z 00436e70 f i libucrt:output.obj
 0001:00035f0a       ___acrt_isleadbyte_l_noupdate 00436f0a f i libucrt:output.obj
 0001:00035f25       ___acrt_locale_changed     00436f25 f i libucrt:output.obj
 0001:00035f33       ___stdio_common_vfprintf   00436f33 f   libucrt:output.obj
 0001:00035faa       ___stdio_common_vfprintf_p 00436faa f   libucrt:output.obj
 0001:00036021       ___stdio_common_vfprintf_s 00437021 f   libucrt:output.obj
 0001:00036098       ___stdio_common_vfwprintf  00437098 f   libucrt:output.obj
 0001:0003610f       ___stdio_common_vfwprintf_p 0043710f f   libucrt:output.obj
 0001:00036186       ___stdio_common_vfwprintf_s 00437186 f   libucrt:output.obj
 0001:000361fd       ___stdio_common_vsnprintf_s 004371fd f   libucrt:output.obj
 0001:00036224       ___stdio_common_vsnwprintf_s 00437224 f   libucrt:output.obj
 0001:0003624b       ___stdio_common_vsprintf   0043724b f   libucrt:output.obj
 0001:0003626f       ___stdio_common_vsprintf_p 0043726f f   libucrt:output.obj
 0001:00036293       ___stdio_common_vsprintf_s 00437293 f   libucrt:output.obj
 0001:000362b7       ___stdio_common_vswprintf  004372b7 f   libucrt:output.obj
 0001:000362db       ___stdio_common_vswprintf_p 004372db f   libucrt:output.obj
 0001:000362ff       ___stdio_common_vswprintf_s 004372ff f   libucrt:output.obj
 0001:00036323       ??$__crt_fast_decode_pointer@P6AXPB_W00II@Z@@YAP6AXPB_W00II@ZQ6AX000II@Z@Z 00437323 f i libucrt:invalid_parameter.obj
 0001:00036339       ??$__crt_fast_encode_pointer@P6AXPB_W00II@Z@@YAP6AXPB_W00II@ZQ6AX000II@Z@Z 00437339 f i libucrt:invalid_parameter.obj
 0001:00036358       ?get_current_state_index@__crt_state_management@@YAIXZ 00437358 f i libucrt:invalid_parameter.obj
 0001:0003635b       ?initialize@?$dual_state_global@P6AXPB_W00II@Z@__crt_state_management@@QAEXQ6AXPB_W00II@Z@Z 0043735b f i libucrt:invalid_parameter.obj
 0001:0003638c       ?value@?$dual_state_global@P6AXPB_W00II@Z@__crt_state_management@@QAEAAP6AXPB_W00II@ZXZ 0043738c f i libucrt:invalid_parameter.obj
 0001:0003638f       ___acrt_call_reportfault   0043738f f   libucrt:invalid_parameter.obj
 0001:000364ca       ___acrt_initialize_invalid_parameter_handler 004374ca f   libucrt:invalid_parameter.obj
 0001:000364de       __get_invalid_parameter_handler 004374de f   libucrt:invalid_parameter.obj
 0001:000364f1       __get_thread_local_invalid_parameter_handler 004374f1 f   libucrt:invalid_parameter.obj
 0001:00036502       __invalid_parameter        00437502 f   libucrt:invalid_parameter.obj
 0001:0003657d       __invalid_parameter_noinfo 0043757d f   libucrt:invalid_parameter.obj
 0001:0003658d       __invalid_parameter_noinfo_noreturn 0043758d f   libucrt:invalid_parameter.obj
 0001:000365aa       __invoke_watson            004375aa f   libucrt:invalid_parameter.obj
 0001:000365dd       __set_invalid_parameter_handler 004375dd f   libucrt:invalid_parameter.obj
 0001:0003660d       __set_thread_local_invalid_parameter_handler 0043760d f   libucrt:invalid_parameter.obj
 0001:0003662a       ??$?RE@__crt_internal_free_policy@@QBEXQBE@Z 0043762a f i libucrt:input.obj
 0001:0003663c       ??$?RV<lambda_948e0c831b1eafdf53315a00da3ad7eb>@@AAV<lambda_d82aded7e80d0a2836af81596bef263e>@@V<lambda_9cb36f98846f17dfe48cc7d4c6a6fede>@@@?$__crt_seh_guarded_call@H@@QAEH$$QAV<lambda_948e0c831b1eafdf53315a00da3ad7eb>@@AAV<lambda_d82aded7e80d0a2836af81596bef263e>@@$$QAV<lambda_9cb36f98846f17dfe48cc7d4c6a6fede>@@@Z 0043763c f i libucrt:input.obj
 0001:0003668d       ??$?RV<lambda_b2dcf338b0e219a5074585f260684782>@@AAV<lambda_6fdb08bd0ff691e43d1ecc2572ab5652>@@V<lambda_fd2d199f52d43ed278b48825f4913de8>@@@?$__crt_seh_guarded_call@H@@QAEH$$QAV<lambda_b2dcf338b0e219a5074585f260684782>@@AAV<lambda_6fdb08bd0ff691e43d1ecc2572ab5652>@@$$QAV<lambda_fd2d199f52d43ed278b48825f4913de8>@@@Z 0043768d f i libucrt:input.obj
 0001:000366de       ??$__acrt_lock_stream_and_call@V<lambda_6fdb08bd0ff691e43d1ecc2572ab5652>@@@@YAHQAU_iobuf@@$$QAV<lambda_6fdb08bd0ff691e43d1ecc2572ab5652>@@@Z 004376de f i libucrt:input.obj
 0001:00036706       ??$__acrt_lock_stream_and_call@V<lambda_d82aded7e80d0a2836af81596bef263e>@@@@YAHQAU_iobuf@@$$QAV<lambda_d82aded7e80d0a2836af81596bef263e>@@@Z 00437706 f i libucrt:input.obj
 0001:0003672e       ??$assemble_floating_point_ind@M@__crt_strtox@@YAXAAM@Z 0043772e f i libucrt:input.obj
 0001:0003673e       ??$assemble_floating_point_ind@N@__crt_strtox@@YAXAAN@Z 0043773e f i libucrt:input.obj
 0001:0003676d       ??$assemble_floating_point_infinity@M@__crt_strtox@@YAX_NAAM@Z 0043776d f i libucrt:input.obj
 0001:0003678a       ??$assemble_floating_point_infinity@N@__crt_strtox@@YAX_NAAN@Z 0043778a f i libucrt:input.obj
 0001:000367c9       ??$assemble_floating_point_qnan@M@__crt_strtox@@YAX_NAAM@Z 004377c9 f i libucrt:input.obj
 0001:000367e6       ??$assemble_floating_point_qnan@N@__crt_strtox@@YAX_NAAN@Z 004377e6 f i libucrt:input.obj
 0001:00036825       ??$assemble_floating_point_snan@M@__crt_strtox@@YAX_NAAM@Z 00437825 f i libucrt:input.obj
 0001:00036842       ??$assemble_floating_point_snan@N@__crt_strtox@@YAX_NAAN@Z 00437842 f i libucrt:input.obj
 0001:00036886       ??$assemble_floating_point_value_t@M@__crt_strtox@@YA?AW4SLD_STATUS@@_NH_KAAM@Z 00437886 f i libucrt:input.obj
 0001:000368b6       ??$assemble_floating_point_value_t@N@__crt_strtox@@YA?AW4SLD_STATUS@@_NH_KAAN@Z 004378b6 f i libucrt:input.obj
 0001:00036915       ??$assemble_floating_point_zero@M@__crt_strtox@@YAX_NAAM@Z 00437915 f i libucrt:input.obj
 0001:0003692c       ??$assemble_floating_point_zero@N@__crt_strtox@@YAX_NAAN@Z 0043792c f i libucrt:input.obj
 0001:00036b8b       ??$convert_decimal_string_to_floating_type@M@__crt_strtox@@YA?AW4SLD_STATUS@@ABUfloating_point_string@0@AAM@Z 00437b8b f i libucrt:input.obj
 0001:00036bae       ??$convert_decimal_string_to_floating_type@N@__crt_strtox@@YA?AW4SLD_STATUS@@ABUfloating_point_string@0@AAN@Z 00437bae f i libucrt:input.obj
 0001:00036bd1       ??$convert_hexadecimal_string_to_floating_type@M@__crt_strtox@@YA?AW4SLD_STATUS@@ABUfloating_point_string@0@AAM@Z 00437bd1 f i libucrt:input.obj
 0001:00036bf4       ??$convert_hexadecimal_string_to_floating_type@N@__crt_strtox@@YA?AW4SLD_STATUS@@ABUfloating_point_string@0@AAN@Z 00437bf4 f i libucrt:input.obj
 0001:00036c17       ??$fill_buffer@D@?$input_processor@DV?$stream_input_adapter@D@__crt_stdio_input@@@__crt_stdio_input@@CAXQADII@Z 00437c17 f i libucrt:input.obj
 0001:00036c18       ??$fill_buffer@D@?$input_processor@DV?$string_input_adapter@D@__crt_stdio_input@@@__crt_stdio_input@@CAXQADII@Z 00437c18 f i libucrt:input.obj
 0001:00036c19       ??$fill_buffer@D@?$input_processor@_WV?$stream_input_adapter@_W@__crt_stdio_input@@@__crt_stdio_input@@CAXQADII@Z 00437c19 f i libucrt:input.obj
 0001:00036c1a       ??$fill_buffer@D@?$input_processor@_WV?$string_input_adapter@_W@__crt_stdio_input@@@__crt_stdio_input@@CAXQADII@Z 00437c1a f i libucrt:input.obj
 0001:00036c1b       ??$fill_buffer@_W@?$input_processor@DV?$stream_input_adapter@D@__crt_stdio_input@@@__crt_stdio_input@@CAXQA_WII@Z 00437c1b f i libucrt:input.obj
 0001:00036c1c       ??$fill_buffer@_W@?$input_processor@DV?$string_input_adapter@D@__crt_stdio_input@@@__crt_stdio_input@@CAXQA_WII@Z 00437c1c f i libucrt:input.obj
 0001:00036c1d       ??$fill_buffer@_W@?$input_processor@_WV?$stream_input_adapter@_W@__crt_stdio_input@@@__crt_stdio_input@@CAXQA_WII@Z 00437c1d f i libucrt:input.obj
 0001:00036c1e       ??$fill_buffer@_W@?$input_processor@_WV?$string_input_adapter@_W@__crt_stdio_input@@@__crt_stdio_input@@CAXQA_WII@Z 00437c1e f i libucrt:input.obj
 0001:00036c1f       ??$getc_nolock@PAU_iobuf@@@?$__crt_char_traits@D@@SAH$$QAPAU_iobuf@@@Z 00437c1f f i libucrt:input.obj
 0001:00036c31       ??$getc_nolock@PAU_iobuf@@@?$__crt_char_traits@_W@@SAG$$QAPAU_iobuf@@@Z 00437c31 f i libucrt:input.obj
 0001:00036c43       ??$is_overflow_condition@_K@__crt_strtox@@YA_NI_K@Z 00437c43 f i libucrt:input.obj
 0001:00036c86       ??$istspace@ABE@?$__crt_char_traits@D@@SAHABE@Z 00437c86 f i libucrt:input.obj
 0001:00036c9a       ??$istspace@AB_W@?$__crt_char_traits@_W@@SAHAB_W@Z 00437c9a f i libucrt:input.obj
 0001:00036cb1       ??$make_input_adapter_character_source@V?$stream_input_adapter@D@__crt_stdio_input@@@__crt_strtox@@YA?AV?$input_adapter_character_source@V?$stream_input_adapter@D@__crt_stdio_input@@@0@QAV?$stream_input_adapter@D@__crt_stdio_input@@_KQA_N@Z 00437cb1 f i libucrt:input.obj
 0001:00036ccf       ??$make_input_adapter_character_source@V?$stream_input_adapter@_W@__crt_stdio_input@@@__crt_strtox@@YA?AV?$input_adapter_character_source@V?$stream_input_adapter@_W@__crt_stdio_input@@@0@QAV?$stream_input_adapter@_W@__crt_stdio_input@@_KQA_N@Z 00437ccf f i libucrt:input.obj
 0001:00036ced       ??$make_input_adapter_character_source@V?$string_input_adapter@D@__crt_stdio_input@@@__crt_strtox@@YA?AV?$input_adapter_character_source@V?$string_input_adapter@D@__crt_stdio_input@@@0@QAV?$string_input_adapter@D@__crt_stdio_input@@_KQA_N@Z 00437ced f i libucrt:input.obj
 0001:00036d0b       ??$make_input_adapter_character_source@V?$string_input_adapter@_W@__crt_stdio_input@@@__crt_strtox@@YA?AV?$input_adapter_character_source@V?$string_input_adapter@_W@__crt_stdio_input@@@0@QAV?$string_input_adapter@_W@__crt_stdio_input@@_KQA_N@Z 00437d0b f i libucrt:input.obj
 0001:00036d29       ??$parse_floating_point@V?$input_adapter_character_source@V?$stream_input_adapter@D@__crt_stdio_input@@@__crt_strtox@@M@__crt_strtox@@YA?AW4SLD_STATUS@@QAU__crt_locale_pointers@@V?$input_adapter_character_source@V?$stream_input_adapter@D@__crt_stdio_input@@@0@QAM@Z 00437d29 f i libucrt:input.obj
 0001:00036da4       ??$parse_floating_point@V?$input_adapter_character_source@V?$stream_input_adapter@D@__crt_stdio_input@@@__crt_strtox@@N@__crt_strtox@@YA?AW4SLD_STATUS@@QAU__crt_locale_pointers@@V?$input_adapter_character_source@V?$stream_input_adapter@D@__crt_stdio_input@@@0@QAN@Z 00437da4 f i libucrt:input.obj
 0001:00036e1f       ??$parse_floating_point@V?$input_adapter_character_source@V?$stream_input_adapter@_W@__crt_stdio_input@@@__crt_strtox@@M@__crt_strtox@@YA?AW4SLD_STATUS@@QAU__crt_locale_pointers@@V?$input_adapter_character_source@V?$stream_input_adapter@_W@__crt_stdio_input@@@0@QAM@Z 00437e1f f i libucrt:input.obj
 0001:00036e9a       ??$parse_floating_point@V?$input_adapter_character_source@V?$stream_input_adapter@_W@__crt_stdio_input@@@__crt_strtox@@N@__crt_strtox@@YA?AW4SLD_STATUS@@QAU__crt_locale_pointers@@V?$input_adapter_character_source@V?$stream_input_adapter@_W@__crt_stdio_input@@@0@QAN@Z 00437e9a f i libucrt:input.obj
 0001:00036f15       ??$parse_floating_point@V?$input_adapter_character_source@V?$string_input_adapter@D@__crt_stdio_input@@@__crt_strtox@@M@__crt_strtox@@YA?AW4SLD_STATUS@@QAU__crt_locale_pointers@@V?$input_adapter_character_source@V?$string_input_adapter@D@__crt_stdio_input@@@0@QAM@Z 00437f15 f i libucrt:input.obj
 0001:00036f90       ??$parse_floating_point@V?$input_adapter_character_source@V?$string_input_adapter@D@__crt_stdio_input@@@__crt_strtox@@N@__crt_strtox@@YA?AW4SLD_STATUS@@QAU__crt_locale_pointers@@V?$input_adapter_character_source@V?$string_input_adapter@D@__crt_stdio_input@@@0@QAN@Z 00437f90 f i libucrt:input.obj
 0001:0003700b       ??$parse_floating_point@V?$input_adapter_character_source@V?$string_input_adapter@_W@__crt_stdio_input@@@__crt_strtox@@M@__crt_strtox@@YA?AW4SLD_STATUS@@QAU__crt_locale_pointers@@V?$input_adapter_character_source@V?$string_input_adapter@_W@__crt_stdio_input@@@0@QAM@Z 0043800b f i libucrt:input.obj
 0001:00037086       ??$parse_floating_point@V?$input_adapter_character_source@V?$string_input_adapter@_W@__crt_stdio_input@@@__crt_strtox@@N@__crt_strtox@@YA?AW4SLD_STATUS@@QAU__crt_locale_pointers@@V?$input_adapter_character_source@V?$string_input_adapter@_W@__crt_stdio_input@@@0@QAN@Z 00438086 f i libucrt:input.obj
 0001:00037101       ??$parse_floating_point_from_source@V?$input_adapter_character_source@V?$stream_input_adapter@D@__crt_stdio_input@@@__crt_strtox@@@__crt_strtox@@YA?AW4floating_point_parse_result@0@QAU__crt_locale_pointers@@AAV?$input_adapter_character_source@V?$stream_input_adapter@D@__crt_stdio_input@@@0@AAUfloating_point_string@0@@Z 00438101 f i libucrt:input.obj
 0001:00037568       ??$parse_floating_point_from_source@V?$input_adapter_character_source@V?$stream_input_adapter@_W@__crt_stdio_input@@@__crt_strtox@@@__crt_strtox@@YA?AW4floating_point_parse_result@0@QAU__crt_locale_pointers@@AAV?$input_adapter_character_source@V?$stream_input_adapter@_W@__crt_stdio_input@@@0@AAUfloating_point_string@0@@Z 00438568 f i libucrt:input.obj
 0001:00038396       ??$parse_floating_point_from_source@V?$input_adapter_character_source@V?$string_input_adapter@D@__crt_stdio_input@@@__crt_strtox@@@__crt_strtox@@YA?AW4floating_point_parse_result@0@QAU__crt_locale_pointers@@AAV?$input_adapter_character_source@V?$string_input_adapter@D@__crt_stdio_input@@@0@AAUfloating_point_string@0@@Z 00439396 f i libucrt:input.obj
 0001:000387fd       ??$parse_floating_point_from_source@V?$input_adapter_character_source@V?$string_input_adapter@_W@__crt_stdio_input@@@__crt_strtox@@@__crt_strtox@@YA?AW4floating_point_parse_result@0@QAU__crt_locale_pointers@@AAV?$input_adapter_character_source@V?$string_input_adapter@_W@__crt_stdio_input@@@0@AAUfloating_point_string@0@@Z 004397fd f i libucrt:input.obj
 0001:0003962b       ??$parse_floating_point_possible_infinity@DV?$input_adapter_character_source@V?$stream_input_adapter@D@__crt_stdio_input@@@__crt_strtox@@_K@__crt_strtox@@YA?AW4floating_point_parse_result@0@AADAAV?$input_adapter_character_source@V?$stream_input_adapter@D@__crt_stdio_input@@@0@_K@Z 0043a62b f i libucrt:input.obj
 0001:000396ec       ??$parse_floating_point_possible_infinity@DV?$input_adapter_character_source@V?$string_input_adapter@D@__crt_stdio_input@@@__crt_strtox@@_K@__crt_strtox@@YA?AW4floating_point_parse_result@0@AADAAV?$input_adapter_character_source@V?$string_input_adapter@D@__crt_stdio_input@@@0@_K@Z 0043a6ec f i libucrt:input.obj
 0001:000397ad       ??$parse_floating_point_possible_infinity@_WV?$input_adapter_character_source@V?$stream_input_adapter@_W@__crt_stdio_input@@@__crt_strtox@@_K@__crt_strtox@@YA?AW4floating_point_parse_result@0@AA_WAAV?$input_adapter_character_source@V?$stream_input_adapter@_W@__crt_stdio_input@@@0@_K@Z 0043a7ad f i libucrt:input.obj
 0001:0003987c       ??$parse_floating_point_possible_infinity@_WV?$input_adapter_character_source@V?$string_input_adapter@_W@__crt_stdio_input@@@__crt_strtox@@_K@__crt_strtox@@YA?AW4floating_point_parse_result@0@AA_WAAV?$input_adapter_character_source@V?$string_input_adapter@_W@__crt_stdio_input@@@0@_K@Z 0043a87c f i libucrt:input.obj
 0001:0003994b       ??$parse_floating_point_possible_nan@DV?$input_adapter_character_source@V?$stream_input_adapter@D@__crt_stdio_input@@@__crt_strtox@@_K@__crt_strtox@@YA?AW4floating_point_parse_result@0@AADAAV?$input_adapter_character_source@V?$stream_input_adapter@D@__crt_stdio_input@@@0@_K@Z 0043a94b f i libucrt:input.obj
 0001:00039a5d       ??$parse_floating_point_possible_nan@DV?$input_adapter_character_source@V?$string_input_adapter@D@__crt_stdio_input@@@__crt_strtox@@_K@__crt_strtox@@YA?AW4floating_point_parse_result@0@AADAAV?$input_adapter_character_source@V?$string_input_adapter@D@__crt_stdio_input@@@0@_K@Z 0043aa5d f i libucrt:input.obj
 0001:00039b6f       ??$parse_floating_point_possible_nan@_WV?$input_adapter_character_source@V?$stream_input_adapter@_W@__crt_stdio_input@@@__crt_strtox@@_K@__crt_strtox@@YA?AW4floating_point_parse_result@0@AA_WAAV?$input_adapter_character_source@V?$stream_input_adapter@_W@__crt_stdio_input@@@0@_K@Z 0043ab6f f i libucrt:input.obj
 0001:00039c9b       ??$parse_floating_point_possible_nan@_WV?$input_adapter_character_source@V?$string_input_adapter@_W@__crt_stdio_input@@@__crt_strtox@@_K@__crt_strtox@@YA?AW4floating_point_parse_result@0@AA_WAAV?$input_adapter_character_source@V?$string_input_adapter@_W@__crt_stdio_input@@@0@_K@Z 0043ac9b f i libucrt:input.obj
 0001:00039dc7       ??$parse_floating_point_possible_nan_is_ind@DV?$input_adapter_character_source@V?$stream_input_adapter@D@__crt_stdio_input@@@__crt_strtox@@@__crt_strtox@@YA_NAADAAV?$input_adapter_character_source@V?$stream_input_adapter@D@__crt_stdio_input@@@0@@Z 0043adc7 f i libucrt:input.obj
 0001:00039e01       ??$parse_floating_point_possible_nan_is_ind@DV?$input_adapter_character_source@V?$string_input_adapter@D@__crt_stdio_input@@@__crt_strtox@@@__crt_strtox@@YA_NAADAAV?$input_adapter_character_source@V?$string_input_adapter@D@__crt_stdio_input@@@0@@Z 0043ae01 f i libucrt:input.obj
 0001:00039e3b       ??$parse_floating_point_possible_nan_is_ind@_WV?$input_adapter_character_source@V?$stream_input_adapter@_W@__crt_stdio_input@@@__crt_strtox@@@__crt_strtox@@YA_NAA_WAAV?$input_adapter_character_source@V?$stream_input_adapter@_W@__crt_stdio_input@@@0@@Z 0043ae3b f i libucrt:input.obj
 0001:00039e7b       ??$parse_floating_point_possible_nan_is_ind@_WV?$input_adapter_character_source@V?$string_input_adapter@_W@__crt_stdio_input@@@__crt_strtox@@@__crt_strtox@@YA_NAA_WAAV?$input_adapter_character_source@V?$string_input_adapter@_W@__crt_stdio_input@@@0@@Z 0043ae7b f i libucrt:input.obj
 0001:00039ebb       ??$parse_floating_point_possible_nan_is_snan@DV?$input_adapter_character_source@V?$stream_input_adapter@D@__crt_stdio_input@@@__crt_strtox@@@__crt_strtox@@YA_NAADAAV?$input_adapter_character_source@V?$stream_input_adapter@D@__crt_stdio_input@@@0@@Z 0043aebb f i libucrt:input.obj
 0001:00039ef5       ??$parse_floating_point_possible_nan_is_snan@DV?$input_adapter_character_source@V?$string_input_adapter@D@__crt_stdio_input@@@__crt_strtox@@@__crt_strtox@@YA_NAADAAV?$input_adapter_character_source@V?$string_input_adapter@D@__crt_stdio_input@@@0@@Z 0043aef5 f i libucrt:input.obj
 0001:00039f2f       ??$parse_floating_point_possible_nan_is_snan@_WV?$input_adapter_character_source@V?$stream_input_adapter@_W@__crt_stdio_input@@@__crt_strtox@@@__crt_strtox@@YA_NAA_WAAV?$input_adapter_character_source@V?$stream_input_adapter@_W@__crt_stdio_input@@@0@@Z 0043af2f f i libucrt:input.obj
 0001:00039f6f       ??$parse_floating_point_possible_nan_is_snan@_WV?$input_adapter_character_source@V?$string_input_adapter@_W@__crt_stdio_input@@@__crt_strtox@@@__crt_strtox@@YA_NAA_WAAV?$input_adapter_character_source@V?$string_input_adapter@_W@__crt_stdio_input@@@0@@Z 0043af6f f i libucrt:input.obj
 0001:00039faf       ??$parse_floating_point_write_result@M@__crt_strtox@@YA?AW4SLD_STATUS@@W4floating_point_parse_result@0@ABUfloating_point_string@0@QAM@Z 0043afaf f i libucrt:input.obj
 0001:0003a0bf       ??$parse_floating_point_write_result@N@__crt_strtox@@YA?AW4SLD_STATUS@@W4floating_point_parse_result@0@ABUfloating_point_string@0@QAN@Z 0043b0bf f i libucrt:input.obj
 0001:0003a1c3       ??$parse_integer@_KV?$input_adapter_character_source@V?$stream_input_adapter@D@__crt_stdio_input@@@__crt_strtox@@@__crt_strtox@@YA_KQAU__crt_locale_pointers@@V?$input_adapter_character_source@V?$stream_input_adapter@D@__crt_stdio_input@@@0@H_N@Z 0043b1c3 f i libucrt:input.obj
 0001:0003a474       ??$parse_integer@_KV?$input_adapter_character_source@V?$stream_input_adapter@_W@__crt_stdio_input@@@__crt_strtox@@@__crt_strtox@@YA_KQAU__crt_locale_pointers@@V?$input_adapter_character_source@V?$stream_input_adapter@_W@__crt_stdio_input@@@0@H_N@Z 0043b474 f i libucrt:input.obj
 0001:0003aa73       ??$parse_integer@_KV?$input_adapter_character_source@V?$string_input_adapter@D@__crt_stdio_input@@@__crt_strtox@@@__crt_strtox@@YA_KQAU__crt_locale_pointers@@V?$input_adapter_character_source@V?$string_input_adapter@D@__crt_stdio_input@@@0@H_N@Z 0043ba73 f i libucrt:input.obj
 0001:0003ad24       ??$parse_integer@_KV?$input_adapter_character_source@V?$string_input_adapter@_W@__crt_stdio_input@@@__crt_strtox@@@__crt_strtox@@YA_KQAU__crt_locale_pointers@@V?$input_adapter_character_source@V?$string_input_adapter@_W@__crt_stdio_input@@@0@H_N@Z 0043bd24 f i libucrt:input.obj
 0001:0003b323       ??$parse_next_characters_from_source@DV?$input_adapter_character_source@V?$stream_input_adapter@D@__crt_stdio_input@@@__crt_strtox@@@__crt_strtox@@YA_NQBD0IAADAAV?$input_adapter_character_source@V?$stream_input_adapter@D@__crt_stdio_input@@@0@@Z 0043c323 f i libucrt:input.obj
 0001:0003b367       ??$parse_next_characters_from_source@DV?$input_adapter_character_source@V?$string_input_adapter@D@__crt_stdio_input@@@__crt_strtox@@@__crt_strtox@@YA_NQBD0IAADAAV?$input_adapter_character_source@V?$string_input_adapter@D@__crt_stdio_input@@@0@@Z 0043c367 f i libucrt:input.obj
 0001:0003b3ab       ??$parse_next_characters_from_source@_WV?$input_adapter_character_source@V?$stream_input_adapter@_W@__crt_stdio_input@@@__crt_strtox@@@__crt_strtox@@YA_NQB_W0IAA_WAAV?$input_adapter_character_source@V?$stream_input_adapter@_W@__crt_stdio_input@@@0@@Z 0043c3ab f i libucrt:input.obj
 0001:0003b3f5       ??$parse_next_characters_from_source@_WV?$input_adapter_character_source@V?$string_input_adapter@_W@__crt_stdio_input@@@__crt_strtox@@@__crt_strtox@@YA_NQB_W0IAA_WAAV?$input_adapter_character_source@V?$string_input_adapter@_W@__crt_stdio_input@@@0@@Z 0043c3f5 f i libucrt:input.obj
 0001:0003b43f       ??$process_floating_point_specifier_t@M@?$input_processor@DV?$stream_input_adapter@D@__crt_stdio_input@@@__crt_stdio_input@@AAE_NXZ 0043c43f f i libucrt:input.obj
 0001:0003b4a7       ??$process_floating_point_specifier_t@M@?$input_processor@DV?$string_input_adapter@D@__crt_stdio_input@@@__crt_stdio_input@@AAE_NXZ 0043c4a7 f i libucrt:input.obj
 0001:0003b50f       ??$process_floating_point_specifier_t@M@?$input_processor@_WV?$stream_input_adapter@_W@__crt_stdio_input@@@__crt_stdio_input@@AAE_NXZ 0043c50f f i libucrt:input.obj
 0001:0003b577       ??$process_floating_point_specifier_t@M@?$input_processor@_WV?$string_input_adapter@_W@__crt_stdio_input@@@__crt_stdio_input@@AAE_NXZ 0043c577 f i libucrt:input.obj
 0001:0003b5df       ??$process_floating_point_specifier_t@N@?$input_processor@DV?$stream_input_adapter@D@__crt_stdio_input@@@__crt_stdio_input@@AAE_NXZ 0043c5df f i libucrt:input.obj
 0001:0003b647       ??$process_floating_point_specifier_t@N@?$input_processor@DV?$string_input_adapter@D@__crt_stdio_input@@@__crt_stdio_input@@AAE_NXZ 0043c647 f i libucrt:input.obj
 0001:0003b6af       ??$process_floating_point_specifier_t@N@?$input_processor@_WV?$stream_input_adapter@_W@__crt_stdio_input@@@__crt_stdio_input@@AAE_NXZ 0043c6af f i libucrt:input.obj
 0001:0003b717       ??$process_floating_point_specifier_t@N@?$input_processor@_WV?$string_input_adapter@_W@__crt_stdio_input@@@__crt_stdio_input@@AAE_NXZ 0043c717 f i libucrt:input.obj
 0001:0003b77f       ??$process_string_specifier_tchar@D@?$input_processor@DV?$stream_input_adapter@D@__crt_stdio_input@@@__crt_stdio_input@@AAE_NW4conversion_mode@1@D@Z 0043c77f f i libucrt:input.obj
 0001:0003b8f3       ??$process_string_specifier_tchar@D@?$input_processor@DV?$string_input_adapter@D@__crt_stdio_input@@@__crt_stdio_input@@AAE_NW4conversion_mode@1@D@Z 0043c8f3 f i libucrt:input.obj
 0001:0003ba55       ??$process_string_specifier_tchar@D@?$input_processor@_WV?$stream_input_adapter@_W@__crt_stdio_input@@@__crt_stdio_input@@AAE_NW4conversion_mode@1@D@Z 0043ca55 f i libucrt:input.obj
 0001:0003bbc0       ??$process_string_specifier_tchar@D@?$input_processor@_WV?$string_input_adapter@_W@__crt_stdio_input@@@__crt_stdio_input@@AAE_NW4conversion_mode@1@D@Z 0043cbc0 f i libucrt:input.obj
 0001:0003bd2b       ??$process_string_specifier_tchar@_W@?$input_processor@DV?$stream_input_adapter@D@__crt_stdio_input@@@__crt_stdio_input@@AAE_NW4conversion_mode@1@_W@Z 0043cd2b f i libucrt:input.obj
 0001:0003bea9       ??$process_string_specifier_tchar@_W@?$input_processor@DV?$string_input_adapter@D@__crt_stdio_input@@@__crt_stdio_input@@AAE_NW4conversion_mode@1@_W@Z 0043cea9 f i libucrt:input.obj
 0001:0003c015       ??$process_string_specifier_tchar@_W@?$input_processor@_WV?$stream_input_adapter@_W@__crt_stdio_input@@@__crt_stdio_input@@AAE_NW4conversion_mode@1@_W@Z 0043d015 f i libucrt:input.obj
 0001:0003c181       ??$process_string_specifier_tchar@_W@?$input_processor@_WV?$string_input_adapter@_W@__crt_stdio_input@@@__crt_stdio_input@@AAE_NW4conversion_mode@1@_W@Z 0043d181 f i libucrt:input.obj
 0001:0003c2ed       ??$reset_buffer@D@?$input_processor@DV?$stream_input_adapter@D@__crt_stdio_input@@@__crt_stdio_input@@CAXQADI@Z 0043d2ed f i libucrt:input.obj
 0001:0003c300       ??$reset_buffer@D@?$input_processor@DV?$string_input_adapter@D@__crt_stdio_input@@@__crt_stdio_input@@CAXQADI@Z 0043d300 f i libucrt:input.obj
 0001:0003c313       ??$reset_buffer@D@?$input_processor@_WV?$stream_input_adapter@_W@__crt_stdio_input@@@__crt_stdio_input@@CAXQADI@Z 0043d313 f i libucrt:input.obj
 0001:0003c326       ??$reset_buffer@D@?$input_processor@_WV?$string_input_adapter@_W@__crt_stdio_input@@@__crt_stdio_input@@CAXQADI@Z 0043d326 f i libucrt:input.obj
 0001:0003c339       ??$reset_buffer@_W@?$input_processor@DV?$stream_input_adapter@D@__crt_stdio_input@@@__crt_stdio_input@@CAXQA_WI@Z 0043d339 f i libucrt:input.obj
 0001:0003c34e       ??$reset_buffer@_W@?$input_processor@DV?$string_input_adapter@D@__crt_stdio_input@@@__crt_stdio_input@@CAXQA_WI@Z 0043d34e f i libucrt:input.obj
 0001:0003c363       ??$reset_buffer@_W@?$input_processor@_WV?$stream_input_adapter@_W@__crt_stdio_input@@@__crt_stdio_input@@CAXQA_WI@Z 0043d363 f i libucrt:input.obj
 0001:0003c378       ??$reset_buffer@_W@?$input_processor@_WV?$string_input_adapter@_W@__crt_stdio_input@@@__crt_stdio_input@@CAXQA_WI@Z 0043d378 f i libucrt:input.obj
 0001:0003c38d       ??$skip_whitespace@Vstream_input_adapter@__crt_stdio_input@@D@__crt_stdio_input@@YAHAAV?$stream_input_adapter@D@0@QAU__crt_locale_pointers@@@Z 0043d38d f i libucrt:input.obj
 0001:0003c3c4       ??$skip_whitespace@Vstream_input_adapter@__crt_stdio_input@@_W@__crt_stdio_input@@YAGAAV?$stream_input_adapter@_W@0@QAU__crt_locale_pointers@@@Z 0043d3c4 f i libucrt:input.obj
 0001:0003c3f3       ??$skip_whitespace@Vstring_input_adapter@__crt_stdio_input@@D@__crt_stdio_input@@YAHAAV?$string_input_adapter@D@0@QAU__crt_locale_pointers@@@Z 0043d3f3 f i libucrt:input.obj
 0001:0003c422       ??$skip_whitespace@Vstring_input_adapter@__crt_stdio_input@@_W@__crt_stdio_input@@YAGAAV?$string_input_adapter@_W@0@QAU__crt_locale_pointers@@@Z 0043d422 f i libucrt:input.obj
 0001:0003c451       ??$tcslen@ABQBD@?$__crt_char_traits@D@@SAIABQBD@Z 0043d451 f i libucrt:input.obj
 0001:0003c469       ??$tcslen@ABQB_W@?$__crt_char_traits@_W@@SAIABQB_W@Z 0043d469 f i libucrt:input.obj
 0001:0003c487       ??$tcstoull@AAPB_WPAPA_WH@?$__crt_char_traits@_W@@SA_KAAPB_W$$QAPAPA_W$$QAH@Z 0043d487 f i libucrt:input.obj
 0001:0003c4a5       ??$tcstoull@PBDPAPADH@?$__crt_char_traits@D@@SA_K$$QAPBD$$QAPAPAD$$QAH@Z 0043d4a5 f i libucrt:input.obj
 0001:0003c4c3       ??$ungettc_nolock@ABGPAU_iobuf@@@?$__crt_char_traits@_W@@SAGABG$$QAPAU_iobuf@@@Z 0043d4c3 f i libucrt:input.obj
 0001:0003c4dd       ??$ungettc_nolock@ABHPAU_iobuf@@@?$__crt_char_traits@D@@SAHABH$$QAPAU_iobuf@@@Z 0043d4dd f i libucrt:input.obj
 0001:0003c4f5       ??$write_floating_point@M@?$input_processor@DV?$stream_input_adapter@D@__crt_stdio_input@@@__crt_stdio_input@@AAE_NABM@Z 0043d4f5 f i libucrt:input.obj
 0001:0003c52c       ??$write_floating_point@M@?$input_processor@DV?$string_input_adapter@D@__crt_stdio_input@@@__crt_stdio_input@@AAE_NABM@Z 0043d52c f i libucrt:input.obj
 0001:0003c563       ??$write_floating_point@M@?$input_processor@_WV?$stream_input_adapter@_W@__crt_stdio_input@@@__crt_stdio_input@@AAE_NABM@Z 0043d563 f i libucrt:input.obj
 0001:0003c59a       ??$write_floating_point@M@?$input_processor@_WV?$string_input_adapter@_W@__crt_stdio_input@@@__crt_stdio_input@@AAE_NABM@Z 0043d59a f i libucrt:input.obj
 0001:0003c5d1       ??$write_floating_point@N@?$input_processor@DV?$stream_input_adapter@D@__crt_stdio_input@@@__crt_stdio_input@@AAE_NABN@Z 0043d5d1 f i libucrt:input.obj
 0001:0003c60e       ??$write_floating_point@N@?$input_processor@DV?$string_input_adapter@D@__crt_stdio_input@@@__crt_stdio_input@@AAE_NABN@Z 0043d60e f i libucrt:input.obj
 0001:0003c64b       ??$write_floating_point@N@?$input_processor@_WV?$stream_input_adapter@_W@__crt_stdio_input@@@__crt_stdio_input@@AAE_NABN@Z 0043d64b f i libucrt:input.obj
 0001:0003c688       ??$write_floating_point@N@?$input_processor@_WV?$string_input_adapter@_W@__crt_stdio_input@@@__crt_stdio_input@@AAE_NABN@Z 0043d688 f i libucrt:input.obj
 0001:0003c8ad       ??0?$__crt_unique_heap_ptr@EU__crt_internal_free_policy@@@@QAE@QAE@Z 0043d8ad f i libucrt:input.obj
 0001:0003c8bd       ??0?$format_string_parser@D@__crt_stdio_input@@QAE@_KQBE@Z 0043d8bd f i libucrt:input.obj
 0001:0003c907       ??0?$format_string_parser@_W@__crt_stdio_input@@QAE@_KQB_W@Z 0043d907 f i libucrt:input.obj
 0001:0003c945       ??0?$input_adapter_character_source@V?$stream_input_adapter@D@__crt_stdio_input@@@__crt_strtox@@QAE@QAV?$stream_input_adapter@D@__crt_stdio_input@@_KQA_N@Z 0043d945 f i libucrt:input.obj
 0001:0003c976       ??0?$input_adapter_character_source@V?$stream_input_adapter@_W@__crt_stdio_input@@@__crt_strtox@@QAE@QAV?$stream_input_adapter@_W@__crt_stdio_input@@_KQA_N@Z 0043d976 f i libucrt:input.obj
 0001:0003c9a7       ??0?$input_adapter_character_source@V?$string_input_adapter@D@__crt_stdio_input@@@__crt_strtox@@QAE@QAV?$string_input_adapter@D@__crt_stdio_input@@_KQA_N@Z 0043d9a7 f i libucrt:input.obj
 0001:0003c9d8       ??0?$input_adapter_character_source@V?$string_input_adapter@_W@__crt_stdio_input@@@__crt_strtox@@QAE@QAV?$string_input_adapter@_W@__crt_stdio_input@@_KQA_N@Z 0043d9d8 f i libucrt:input.obj
 0001:0003ca09       ??0?$input_processor@DV?$stream_input_adapter@D@__crt_stdio_input@@@__crt_stdio_input@@QAE@ABV?$stream_input_adapter@D@1@_KQBDQAU__crt_locale_pointers@@QAD@Z 0043da09 f i libucrt:input.obj
 0001:0003ca56       ??0?$input_processor@DV?$string_input_adapter@D@__crt_stdio_input@@@__crt_stdio_input@@QAE@ABV?$string_input_adapter@D@1@_KQBDQAU__crt_locale_pointers@@QAD@Z 0043da56 f i libucrt:input.obj
 0001:0003ca9e       ??0?$input_processor@_WV?$stream_input_adapter@_W@__crt_stdio_input@@@__crt_stdio_input@@QAE@ABV?$stream_input_adapter@_W@1@_KQB_WQAU__crt_locale_pointers@@QAD@Z 0043da9e f i libucrt:input.obj
 0001:0003caeb       ??0?$input_processor@_WV?$string_input_adapter@_W@__crt_stdio_input@@@__crt_stdio_input@@QAE@ABV?$string_input_adapter@_W@1@_KQB_WQAU__crt_locale_pointers@@QAD@Z 0043daeb f i libucrt:input.obj
 0001:0003cb33       ??0?$scanset_buffer@E@__crt_stdio_input@@QAE@XZ 0043db33 f i libucrt:input.obj
 0001:0003cb45       ??0?$scanset_buffer@_W@__crt_stdio_input@@QAE@XZ 0043db45 f i libucrt:input.obj
 0001:0003cb4b       ??0?$scanset_storage@$00@__crt_stdio_input@@QAE@XZ 0043db4b f i libucrt:input.obj
 0001:0003cb5d       ??0?$scanset_storage@$01@__crt_stdio_input@@QAE@XZ 0043db5d f i libucrt:input.obj
 0001:0003cb63       ??0?$stream_input_adapter@D@__crt_stdio_input@@QAE@QAU_iobuf@@@Z 0043db63 f i libucrt:input.obj
 0001:0003cb77       ??0?$stream_input_adapter@_W@__crt_stdio_input@@QAE@QAU_iobuf@@@Z 0043db77 f i libucrt:input.obj
 0001:0003cb8b       ??0?$string_input_adapter@D@__crt_stdio_input@@QAE@QBDI@Z 0043db8b f i libucrt:input.obj
 0001:0003cba6       ??0?$string_input_adapter@_W@__crt_stdio_input@@QAE@QB_WI@Z 0043dba6 f i libucrt:input.obj
 0001:0003cbd0       ??0big_integer@__crt_strtox@@QAE@ABU01@@Z 0043dbd0 f i libucrt:input.obj
 0001:0003cc10       ??0big_integer@__crt_strtox@@QAE@XZ 0043dc10 f i libucrt:input.obj
 0001:0003cc19       ??0floating_point_value@__crt_strtox@@QAE@QAM@Z 0043dc19 f i libucrt:input.obj
 0001:0003cc2d       ??0floating_point_value@__crt_strtox@@QAE@QAN@Z 0043dc2d f i libucrt:input.obj
 0001:0003cc41       ??1?$__crt_unique_heap_ptr@EU__crt_internal_free_policy@@@@QAE@XZ 0043dc41 f i libucrt:input.obj
 0001:0003cc53       ??1?$format_string_parser@_W@__crt_stdio_input@@QAE@XZ 0043dc53 f i libucrt:input.obj
 0001:0003cc67       ??1?$input_adapter_character_source@V?$stream_input_adapter@D@__crt_stdio_input@@@__crt_strtox@@QAE@XZ 0043dc67 f i libucrt:input.obj
 0001:0003cc79       ??1?$input_adapter_character_source@V?$stream_input_adapter@_W@__crt_stdio_input@@@__crt_strtox@@QAE@XZ 0043dc79 f i libucrt:input.obj
 0001:0003cc8b       ??1?$input_adapter_character_source@V?$string_input_adapter@D@__crt_stdio_input@@@__crt_strtox@@QAE@XZ 0043dc8b f i libucrt:input.obj
 0001:0003cc9d       ??1?$input_adapter_character_source@V?$string_input_adapter@_W@__crt_stdio_input@@@__crt_strtox@@QAE@XZ 0043dc9d f i libucrt:input.obj
 0001:0003ccaf       ??1?$input_processor@_WV?$stream_input_adapter@_W@__crt_stdio_input@@@__crt_stdio_input@@QAE@XZ 0043dcaf f i libucrt:input.obj
 0001:0003ccc3       ??1?$input_processor@_WV?$string_input_adapter@_W@__crt_stdio_input@@@__crt_stdio_input@@QAE@XZ 0043dcc3 f i libucrt:input.obj
 0001:0003ccd7       ??1?$scanset_buffer@_W@__crt_stdio_input@@QAE@XZ 0043dcd7 f i libucrt:input.obj
 0001:0003cce9       ??1?$scanset_storage@$01@__crt_stdio_input@@QAE@XZ 0043dce9 f i libucrt:input.obj
 0001:0003ccfb       ??4?$__crt_unique_heap_ptr@EU__crt_internal_free_policy@@@@QAEAAV0@$$QAV0@@Z 0043dcfb f i libucrt:input.obj
 0001:0003cd20       ??4big_integer@__crt_strtox@@QAEAAU01@ABU01@@Z 0043dd20 f i libucrt:input.obj
 0001:0003cd51       ??B?$__crt_unique_heap_ptr@EU__crt_internal_free_policy@@@@QBE_NXZ 0043dd51 f i libucrt:input.obj
 0001:0003cd60       ??M__crt_strtox@@YA_NABUbig_integer@0@0@Z 0043dd60 f i libucrt:input.obj
 0001:0003d0dd       ?accumulate_decimal_digits_into_big_integer@__crt_strtox@@YAXQBE0AAUbig_integer@1@@Z 0043e0dd f i libucrt:input.obj
 0001:0003d700       ?add@__crt_strtox@@YA_NAAUbig_integer@1@I@Z 0043e700 f i libucrt:input.obj
 0001:0003d780       ?add_carry@__crt_strtox@@YAIAAIII@Z 0043e780 f i libucrt:input.obj
 0001:0003d7a0       ?add_multiply_carry@__crt_strtox@@YAIAAIIII@Z 0043e7a0 f i libucrt:input.obj
 0001:0003d7bf       ?advance@?$format_string_parser@D@__crt_stdio_input@@QAE_NXZ 0043e7bf f i libucrt:input.obj
 0001:0003d8df       ?advance@?$format_string_parser@_W@__crt_stdio_input@@QAE_NXZ 0043e8df f i libucrt:input.obj
 0001:0003d9e1       ?as_double@floating_point_value@__crt_strtox@@QBEAANXZ 0043e9e1 f i libucrt:input.obj
 0001:0003da06       ?as_float@floating_point_value@__crt_strtox@@QBEAAMXZ 0043ea06 f i libucrt:input.obj
 0001:0003da2b       ?assemble_floating_point_infinity@__crt_strtox@@YAX_NABVfloating_point_value@1@@Z 0043ea2b f i libucrt:input.obj
 0001:0003da65       ?assemble_floating_point_value@__crt_strtox@@YA?AW4SLD_STATUS@@_KH_N1ABVfloating_point_value@1@@Z 0043ea65 f i libucrt:input.obj
 0001:0003ddb1       ?assemble_floating_point_value_from_big_integer@__crt_strtox@@YA?AW4SLD_STATUS@@ABUbig_integer@1@I_N1ABVfloating_point_value@1@@Z 0043edb1 f i libucrt:input.obj
 0001:0003df3f       ?assemble_floating_point_zero@__crt_strtox@@YAX_NABVfloating_point_value@1@@Z 0043ef3f f i libucrt:input.obj
 0001:0003df80       ?bit_scan_reverse@__crt_strtox@@YAIABUbig_integer@1@@Z 0043ef80 f i libucrt:input.obj
 0001:0003dfd0       ?bit_scan_reverse@__crt_strtox@@YAII@Z 0043efd0 f i libucrt:input.obj
 0001:0003dff0       ?bit_scan_reverse@__crt_strtox@@YAI_K@Z 0043eff0 f i libucrt:input.obj
 0001:0003e037       ?characters_read@?$stream_input_adapter@D@__crt_stdio_input@@QBEIXZ 0043f037 f i libucrt:input.obj
 0001:0003e03b       ?characters_read@?$stream_input_adapter@_W@__crt_stdio_input@@QBEIXZ 0043f03b f i libucrt:input.obj
 0001:0003e03f       ?characters_read@?$string_input_adapter@D@__crt_stdio_input@@QBEIXZ 0043f03f f i libucrt:input.obj
 0001:0003e045       ?characters_read@?$string_input_adapter@_W@__crt_stdio_input@@QBEIXZ 0043f045 f i libucrt:input.obj
 0001:0003e04d       ?convert_decimal_string_to_floating_type_common@__crt_strtox@@YA?AW4SLD_STATUS@@ABUfloating_point_string@1@ABVfloating_point_value@1@@Z 0043f04d f i libucrt:input.obj
 0001:0003fe10       ?convert_hexadecimal_string_to_floating_type_common@__crt_strtox@@YA?AW4SLD_STATUS@@ABUfloating_point_string@1@ABVfloating_point_value@1@@Z 00440e10 f i libucrt:input.obj
 0001:0003fec0       ?count_sequential_high_zeroes@__crt_strtox@@YAII@Z 00440ec0 f i libucrt:input.obj
 0001:0003fedb       ?data@?$scanset_storage@$00@__crt_stdio_input@@QBEPAEXZ 00440edb f i libucrt:input.obj
 0001:0003fede       ?data@?$scanset_storage@$01@__crt_stdio_input@@QBEPAEXZ 00440ede f i libucrt:input.obj
 0001:0003ff18       ?denormal_mantissa_mask@floating_point_value@__crt_strtox@@QBE_KXZ 00440f18 f i libucrt:input.obj
 0001:0003ff30       ?divide@__crt_strtox@@YA_KAAUbig_integer@1@ABU21@@Z 00440f30 f i libucrt:input.obj
 0001:000403de       ?error_code@?$format_string_parser@D@__crt_stdio_input@@QBEHXZ 004413de f i libucrt:input.obj
 0001:000403e2       ?error_code@?$format_string_parser@_W@__crt_stdio_input@@QBEHXZ 004413e2 f i libucrt:input.obj
 0001:000403e6       ?exponent_bias@floating_point_value@__crt_strtox@@QBEHXZ 004413e6 f i libucrt:input.obj
 0001:000403f8       ?get@?$__crt_unique_heap_ptr@EU__crt_internal_free_policy@@@@QBEPAEXZ 004413f8 f i libucrt:input.obj
 0001:000403fb       ?get@?$input_adapter_character_source@V?$stream_input_adapter@D@__crt_stdio_input@@@__crt_strtox@@QAEDXZ 004413fb f i libucrt:input.obj
 0001:00040434       ?get@?$input_adapter_character_source@V?$stream_input_adapter@_W@__crt_stdio_input@@@__crt_strtox@@QAE_WXZ 00441434 f i libucrt:input.obj
 0001:0004046d       ?get@?$input_adapter_character_source@V?$string_input_adapter@D@__crt_stdio_input@@@__crt_strtox@@QAEDXZ 0044146d f i libucrt:input.obj
 0001:000404a7       ?get@?$input_adapter_character_source@V?$string_input_adapter@_W@__crt_stdio_input@@@__crt_strtox@@QAE_WXZ 004414a7 f i libucrt:input.obj
 0001:000404e0       ?get@?$stream_input_adapter@D@__crt_stdio_input@@QAEHXZ 004414e0 f i libucrt:input.obj
 0001:000404f7       ?get@?$stream_input_adapter@_W@__crt_stdio_input@@QAEGXZ 004414f7 f i libucrt:input.obj
 0001:00040516       ?get@?$string_input_adapter@D@__crt_stdio_input@@QAEHXZ 00441516 f i libucrt:input.obj
 0001:0004052c       ?get@?$string_input_adapter@_W@__crt_stdio_input@@QAEGXZ 0044152c f i libucrt:input.obj
 0001:00040546       ?invert@?$scanset_buffer@E@__crt_stdio_input@@QAEXXZ 00441546 f i libucrt:input.obj
 0001:00040564       ?invert@?$scanset_buffer@_W@__crt_stdio_input@@QAEXXZ 00441564 f i libucrt:input.obj
 0001:0004058c       ?is_character_allowed_in_string@?$input_processor@DV?$stream_input_adapter@D@__crt_stdio_input@@@__crt_stdio_input@@ABE_NW4conversion_mode@2@H@Z 0044158c f i libucrt:input.obj
 0001:000405d2       ?is_character_allowed_in_string@?$input_processor@DV?$string_input_adapter@D@__crt_stdio_input@@@__crt_stdio_input@@ABE_NW4conversion_mode@2@H@Z 004415d2 f i libucrt:input.obj
 0001:00040618       ?is_character_allowed_in_string@?$input_processor@_WV?$stream_input_adapter@_W@__crt_stdio_input@@@__crt_stdio_input@@ABE_NW4conversion_mode@2@G@Z 00441618 f i libucrt:input.obj
 0001:00040665       ?is_character_allowed_in_string@?$input_processor@_WV?$string_input_adapter@_W@__crt_stdio_input@@@__crt_stdio_input@@ABE_NW4conversion_mode@2@G@Z 00441665 f i libucrt:input.obj
 0001:000406b2       ?is_digit_or_nondigit@__crt_strtox@@YA_NH@Z 004416b2 f i libucrt:input.obj
 0001:000406de       ?is_double@floating_point_value@__crt_strtox@@QBE_NXZ 004416de f i libucrt:input.obj
 0001:000406e2       ?is_length_valid@__crt_stdio_input@@YA_NW4conversion_mode@1@W4length_modifier@1@@Z 004416e2 f i libucrt:input.obj
 0001:000406fc       ?is_space@__crt_strtox@@YA_NDQAU__crt_locale_pointers@@@Z 004416fc f i libucrt:input.obj
 0001:0004071b       ?is_space@__crt_strtox@@YA_N_WPAU__crt_locale_pointers@@@Z 0044171b f i libucrt:input.obj
 0001:00040734       ?is_usable@?$scanset_buffer@E@__crt_stdio_input@@QAE_NXZ 00441734 f i libucrt:input.obj
 0001:0004073c       ?is_usable@?$scanset_buffer@_W@__crt_stdio_input@@QAE_NXZ 0044173c f i libucrt:input.obj
 0001:00040748       ?is_valid@?$__crt_unique_heap_ptr@EU__crt_internal_free_policy@@@@QBE_NXZ 00441748 f i libucrt:input.obj
 0001:00040750       ?kind@?$format_string_parser@D@__crt_stdio_input@@QBE?AW4format_directive_kind@2@XZ 00441750 f i libucrt:input.obj
 0001:00040754       ?kind@?$format_string_parser@_W@__crt_stdio_input@@QBE?AW4format_directive_kind@2@XZ 00441754 f i libucrt:input.obj
 0001:00040758       ?length@?$format_string_parser@D@__crt_stdio_input@@QBEIXZ 00441758 f i libucrt:input.obj
 0001:00040799       ?length@?$format_string_parser@_W@__crt_stdio_input@@QBEIXZ 00441799 f i libucrt:input.obj
 0001:000407da       ?literal_character_lead@?$format_string_parser@D@__crt_stdio_input@@QBEEXZ 004417da f i libucrt:input.obj
 0001:000407de       ?literal_character_lead@?$format_string_parser@_W@__crt_stdio_input@@QBE_WXZ 004417de f i libucrt:input.obj
 0001:000407e3       ?literal_character_trail@?$format_string_parser@D@__crt_stdio_input@@QBEEXZ 004417e3 f i libucrt:input.obj
 0001:000407f0       ?make_big_integer@__crt_strtox@@YA?AUbig_integer@1@_K@Z 004417f0 f i libucrt:input.obj
 0001:00040810       ?mantissa_bits@floating_point_value@__crt_strtox@@QBEHXZ 00441810 f i libucrt:input.obj
 0001:00040820       ?maximum_binary_exponent@floating_point_value@__crt_strtox@@QBEHXZ 00441820 f i libucrt:input.obj
 0001:00040832       ?maximum_signed_value@__crt_strtox@@YA_J_K@Z 00441832 f i libucrt:input.obj
 0001:0004083b       ?minimum_binary_exponent@floating_point_value@__crt_strtox@@QBEHXZ 0044183b f i libucrt:input.obj
 0001:0004084d       ?minimum_signed_value@__crt_strtox@@YA_J_K@Z 0044184d f i libucrt:input.obj
 0001:00040855       ?mode@?$format_string_parser@D@__crt_stdio_input@@QBE?AW4conversion_mode@2@XZ 00441855 f i libucrt:input.obj
 0001:00040859       ?mode@?$format_string_parser@_W@__crt_stdio_input@@QBE?AW4conversion_mode@2@XZ 00441859 f i libucrt:input.obj
 0001:00040860       ?multiply@__crt_strtox@@YA_NAAUbig_integer@1@ABU21@@Z 00441860 f i libucrt:input.obj
 0001:00040c20       ?multiply@__crt_strtox@@YA_NAAUbig_integer@1@I@Z 00441c20 f i libucrt:input.obj
 0001:00040cf0       ?multiply_64_32@__crt_strtox@@YA_K_KI@Z 00441cf0 f i libucrt:input.obj
 0001:00040d10       ?multiply_by_power_of_ten@__crt_strtox@@YA_NAAUbig_integer@1@I@Z 00441d10 f i libucrt:input.obj
 0001:000412b0       ?multiply_core@__crt_strtox@@YAIQAIII@Z 004422b0 f i libucrt:input.obj
 0001:000412ee       ?normal_mantissa_mask@floating_point_value@__crt_strtox@@QBE_KXZ 004422ee f i libucrt:input.obj
 0001:00041305       ?parse_digit@__crt_strtox@@YAID@Z 00442305 f i libucrt:input.obj
 0001:0004133f       ?parse_digit@__crt_strtox@@YAI_W@Z 0044233f f i libucrt:input.obj
 0001:00041523       ?process@?$input_processor@DV?$stream_input_adapter@D@__crt_stdio_input@@@__crt_stdio_input@@QAEHXZ 00442523 f i libucrt:input.obj
 0001:000415af       ?process@?$input_processor@DV?$string_input_adapter@D@__crt_stdio_input@@@__crt_stdio_input@@QAEHXZ 004425af f i libucrt:input.obj
 0001:00041634       ?process@?$input_processor@_WV?$stream_input_adapter@_W@__crt_stdio_input@@@__crt_stdio_input@@QAEHXZ 00442634 f i libucrt:input.obj
 0001:000416c2       ?process@?$input_processor@_WV?$string_input_adapter@_W@__crt_stdio_input@@@__crt_stdio_input@@QAEHXZ 004426c2 f i libucrt:input.obj
 0001:00041750       ?process_character_count_specifier@?$input_processor@DV?$stream_input_adapter@D@__crt_stdio_input@@@__crt_stdio_input@@AAE_NXZ 00442750 f i libucrt:input.obj
 0001:00041766       ?process_character_count_specifier@?$input_processor@DV?$string_input_adapter@D@__crt_stdio_input@@@__crt_stdio_input@@AAE_NXZ 00442766 f i libucrt:input.obj
 0001:00041780       ?process_character_count_specifier@?$input_processor@_WV?$stream_input_adapter@_W@__crt_stdio_input@@@__crt_stdio_input@@AAE_NXZ 00442780 f i libucrt:input.obj
 0001:00041796       ?process_character_count_specifier@?$input_processor@_WV?$string_input_adapter@_W@__crt_stdio_input@@@__crt_stdio_input@@AAE_NXZ 00442796 f i libucrt:input.obj
 0001:000417b2       ?process_conversion_specifier@?$input_processor@DV?$stream_input_adapter@D@__crt_stdio_input@@@__crt_stdio_input@@AAE_NXZ 004427b2 f i libucrt:input.obj
 0001:00041826       ?process_conversion_specifier@?$input_processor@DV?$string_input_adapter@D@__crt_stdio_input@@@__crt_stdio_input@@AAE_NXZ 00442826 f i libucrt:input.obj
 0001:0004189a       ?process_conversion_specifier@?$input_processor@_WV?$stream_input_adapter@_W@__crt_stdio_input@@@__crt_stdio_input@@AAE_NXZ 0044289a f i libucrt:input.obj
 0001:0004190e       ?process_conversion_specifier@?$input_processor@_WV?$string_input_adapter@_W@__crt_stdio_input@@@__crt_stdio_input@@AAE_NXZ 0044290e f i libucrt:input.obj
 0001:00041982       ?process_floating_point_specifier@?$input_processor@DV?$stream_input_adapter@D@__crt_stdio_input@@@__crt_stdio_input@@AAE_NXZ 00442982 f i libucrt:input.obj
 0001:000419b2       ?process_floating_point_specifier@?$input_processor@DV?$string_input_adapter@D@__crt_stdio_input@@@__crt_stdio_input@@AAE_NXZ 004429b2 f i libucrt:input.obj
 0001:000419e2       ?process_floating_point_specifier@?$input_processor@_WV?$stream_input_adapter@_W@__crt_stdio_input@@@__crt_stdio_input@@AAE_NXZ 004429e2 f i libucrt:input.obj
 0001:00041a12       ?process_floating_point_specifier@?$input_processor@_WV?$string_input_adapter@_W@__crt_stdio_input@@@__crt_stdio_input@@AAE_NXZ 00442a12 f i libucrt:input.obj
 0001:00041a42       ?process_integer_specifier@?$input_processor@DV?$stream_input_adapter@D@__crt_stdio_input@@@__crt_stdio_input@@AAE_NI_N@Z 00442a42 f i libucrt:input.obj
 0001:00041aa8       ?process_integer_specifier@?$input_processor@DV?$string_input_adapter@D@__crt_stdio_input@@@__crt_stdio_input@@AAE_NI_N@Z 00442aa8 f i libucrt:input.obj
 0001:00041b0e       ?process_integer_specifier@?$input_processor@_WV?$stream_input_adapter@_W@__crt_stdio_input@@@__crt_stdio_input@@AAE_NI_N@Z 00442b0e f i libucrt:input.obj
 0001:00041b74       ?process_integer_specifier@?$input_processor@_WV?$string_input_adapter@_W@__crt_stdio_input@@@__crt_stdio_input@@AAE_NI_N@Z 00442b74 f i libucrt:input.obj
 0001:00041bda       ?process_literal_character@?$input_processor@DV?$stream_input_adapter@D@__crt_stdio_input@@@__crt_stdio_input@@AAE_NXZ 00442bda f i libucrt:input.obj
 0001:00041c10       ?process_literal_character@?$input_processor@DV?$string_input_adapter@D@__crt_stdio_input@@@__crt_stdio_input@@AAE_NXZ 00442c10 f i libucrt:input.obj
 0001:00041c46       ?process_literal_character@?$input_processor@_WV?$stream_input_adapter@_W@__crt_stdio_input@@@__crt_stdio_input@@AAE_NXZ 00442c46 f i libucrt:input.obj
 0001:00041c7b       ?process_literal_character@?$input_processor@_WV?$string_input_adapter@_W@__crt_stdio_input@@@__crt_stdio_input@@AAE_NXZ 00442c7b f i libucrt:input.obj
 0001:00041cb0       ?process_literal_character_tchar@?$input_processor@DV?$stream_input_adapter@D@__crt_stdio_input@@@__crt_stdio_input@@AAE_ND@Z 00442cb0 f i libucrt:input.obj
 0001:00041d0f       ?process_literal_character_tchar@?$input_processor@DV?$string_input_adapter@D@__crt_stdio_input@@@__crt_stdio_input@@AAE_ND@Z 00442d0f f i libucrt:input.obj
 0001:00041d65       ?process_literal_character_tchar@?$input_processor@_WV?$stream_input_adapter@_W@__crt_stdio_input@@@__crt_stdio_input@@AAE_N_W@Z 00442d65 f i libucrt:input.obj
 0001:00041d6a       ?process_literal_character_tchar@?$input_processor@_WV?$string_input_adapter@_W@__crt_stdio_input@@@__crt_stdio_input@@AAE_N_W@Z 00442d6a f i libucrt:input.obj
 0001:00041d6f       ?process_state@?$input_processor@DV?$stream_input_adapter@D@__crt_stdio_input@@@__crt_stdio_input@@AAE_NXZ 00442d6f f i libucrt:input.obj
 0001:00041da5       ?process_state@?$input_processor@DV?$string_input_adapter@D@__crt_stdio_input@@@__crt_stdio_input@@AAE_NXZ 00442da5 f i libucrt:input.obj
 0001:00041ddb       ?process_state@?$input_processor@_WV?$stream_input_adapter@_W@__crt_stdio_input@@@__crt_stdio_input@@AAE_NXZ 00442ddb f i libucrt:input.obj
 0001:00041e11       ?process_state@?$input_processor@_WV?$string_input_adapter@_W@__crt_stdio_input@@@__crt_stdio_input@@AAE_NXZ 00442e11 f i libucrt:input.obj
 0001:00041e47       ?process_string_specifier@?$input_processor@DV?$stream_input_adapter@D@__crt_stdio_input@@@__crt_stdio_input@@AAE_NW4conversion_mode@2@@Z 00442e47 f i libucrt:input.obj
 0001:00041e8f       ?process_string_specifier@?$input_processor@DV?$string_input_adapter@D@__crt_stdio_input@@@__crt_stdio_input@@AAE_NW4conversion_mode@2@@Z 00442e8f f i libucrt:input.obj
 0001:00041ed7       ?process_string_specifier@?$input_processor@_WV?$stream_input_adapter@_W@__crt_stdio_input@@@__crt_stdio_input@@AAE_NW4conversion_mode@2@@Z 00442ed7 f i libucrt:input.obj
 0001:00041f1f       ?process_string_specifier@?$input_processor@_WV?$string_input_adapter@_W@__crt_stdio_input@@@__crt_stdio_input@@AAE_NW4conversion_mode@2@@Z 00442f1f f i libucrt:input.obj
 0001:00041f67       ?process_whitespace@?$input_processor@DV?$stream_input_adapter@D@__crt_stdio_input@@@__crt_stdio_input@@AAE_NXZ 00442f67 f i libucrt:input.obj
 0001:00041f84       ?process_whitespace@?$input_processor@DV?$string_input_adapter@D@__crt_stdio_input@@@__crt_stdio_input@@AAE_NXZ 00442f84 f i libucrt:input.obj
 0001:00041fa1       ?process_whitespace@?$input_processor@_WV?$stream_input_adapter@_W@__crt_stdio_input@@@__crt_stdio_input@@AAE_NXZ 00442fa1 f i libucrt:input.obj
 0001:00041fc1       ?process_whitespace@?$input_processor@_WV?$string_input_adapter@_W@__crt_stdio_input@@@__crt_stdio_input@@AAE_NXZ 00442fc1 f i libucrt:input.obj
 0001:00041fe1       ?release@?$__crt_unique_heap_ptr@EU__crt_internal_free_policy@@@@QAEXXZ 00442fe1 f i libucrt:input.obj
 0001:00041ff3       ?reset@?$scanset_buffer@E@__crt_stdio_input@@QAEXXZ 00442ff3 f i libucrt:input.obj
 0001:00042005       ?reset@?$scanset_buffer@_W@__crt_stdio_input@@QAEXXZ 00443005 f i libucrt:input.obj
 0001:0004201f       ?reset_token_state@?$format_string_parser@D@__crt_stdio_input@@AAEXXZ 0044301f f i libucrt:input.obj
 0001:0004203b       ?reset_token_state@?$format_string_parser@_W@__crt_stdio_input@@AAEXXZ 0044303b f i libucrt:input.obj
 0001:00042058       ?reset_token_state_for_error@?$format_string_parser@D@__crt_stdio_input@@AAEXH@Z 00443058 f i libucrt:input.obj
 0001:00042082       ?reset_token_state_for_error@?$format_string_parser@_W@__crt_stdio_input@@AAEXH@Z 00443082 f i libucrt:input.obj
 0001:000420ad       ?restore_state@?$input_adapter_character_source@V?$stream_input_adapter@D@__crt_stdio_input@@@__crt_strtox@@QAE_N_K@Z 004430ad f i libucrt:input.obj
 0001:000420d2       ?restore_state@?$input_adapter_character_source@V?$stream_input_adapter@_W@__crt_stdio_input@@@__crt_strtox@@QAE_N_K@Z 004430d2 f i libucrt:input.obj
 0001:000420f7       ?restore_state@?$input_adapter_character_source@V?$string_input_adapter@D@__crt_stdio_input@@@__crt_strtox@@QAE_N_K@Z 004430f7 f i libucrt:input.obj
 0001:0004211c       ?restore_state@?$input_adapter_character_source@V?$string_input_adapter@_W@__crt_stdio_input@@@__crt_strtox@@QAE_N_K@Z 0044311c f i libucrt:input.obj
 0001:00042141       ?right_shift_with_rounding@__crt_strtox@@YA_K_N_KI0@Z 00443141 f i libucrt:input.obj
 0001:00042227       ?save_state@?$input_adapter_character_source@V?$stream_input_adapter@D@__crt_stdio_input@@@__crt_strtox@@QBE_KXZ 00443227 f i libucrt:input.obj
 0001:0004222e       ?save_state@?$input_adapter_character_source@V?$stream_input_adapter@_W@__crt_stdio_input@@@__crt_strtox@@QBE_KXZ 0044322e f i libucrt:input.obj
 0001:00042235       ?save_state@?$input_adapter_character_source@V?$string_input_adapter@D@__crt_stdio_input@@@__crt_strtox@@QBE_KXZ 00443235 f i libucrt:input.obj
 0001:0004223c       ?save_state@?$input_adapter_character_source@V?$string_input_adapter@_W@__crt_stdio_input@@@__crt_strtox@@QBE_KXZ 0044323c f i libucrt:input.obj
 0001:00042243       ?scan_conversion_specifier@?$format_string_parser@D@__crt_stdio_input@@AAE_NXZ 00443243 f i libucrt:input.obj
 0001:000423ae       ?scan_conversion_specifier@?$format_string_parser@_W@__crt_stdio_input@@AAE_NXZ 004433ae f i libucrt:input.obj
 0001:000424fa       ?scan_optional_assignment_suppressor@?$format_string_parser@D@__crt_stdio_input@@AAEXXZ 004434fa f i libucrt:input.obj
 0001:0004250b       ?scan_optional_assignment_suppressor@?$format_string_parser@_W@__crt_stdio_input@@AAEXXZ 0044350b f i libucrt:input.obj
 0001:0004251f       ?scan_optional_field_width@?$format_string_parser@D@__crt_stdio_input@@AAE_NXZ 0044351f f i libucrt:input.obj
 0001:000425be       ?scan_optional_field_width@?$format_string_parser@_W@__crt_stdio_input@@AAE_NXZ 004435be f i libucrt:input.obj
 0001:000427ea       ?scan_optional_length_modifier@?$format_string_parser@D@__crt_stdio_input@@AAEXXZ 004437ea f i libucrt:input.obj
 0001:0004290a       ?scan_optional_length_modifier@?$format_string_parser@_W@__crt_stdio_input@@AAEXXZ 0044390a f i libucrt:input.obj
 0001:00042a3b       ?scan_optional_literal_character_trail_bytes_tchar@?$format_string_parser@D@__crt_stdio_input@@AAE_ND@Z 00443a3b f i libucrt:input.obj
 0001:00042a90       ?scan_optional_literal_character_trail_bytes_tchar@?$format_string_parser@_W@__crt_stdio_input@@AAE_N_W@Z 00443a90 f i libucrt:input.obj
 0001:00042a95       ?scan_optional_wide_modifier@?$format_string_parser@D@__crt_stdio_input@@AAEXXZ 00443a95 f i libucrt:input.obj
 0001:00042ab3       ?scan_optional_wide_modifier@?$format_string_parser@_W@__crt_stdio_input@@AAEXXZ 00443ab3 f i libucrt:input.obj
 0001:00042add       ?scan_scanset_range@?$format_string_parser@D@__crt_stdio_input@@AAE_NXZ 00443add f i libucrt:input.obj
 0001:00042be4       ?scan_scanset_range@?$format_string_parser@_W@__crt_stdio_input@@AAE_NXZ 00443be4 f i libucrt:input.obj
 0001:00042cf4       ?scanset@?$format_string_parser@D@__crt_stdio_input@@QBEABV?$scanset_buffer@E@2@XZ 00443cf4 f i libucrt:input.obj
 0001:00042cf8       ?scanset@?$format_string_parser@_W@__crt_stdio_input@@QBEABV?$scanset_buffer@_W@2@XZ 00443cf8 f i libucrt:input.obj
 0001:00042cfc       ?secure_buffers@?$input_processor@DV?$stream_input_adapter@D@__crt_stdio_input@@@__crt_stdio_input@@ABE_NXZ 00443cfc f i libucrt:input.obj
 0001:00042d0d       ?secure_buffers@?$input_processor@DV?$string_input_adapter@D@__crt_stdio_input@@@__crt_stdio_input@@ABE_NXZ 00443d0d f i libucrt:input.obj
 0001:00042d1e       ?secure_buffers@?$input_processor@_WV?$stream_input_adapter@_W@__crt_stdio_input@@@__crt_stdio_input@@ABE_NXZ 00443d1e f i libucrt:input.obj
 0001:00042d2f       ?secure_buffers@?$input_processor@_WV?$string_input_adapter@_W@__crt_stdio_input@@@__crt_stdio_input@@ABE_NXZ 00443d2f f i libucrt:input.obj
 0001:00042d40       ?set@?$scanset_buffer@E@__crt_stdio_input@@QAEXE@Z 00443d40 f i libucrt:input.obj
 0001:00042d6b       ?set@?$scanset_buffer@_W@__crt_stdio_input@@QAEX_W@Z 00443d6b f i libucrt:input.obj
 0001:00042d9b       ?set_wide_for_c_s_or_scanset@?$format_string_parser@D@__crt_stdio_input@@AAEXXZ 00443d9b f i libucrt:input.obj
 0001:00042dbb       ?set_wide_for_c_s_or_scanset@?$format_string_parser@_W@__crt_stdio_input@@AAEXXZ 00443dbb f i libucrt:input.obj
 0001:00042de0       ?shift_left@__crt_strtox@@YA_NAAUbig_integer@1@I@Z 00443de0 f i libucrt:input.obj
 0001:00042f2f       ?should_default_to_wide@?$format_string_parser@D@__crt_stdio_input@@AAE_NE@Z 00443f2f f i libucrt:input.obj
 0001:00042f4a       ?should_default_to_wide@?$format_string_parser@_W@__crt_stdio_input@@AAE_N_W@Z 00443f4a f i libucrt:input.obj
 0001:00042f7d       ?should_round_up@__crt_strtox@@YA_N_N000@Z 00443f7d f i libucrt:input.obj
 0001:00042fd2       ?size@?$scanset_storage@$00@__crt_stdio_input@@QBEIXZ 00443fd2 f i libucrt:input.obj
 0001:00042fd6       ?size@?$scanset_storage@$01@__crt_stdio_input@@QBEIXZ 00443fd6 f i libucrt:input.obj
 0001:00042fdc       ?suppress_assignment@?$format_string_parser@D@__crt_stdio_input@@QBE_NXZ 00443fdc f i libucrt:input.obj
 0001:00042fe0       ?suppress_assignment@?$format_string_parser@_W@__crt_stdio_input@@QBE_NXZ 00443fe0 f i libucrt:input.obj
 0001:00042fe4       ?test@?$scanset_buffer@E@__crt_stdio_input@@QBE_NE@Z 00443fe4 f i libucrt:input.obj
 0001:00043015       ?test@?$scanset_buffer@_W@__crt_stdio_input@@QBE_N_W@Z 00444015 f i libucrt:input.obj
 0001:0004304d       ?to_floating_point_length@__crt_stdio_input@@YAIW4length_modifier@1@@Z 0044404d f i libucrt:input.obj
 0001:00043070       ?to_integer_length@__crt_stdio_input@@YAIW4length_modifier@1@@Z 00444070 f i libucrt:input.obj
 0001:000430c8       ?unget@?$input_adapter_character_source@V?$stream_input_adapter@D@__crt_stdio_input@@@__crt_strtox@@QAEXD@Z 004440c8 f i libucrt:input.obj
 0001:00043109       ?unget@?$input_adapter_character_source@V?$stream_input_adapter@_W@__crt_stdio_input@@@__crt_strtox@@QAEX_W@Z 00444109 f i libucrt:input.obj
 0001:0004314e       ?unget@?$input_adapter_character_source@V?$string_input_adapter@D@__crt_stdio_input@@@__crt_strtox@@QAEXD@Z 0044414e f i libucrt:input.obj
 0001:0004318f       ?unget@?$input_adapter_character_source@V?$string_input_adapter@_W@__crt_stdio_input@@@__crt_strtox@@QAEX_W@Z 0044418f f i libucrt:input.obj
 0001:000431d4       ?unget@?$stream_input_adapter@D@__crt_stdio_input@@QAEXH@Z 004441d4 f i libucrt:input.obj
 0001:000431f2       ?unget@?$stream_input_adapter@_W@__crt_stdio_input@@QAEXG@Z 004441f2 f i libucrt:input.obj
 0001:00043215       ?unget@?$string_input_adapter@D@__crt_stdio_input@@QAEXH@Z 00444215 f i libucrt:input.obj
 0001:00043234       ?unget@?$string_input_adapter@_W@__crt_stdio_input@@QAEXG@Z 00444234 f i libucrt:input.obj
 0001:0004325a       ?validate@?$format_string_parser@D@__crt_stdio_input@@QBE_NXZ 0044425a f i libucrt:input.obj
 0001:00043276       ?validate@?$format_string_parser@_W@__crt_stdio_input@@QBE_NXZ 00444276 f i libucrt:input.obj
 0001:00043292       ?validate@?$input_adapter_character_source@V?$stream_input_adapter@D@__crt_stdio_input@@@__crt_strtox@@QBE_NXZ 00444292 f i libucrt:input.obj
 0001:000432b3       ?validate@?$input_adapter_character_source@V?$stream_input_adapter@_W@__crt_stdio_input@@@__crt_strtox@@QBE_NXZ 004442b3 f i libucrt:input.obj
 0001:000432d4       ?validate@?$input_adapter_character_source@V?$string_input_adapter@D@__crt_stdio_input@@@__crt_strtox@@QBE_NXZ 004442d4 f i libucrt:input.obj
 0001:000432f5       ?validate@?$input_adapter_character_source@V?$string_input_adapter@_W@__crt_stdio_input@@@__crt_strtox@@QBE_NXZ 004442f5 f i libucrt:input.obj
 0001:00043316       ?validate@?$stream_input_adapter@D@__crt_stdio_input@@QBE_NXZ 00444316 f i libucrt:input.obj
 0001:00043337       ?validate@?$stream_input_adapter@_W@__crt_stdio_input@@QBE_NXZ 00444337 f i libucrt:input.obj
 0001:00043352       ?validate@?$string_input_adapter@D@__crt_stdio_input@@QAE_NXZ 00444352 f i libucrt:input.obj
 0001:00043374       ?validate@?$string_input_adapter@_W@__crt_stdio_input@@QAE_NXZ 00444374 f i libucrt:input.obj
 0001:00043396       ?wide_character_to_digit@__crt_strtox@@YAH_W@Z 00444396 f i libucrt:input.obj
 0001:00043537       ?width@?$format_string_parser@D@__crt_stdio_input@@QBE_KXZ 00444537 f i libucrt:input.obj
 0001:0004353e       ?width@?$format_string_parser@_W@__crt_stdio_input@@QBE_KXZ 0044453e f i libucrt:input.obj
 0001:00043545       ?write_character@?$input_processor@DV?$stream_input_adapter@D@__crt_stdio_input@@@__crt_stdio_input@@AAE_NQADIAAPADAAID@Z 00444545 f i libucrt:input.obj
 0001:00043561       ?write_character@?$input_processor@DV?$stream_input_adapter@D@__crt_stdio_input@@@__crt_stdio_input@@AAE_NQA_WIAAPA_WAAID@Z 00444561 f i libucrt:input.obj
 0001:000435db       ?write_character@?$input_processor@DV?$string_input_adapter@D@__crt_stdio_input@@@__crt_stdio_input@@AAE_NQADIAAPADAAID@Z 004445db f i libucrt:input.obj
 0001:000435f7       ?write_character@?$input_processor@DV?$string_input_adapter@D@__crt_stdio_input@@@__crt_stdio_input@@AAE_NQA_WIAAPA_WAAID@Z 004445f7 f i libucrt:input.obj
 0001:00043668       ?write_character@?$input_processor@_WV?$stream_input_adapter@_W@__crt_stdio_input@@@__crt_stdio_input@@AAE_NQADIAAPADAAI_W@Z 00444668 f i libucrt:input.obj
 0001:000436f0       ?write_character@?$input_processor@_WV?$stream_input_adapter@_W@__crt_stdio_input@@@__crt_stdio_input@@AAE_NQA_WIAAPA_WAAI_W@Z 004446f0 f i libucrt:input.obj
 0001:0004370f       ?write_character@?$input_processor@_WV?$string_input_adapter@_W@__crt_stdio_input@@@__crt_stdio_input@@AAE_NQADIAAPADAAI_W@Z 0044470f f i libucrt:input.obj
 0001:00043797       ?write_character@?$input_processor@_WV?$string_input_adapter@_W@__crt_stdio_input@@@__crt_stdio_input@@AAE_NQA_WIAAPA_WAAI_W@Z 00444797 f i libucrt:input.obj
 0001:000437b6       ?write_integer@?$input_processor@DV?$stream_input_adapter@D@__crt_stdio_input@@@__crt_stdio_input@@AAE_N_K_N@Z 004447b6 f i libucrt:input.obj
 0001:0004382d       ?write_integer@?$input_processor@DV?$string_input_adapter@D@__crt_stdio_input@@@__crt_stdio_input@@AAE_N_K_N@Z 0044482d f i libucrt:input.obj
 0001:000438a4       ?write_integer@?$input_processor@_WV?$stream_input_adapter@_W@__crt_stdio_input@@@__crt_stdio_input@@AAE_N_K_N@Z 004448a4 f i libucrt:input.obj
 0001:0004391b       ?write_integer@?$input_processor@_WV?$string_input_adapter@_W@__crt_stdio_input@@@__crt_stdio_input@@AAE_N_K_N@Z 0044491b f i libucrt:input.obj
 0001:00043992       ___acrt_get_locale_data_prefix 00444992 f i libucrt:input.obj
 0001:0004399e       ___stdio_common_vfscanf    0044499e f   libucrt:input.obj
 0001:00043a15       ___stdio_common_vfwscanf   00444a15 f   libucrt:input.obj
 0001:00043a8c       ___stdio_common_vsscanf    00444a8c f   libucrt:input.obj
 0001:00043ab0       ___stdio_common_vswscanf   00444ab0 f   libucrt:input.obj
 0001:00043ad4       __chvalidchk_l             00444ad4 f i libucrt:input.obj
 0001:00043afe       __invoke_watson_if_oneof   00444afe f i libucrt:input.obj
 0001:00043b2b       __ischartype_l             00444b2b f i libucrt:input.obj
 0001:00043bf5       ___isascii                 00444bf5 f i libucrt:_ctype.obj
 0001:00043c07       ___iscsym                  00444c07 f i libucrt:_ctype.obj
 0001:00043c29       ___iscsymf                 00444c29 f i libucrt:_ctype.obj
 0001:00043c48       ___toascii                 00444c48 f i libucrt:_ctype.obj
 0001:00043c55       __isalnum_l                00444c55 f i libucrt:_ctype.obj
 0001:00043c90       __isalpha_l                00444c90 f i libucrt:_ctype.obj
 0001:00043ccb       __isblank_l                00444ccb f i libucrt:_ctype.obj
 0001:00043d0e       __iscntrl_l                00444d0e f i libucrt:_ctype.obj
 0001:00043d46       __iscsym_l                 00444d46 f i libucrt:_ctype.obj
 0001:00043d69       __iscsymf_l                00444d69 f i libucrt:_ctype.obj
 0001:00043d8c       __isdigit_l                00444d8c f i libucrt:_ctype.obj
 0001:00043dc4       __isgraph_l                00444dc4 f i libucrt:_ctype.obj
 0001:00043dff       __islower_l                00444dff f i libucrt:_ctype.obj
 0001:00043e37       __isprint_l                00444e37 f i libucrt:_ctype.obj
 0001:00043e72       __ispunct_l                00444e72 f i libucrt:_ctype.obj
 0001:00043eaa       __isspace_l                00444eaa f i libucrt:_ctype.obj
 0001:00043ee2       __isupper_l                00444ee2 f i libucrt:_ctype.obj
 0001:00043f1a       __isxdigit_l               00444f1a f i libucrt:_ctype.obj
 0001:00043f55       _isalnum                   00444f55 f i libucrt:_ctype.obj
 0001:00043f84       _isalpha                   00444f84 f i libucrt:_ctype.obj
 0001:00043fb3       _isblank                   00444fb3 f i libucrt:_ctype.obj
 0001:00043fea       _iscntrl                   00444fea f i libucrt:_ctype.obj
 0001:00044017       _isdigit                   00445017 f i libucrt:_ctype.obj
 0001:00044044       _isgraph                   00445044 f i libucrt:_ctype.obj
 0001:00044073       _islower                   00445073 f i libucrt:_ctype.obj
 0001:000440a0       _isprint                   004450a0 f i libucrt:_ctype.obj
 0001:000440cf       _ispunct                   004450cf f i libucrt:_ctype.obj
 0001:000440fc       _isspace                   004450fc f i libucrt:_ctype.obj
 0001:00044129       _isupper                   00445129 f i libucrt:_ctype.obj
 0001:00044156       _isxdigit                  00445156 f i libucrt:_ctype.obj
 0001:00044185       ??0?$__crt_scoped_stack_ptr@D@@QAE@U?$__crt_scoped_stack_ptr_tag@D@@@Z 00445185 f i libucrt:strupr.obj
 0001:00044195       ??0?$__crt_scoped_stack_ptr_tag@D@@QAE@QAD@Z 00445195 f i libucrt:strupr.obj
 0001:000441a5       ??1?$__crt_scoped_stack_ptr@D@@QAE@XZ 004451a5 f i libucrt:strupr.obj
 0001:000441ae       ??B?$__crt_scoped_stack_ptr@D@@QBE_NXZ 004451ae f i libucrt:strupr.obj
 0001:00044332       ?get@?$__crt_scoped_stack_ptr@D@@QBEPADXZ 00445332 f i libucrt:strupr.obj
 0001:00044335       __MallocaComputeSize       00445335 f i libucrt:strupr.obj
 0001:00044348       __MarkAllocaS              00445348 f i libucrt:strupr.obj
 0001:0004435e       __freea_crt                0044535e f i libucrt:strupr.obj
 0001:0004437e       __strupr                   0044537e f   libucrt:strupr.obj
 0001:000443db       __strupr_l                 004453db f   libucrt:strupr.obj
 0001:000443f5       __strupr_s                 004453f5 f   libucrt:strupr.obj
 0001:0004440c       __strupr_s_l               0044540c f   libucrt:strupr.obj
 0001:00044445       ___acrt_errno_from_os_error 00445445 f   libucrt:errno.obj
 0001:00044488       ___acrt_errno_map_os_error 00445488 f   libucrt:errno.obj
 0001:000444ab       ___doserrno                004454ab f   libucrt:errno.obj
 0001:000444be       __errno                    004454be f   libucrt:errno.obj
 0001:000444d1       __get_doserrno             004454d1 f   libucrt:errno.obj
 0001:000444f6       __get_errno                004454f6 f   libucrt:errno.obj
 0001:0004451b       __set_doserrno             0044551b f   libucrt:errno.obj
 0001:0004453c       __set_errno                0044553c f   libucrt:errno.obj
 0001:000445b7       _strcpy_s                  004455b7 f   libucrt:strcpy_s.obj
 0001:000446c2       _strncpy_s                 004456c2 f   libucrt:strncpy_s.obj
 0001:000446cd       __invoke_watson_if_error   004456cd f i libucrt:strdup.obj
 0001:000446ef       __strdup                   004456ef f   libucrt:strdup.obj
 0001:000446ef       _strdup                    004456ef f   libucrt:strdup.obj
 0001:00044745       __recalloc                 00445745 f   libucrt:recalloc.obj
 0001:00044750       __recalloc_base            00445750 f   libucrt:recalloc.obj
 0001:000447bd       ??$is_overflow_condition@K@__crt_strtox@@YA_NIK@Z 004457bd f i libucrt:atox.obj
 0001:000447f0       ??$make_c_string_character_source@D$$T@__crt_strtox@@YA?AV?$c_string_character_source@D@0@QBD$$T@Z 004457f0 f i libucrt:atox.obj
 0001:0004480b       ??$make_c_string_character_source@_W$$T@__crt_strtox@@YA?AV?$c_string_character_source@_W@0@QB_W$$T@Z 0044580b f i libucrt:atox.obj
 0001:00044826       ??$parse_integer@KV?$c_string_character_source@D@__crt_strtox@@@__crt_strtox@@YAKQAU__crt_locale_pointers@@V?$c_string_character_source@D@0@H_N@Z 00445826 f i libucrt:atox.obj
 0001:00044a4e       ??$parse_integer@KV?$c_string_character_source@_W@__crt_strtox@@@__crt_strtox@@YAKQAU__crt_locale_pointers@@V?$c_string_character_source@_W@0@H_N@Z 00445a4e f i libucrt:atox.obj
 0001:00045133       ??$parse_integer@_KV?$c_string_character_source@D@__crt_strtox@@@__crt_strtox@@YA_KQAU__crt_locale_pointers@@V?$c_string_character_source@D@0@H_N@Z 00446133 f i libucrt:atox.obj
 0001:000453d9       ??$parse_integer@_KV?$c_string_character_source@_W@__crt_strtox@@@__crt_strtox@@YA_KQAU__crt_locale_pointers@@V?$c_string_character_source@_W@0@H_N@Z 004463d9 f i libucrt:atox.obj
 0001:000459ce       ??$parse_integer_from_string@JD$$T@__crt_strtox@@YAJQBD$$THQAU__crt_locale_pointers@@@Z 004469ce f i libucrt:atox.obj
 0001:000459fb       ??$parse_integer_from_string@J_W$$T@__crt_strtox@@YAJQB_W$$THQAU__crt_locale_pointers@@@Z 004469fb f i libucrt:atox.obj
 0001:00045a28       ??$parse_integer_from_string@_JD$$T@__crt_strtox@@YA_JQBD$$THQAU__crt_locale_pointers@@@Z 00446a28 f i libucrt:atox.obj
 0001:00045a55       ??$parse_integer_from_string@_J_W$$T@__crt_strtox@@YA_JQB_W$$THQAU__crt_locale_pointers@@@Z 00446a55 f i libucrt:atox.obj
 0001:00045a82       ??0?$c_string_character_source@D@__crt_strtox@@QAE@QBDQAPBD@Z 00446a82 f i libucrt:atox.obj
 0001:00045a9e       ??0?$c_string_character_source@_W@__crt_strtox@@QAE@QB_WQAPB_W@Z 00446a9e f i libucrt:atox.obj
 0001:00045aba       ??1?$c_string_character_source@D@__crt_strtox@@QAE@XZ 00446aba f i libucrt:atox.obj
 0001:00045ac6       ??1?$c_string_character_source@_W@__crt_strtox@@QAE@XZ 00446ac6 f i libucrt:atox.obj
 0001:00045ad2       ?get@?$c_string_character_source@D@__crt_strtox@@QAEDXZ 00446ad2 f i libucrt:atox.obj
 0001:00045ada       ?get@?$c_string_character_source@_W@__crt_strtox@@QAE_WXZ 00446ada f i libucrt:atox.obj
 0001:00045ae5       ?maximum_signed_value@__crt_strtox@@YAJK@Z 00446ae5 f i libucrt:atox.obj
 0001:00045aeb       ?minimum_signed_value@__crt_strtox@@YAJK@Z 00446aeb f i libucrt:atox.obj
 0001:00045af1       ?restore_state@?$c_string_character_source@D@__crt_strtox@@QAE_NQBD@Z 00446af1 f i libucrt:atox.obj
 0001:00045b01       ?restore_state@?$c_string_character_source@_W@__crt_strtox@@QAE_NQB_W@Z 00446b01 f i libucrt:atox.obj
 0001:00045b11       ?save_state@?$c_string_character_source@D@__crt_strtox@@QBEPBDXZ 00446b11 f i libucrt:atox.obj
 0001:00045b14       ?save_state@?$c_string_character_source@_W@__crt_strtox@@QBEPB_WXZ 00446b14 f i libucrt:atox.obj
 0001:00045b17       ?unget@?$c_string_character_source@D@__crt_strtox@@QAEXD@Z 00446b17 f i libucrt:atox.obj
 0001:00045b3f       ?unget@?$c_string_character_source@_W@__crt_strtox@@QAEX_W@Z 00446b3f f i libucrt:atox.obj
 0001:00045b6b       ?validate@?$c_string_character_source@D@__crt_strtox@@QBE_NXZ 00446b6b f i libucrt:atox.obj
 0001:00045b86       ?validate@?$c_string_character_source@_W@__crt_strtox@@QBE_NXZ 00446b86 f i libucrt:atox.obj
 0001:00045ba1       __atoi64                   00446ba1 f   libucrt:atox.obj
 0001:00045bcb       __atoi64_l                 00446bcb f   libucrt:atox.obj
 0001:00045bf6       __atoi_l                   00446bf6 f   libucrt:atox.obj
 0001:00045c21       __atol_l                   00446c21 f   libucrt:atox.obj
 0001:00045c4c       __atoll_l                  00446c4c f   libucrt:atox.obj
 0001:00045c77       __wtoi                     00446c77 f   libucrt:atox.obj
 0001:00045ca1       __wtoi64                   00446ca1 f   libucrt:atox.obj
 0001:00045ccb       __wtoi64_l                 00446ccb f   libucrt:atox.obj
 0001:00045cf6       __wtoi_l                   00446cf6 f   libucrt:atox.obj
 0001:00045d21       __wtol                     00446d21 f   libucrt:atox.obj
 0001:00045d4b       __wtol_l                   00446d4b f   libucrt:atox.obj
 0001:00045d76       __wtoll                    00446d76 f   libucrt:atox.obj
 0001:00045da0       __wtoll_l                  00446da0 f   libucrt:atox.obj
 0001:00045dcb       _atoi                      00446dcb f   libucrt:atox.obj
 0001:00045df5       _atol                      00446df5 f   libucrt:atox.obj
 0001:00045e1f       _atoll                     00446e1f f   libucrt:atox.obj
 0001:00045e49       ___acrt_initialize_command_line 00446e49 f   libucrt:argv_data.obj
 0001:00045e62       ___acrt_uninitialize_command_line 00446e62 f   libucrt:argv_data.obj
 0001:00045e65       ___p___argc                00446e65 f   libucrt:argv_data.obj
 0001:00045e6b       ___p___argv                00446e6b f   libucrt:argv_data.obj
 0001:00045e71       ___p___wargv               00446e71 f   libucrt:argv_data.obj
 0001:00045e77       ___p__acmdln               00446e77 f   libucrt:argv_data.obj
 0001:00045e7d       ___p__pgmptr               00446e7d f   libucrt:argv_data.obj
 0001:00045e83       ___p__wcmdln               00446e83 f   libucrt:argv_data.obj
 0001:00045e89       ___p__wpgmptr              00446e89 f   libucrt:argv_data.obj
 0001:00045e8f       __get_pgmptr               00446e8f f   libucrt:argv_data.obj
 0001:00045ec0       __get_wpgmptr              00446ec0 f   libucrt:argv_data.obj
 0001:00045ef1       __resetstkoflw             00446ef1 f   libucrt:resetstk.obj
 0001:00045fc2       ??$?RPAU__crt_stdio_stream_data@@@__crt_internal_free_policy@@QBEXQBQAU__crt_stdio_stream_data@@@Z 00446fc2 f i libucrt:_file.obj
 0001:00045fd4       ??0?$__crt_unique_heap_ptr@PAU__crt_stdio_stream_data@@U__crt_internal_free_policy@@@@QAE@QAPAU__crt_stdio_stream_data@@@Z 00446fd4 f i libucrt:_file.obj
 0001:00045fe4       ??1?$__crt_unique_heap_ptr@PAU__crt_stdio_stream_data@@U__crt_internal_free_policy@@@@QAE@XZ 00446fe4 f i libucrt:_file.obj
 0001:00045ff6       ?detach@?$__crt_unique_heap_ptr@PAU__crt_stdio_stream_data@@U__crt_internal_free_policy@@@@QAEPAPAU__crt_stdio_stream_data@@XZ 00446ff6 f i libucrt:_file.obj
 0001:00045ffc       ?release@?$__crt_unique_heap_ptr@PAU__crt_stdio_stream_data@@U__crt_internal_free_policy@@@@QAEXXZ 00446ffc f i libucrt:_file.obj
 0001:0004600e       ___acrt_initialize_stdio   0044700e f   libucrt:_file.obj
 0001:000460d6       ___acrt_iob_func           004470d6 f   libucrt:_file.obj
 0001:000460e6       ___acrt_uninitialize_stdio 004470e6 f   libucrt:_file.obj
 0001:00046132       __get_stream_buffer_pointers 00447132 f   libucrt:_file.obj
 0001:00046178       __lock_file                00447178 f   libucrt:_file.obj
 0001:0004618c       __unlock_file              0044718c f   libucrt:_file.obj
 0001:000461a0       ??$__acrt_stdio_parse_mode@D@@YA?AU__acrt_stdio_stream_mode@@QBD@Z 004471a0 f i libucrt:fdopen.obj
 0001:000463d2       ??$__acrt_stdio_parse_mode@_W@@YA?AU__acrt_stdio_stream_mode@@QB_W@Z 004473d2 f i libucrt:fdopen.obj
 0001:00046806       ??$tcsncmp@AAPBDAAY02$$CBDI@?$__crt_char_traits@D@@SAHAAPBDAAY02$$CBD$$QAI@Z 00447806 f i libucrt:fdopen.obj
 0001:00046822       ??$tcsncmp@AAPB_WAAY02$$CB_WI@?$__crt_char_traits@_W@@SAHAAPB_WAAY02$$CB_W$$QAI@Z 00447822 f i libucrt:fdopen.obj
 0001:0004683e       ??$tcsnicmp@AAPBDAAY04$$CBDI@?$__crt_char_traits@D@@SAHAAPBDAAY04$$CBD$$QAI@Z 0044783e f i libucrt:fdopen.obj
 0001:0004685a       ??$tcsnicmp@AAPBDAAY06$$CBDI@?$__crt_char_traits@D@@SAHAAPBDAAY06$$CBD$$QAI@Z 0044785a f i libucrt:fdopen.obj
 0001:00046876       ??$tcsnicmp@AAPBDAAY07$$CBDI@?$__crt_char_traits@D@@SAHAAPBDAAY07$$CBD$$QAI@Z 00447876 f i libucrt:fdopen.obj
 0001:00046892       ??$tcsnicmp@AAPB_WAAY04$$CB_WI@?$__crt_char_traits@_W@@SAHAAPB_WAAY04$$CB_W$$QAI@Z 00447892 f i libucrt:fdopen.obj
 0001:000468ae       ??$tcsnicmp@AAPB_WAAY06$$CB_WI@?$__crt_char_traits@_W@@SAHAAPB_WAAY06$$CB_W$$QAI@Z 004478ae f i libucrt:fdopen.obj
 0001:000468ca       ??$tcsnicmp@AAPB_WAAY07$$CB_WI@?$__crt_char_traits@_W@@SAHAAPB_WAAY07$$CB_W$$QAI@Z 004478ca f i libucrt:fdopen.obj
 0001:000468e6       ?__acrt_stdio_parse_mode_D@@YA_NAAU__acrt_stdio_stream_mode@@@Z 004478e6 f i libucrt:fdopen.obj
 0001:00046901       ?__acrt_stdio_parse_mode_N@@YA_NAAU__acrt_stdio_stream_mode@@@Z 00447901 f i libucrt:fdopen.obj
 0001:00046913       ?__acrt_stdio_parse_mode_R@@YA_NAAU__acrt_stdio_stream_mode@@AA_N@Z 00447913 f i libucrt:fdopen.obj
 0001:00046931       ?__acrt_stdio_parse_mode_S@@YA_NAAU__acrt_stdio_stream_mode@@AA_N@Z 00447931 f i libucrt:fdopen.obj
 0001:0004694f       ?__acrt_stdio_parse_mode_T@@YA_NAAU__acrt_stdio_stream_mode@@@Z 0044794f f i libucrt:fdopen.obj
 0001:0004696e       ?__acrt_stdio_parse_mode_b@@YA_NAAU__acrt_stdio_stream_mode@@@Z 0044796e f i libucrt:fdopen.obj
 0001:0004698e       ?__acrt_stdio_parse_mode_c@@YA_NAAU__acrt_stdio_stream_mode@@AA_N@Z 0044798e f i libucrt:fdopen.obj
 0001:000469b0       ?__acrt_stdio_parse_mode_n@@YA_NAAU__acrt_stdio_stream_mode@@AA_N@Z 004479b0 f i libucrt:fdopen.obj
 0001:000469d2       ?__acrt_stdio_parse_mode_plus@@YA_NAAU__acrt_stdio_stream_mode@@AA_N@Z 004479d2 f i libucrt:fdopen.obj
 0001:00046a07       ?__acrt_stdio_parse_mode_t@@YA_NAAU__acrt_stdio_stream_mode@@@Z 00447a07 f i libucrt:fdopen.obj
 0001:00046a27       __fdopen                   00447a27 f   libucrt:fdopen.obj
 0001:00046a32       __wfdopen                  00447a32 f   libucrt:fdopen.obj
 0001:00046a3d       ??$?RV<lambda_d92cfe8357b99225085016881b624cb0>@@AAV<lambda_b721fa326cdb32351d23dfa67958c160>@@V<lambda_42d75b0848218ec137fa420c8ba9fdf9>@@@?$__crt_seh_guarded_call@H@@QAEH$$QAV<lambda_d92cfe8357b99225085016881b624cb0>@@AAV<lambda_b721fa326cdb32351d23dfa67958c160>@@$$QAV<lambda_42d75b0848218ec137fa420c8ba9fdf9>@@@Z 00447a3d f i libucrt:setvbuf.obj
 0001:00046a8e       ??$__acrt_lock_stream_and_call@V<lambda_b721fa326cdb32351d23dfa67958c160>@@@@YAHQAU_iobuf@@$$QAV<lambda_b721fa326cdb32351d23dfa67958c160>@@@Z 00447a8e f i libucrt:setvbuf.obj
 0001:00046ba8       ?detach@?$__crt_unique_heap_ptr@DU__crt_internal_free_policy@@@@QAEPADXZ 00447ba8 f i libucrt:setvbuf.obj
 0001:00046be1       _setvbuf                   00447be1 f   libucrt:setvbuf.obj
 0001:00046c57       ??$?RU__crt_lowio_handle_data@@@__crt_internal_free_policy@@QBEXQBU__crt_lowio_handle_data@@@Z 00447c57 f i libucrt:osfinfo.obj
 0001:00046c69       ??0?$__crt_unique_heap_ptr@U__crt_lowio_handle_data@@U__crt_internal_free_policy@@@@QAE@QAU__crt_lowio_handle_data@@@Z 00447c69 f i libucrt:osfinfo.obj
 0001:00046c79       ??1?$__crt_unique_heap_ptr@U__crt_lowio_handle_data@@U__crt_internal_free_policy@@@@QAE@XZ 00447c79 f i libucrt:osfinfo.obj
 0001:00046c8b       ??B?$__crt_unique_heap_ptr@U__crt_lowio_handle_data@@U__crt_internal_free_policy@@@@QBE_NXZ 00447c8b f i libucrt:osfinfo.obj
